

HI-TECH Software PIC LITE Macro Assembler V1.00 build 12136 
                                                                                               Wed Jun 27 12:57:19 2012

HI-TECH Software Omniscient Code Generator (Lite mode) build 12136
     1  0000                     opt subtitle "HI-TECH Software Omniscient Code Generator (Lite mode) build 12136"
     2                           
     3                           opt pagewidth 120
     4                           
     5                           	opt lm
     6                           
     7                           	processor	16F876A
     8                           clrc	macro
     9                           	bcf	3,0
    10  0000                     	endm
    11                           clrz	macro
    12                           	bcf	3,2
    13  0000                     	endm
    14                           setc	macro
    15                           	bsf	3,0
    16  0000                     	endm
    17                           setz	macro
    18                           	bsf	3,2
    19  0000                     	endm
    20                           skipc	macro
    21                           	btfss	3,0
    22  0000                     	endm
    23                           skipz	macro
    24                           	btfss	3,2
    25  0000                     	endm
    26                           skipnc	macro
    27                           	btfsc	3,0
    28  0000                     	endm
    29                           skipnz	macro
    30                           	btfsc	3,2
    31  0000                     	endm
    32  0000                     indf	equ	0
    33  0000                     indf0	equ	0
    34  0002                     pc	equ	2
    35  0002                     pcl	equ	2
    36  0003                     status	equ	3
    37  0004                     fsr	equ	4
    38  0004                     fsr0	equ	4
    39  0001                     c	equ	1
    40  0000                     z	equ	0
    41  000A                     pclath	equ	10
    42                           # 13 "PR22.c"
    43                           psect config,class=CONFIG,delta=2 ;# 
    44                           # 13 "PR22.c"
    45  2007  3F32               dw 0x3F32 ;# 
    46                           	FNCALL	_main,_send_config
    47                           	FNCALL	_main,_lcd_clr
    48                           	FNCALL	_main,_lcd_goto
    49                           	FNCALL	_main,_send_string
    50                           	FNCALL	_main,_delay
    51                           	FNCALL	_main,_mode1
    52                           	FNCALL	_main,_mode2
    53                           	FNCALL	_main,_mode3
    54                           	FNCALL	_mode1,_lcd_clr
    55                           	FNCALL	_mode1,_lcd_goto
    56                           	FNCALL	_mode1,_send_string
    57                           	FNCALL	_mode1,_delay
    58                           	FNCALL	_mode1,_i2c_start
    59                           	FNCALL	_mode1,___lwmod
    60                           	FNCALL	_mode1,___lwdiv
    61                           	FNCALL	_mode1,_send_char
    62                           	FNCALL	_mode2,_lcd_goto
    63                           	FNCALL	_mode2,_send_string
    64                           	FNCALL	_mode2,_i2c_start
    65                           	FNCALL	_mode2,_lcd_clr
    66                           	FNCALL	_mode2,_delay
    67                           	FNCALL	_mode2,___lwdiv
    68                           	FNCALL	_mode2,_send_char
    69                           	FNCALL	_mode2,___lwmod
    70                           	FNCALL	_mode2,___awmod
    71                           	FNCALL	_mode2,___awdiv
    72                           	FNCALL	_mode3,_spi_baro
    73                           	FNCALL	_mode3,_lcd_clr
    74                           	FNCALL	_mode3,_lcd_goto
    75                           	FNCALL	_mode3,_send_string
    76                           	FNCALL	_mode3,___lldiv
    77                           	FNCALL	_mode3,___lwmod
    78                           	FNCALL	_mode3,___lwdiv
    79                           	FNCALL	_mode3,_send_char
    80                           	FNCALL	_mode3,___llmod
    81                           	FNCALL	_mode3,_delay
    82                           	FNCALL	_lcd_clr,_send_config
    83                           	FNCALL	_lcd_clr,_delay
    84                           	FNCALL	_lcd_goto,_send_config
    85                           	FNCALL	_send_config,_delay
    86                           	FNCALL	_send_string,_send_char
    87                           	FNCALL	_send_char,_delay
    88                           	FNCALL	_spi_baro,_spi_start
    89                           	FNCALL	_spi_start,_delay
    90                           	FNROOT	_main
    91                           	global	_i2c_master_data
    92                           	global	_i2c_master_rcvb
    93                           	global	_mode
    94                           	global	_spi_baro_rcvb
    95                           	global	_CCP1CON
    96  0017                     _CCP1CON	set	0x17
    97                           	global	_CCP2CON
    98  001D                     _CCP2CON	set	0x1D
    99                           	global	_CCPR1L
   100  0015                     _CCPR1L	set	0x15
   101                           	global	_CCPR2L
   102  001B                     _CCPR2L	set	0x1B
   103                           	global	_PORTB
   104  0006                     _PORTB	set	0x6
   105                           	global	_SSPBUF
   106  0013                     _SSPBUF	set	0x13
   107                           	global	_SSPCON
   108  0014                     _SSPCON	set	0x14
   109                           	global	_T2CON
   110  0012                     _T2CON	set	0x12
   111                           	global	_RA0
   112  0028                     _RA0	set	0x28
   113                           	global	_RA1
   114  0029                     _RA1	set	0x29
   115                           	global	_RA2
   116  002A                     _RA2	set	0x2A
   117                           	global	_RA3
   118  002B                     _RA3	set	0x2B
   119                           	global	_RA5
   120  002D                     _RA5	set	0x2D
   121                           	global	_RC0
   122  0038                     _RC0	set	0x38
   123                           	global	_RC5
   124  003D                     _RC5	set	0x3D
   125                           	global	_RC6
   126  003E                     _RC6	set	0x3E
   127                           	global	_RC7
   128  003F                     _RC7	set	0x3F
   129                           	global	_SSPIF
   130  0063                     _SSPIF	set	0x63
   131                           	global	_ADCON1
   132  009F                     _ADCON1	set	0x9F
   133                           	global	_PR2
   134  0092                     _PR2	set	0x92
   135                           	global	_SSPADD
   136  0093                     _SSPADD	set	0x93
   137                           	global	_SSPCON2
   138  0091                     _SSPCON2	set	0x91
   139                           	global	_SSPSTAT
   140  0094                     _SSPSTAT	set	0x94
   141                           	global	_TRISA
   142  0085                     _TRISA	set	0x85
   143                           	global	_TRISB
   144  0086                     _TRISB	set	0x86
   145                           	global	_TRISC
   146  0087                     _TRISC	set	0x87
   147                           	global	_ACKDT
   148  048D                     _ACKDT	set	0x48D
   149                           	global	_ACKEN
   150  048C                     _ACKEN	set	0x48C
   151                           	global	_PEN
   152  048A                     _PEN	set	0x48A
   153                           	global	_RCEN
   154  048B                     _RCEN	set	0x48B
   155                           	global	_SEN
   156  0488                     _SEN	set	0x488
   157                           psect	strings,class=STRING,delta=2
   158                           global __pstrings
   159  0800                     __pstrings:
   160                           ;	global	stringdir,stringtab,__stringbase
   161  0800                     stringtab:
   162                           ;	String table - string pointers are 1 byte each
   163  0800                     stringcode:stringdir:
      + 0800                     stringdir:	
   164  0800  3008               movlw high(stringdir)
   165  0801  008A               movwf pclath
   166  0802  0804               movf fsr,w
   167  0803  0A84               incf fsr
   168  0804  0782               	addwf pc
   169  0805                     __stringbase:
   170  0805  3400               	retlw	0
   171                           psect	strings
   172                           	
   173  0806                     STR_19:	
   174  0806  3443               	retlw	67	;'C'
   175  0807  3461               	retlw	97	;'a'
   176  0808  346C               	retlw	108	;'l'
   177  0809  3469               	retlw	105	;'i'
   178  080A  3462               	retlw	98	;'b'
   179  080B  3472               	retlw	114	;'r'
   180  080C  3461               	retlw	97	;'a'
   181  080D  3474               	retlw	116	;'t'
   182  080E  3469               	retlw	105	;'i'
   183  080F  346E               	retlw	110	;'n'
   184  0810  3467               	retlw	103	;'g'
   185  0811  342E               	retlw	46	;'.'
   186  0812  342E               	retlw	46	;'.'
   187  0813  342E               	retlw	46	;'.'
   188  0814  3420               	retlw	32	;' '
   189  0815  3420               	retlw	32	;' '
   190  0816  3400               	retlw	0
   191                           psect	strings
   192                           	
   193  0817                     STR_20:	
   194  0817  3443               	retlw	67	;'C'
   195  0818  3461               	retlw	97	;'a'
   196  0819  346C               	retlw	108	;'l'
   197  081A  3469               	retlw	105	;'i'
   198  081B  3462               	retlw	98	;'b'
   199  081C  3472               	retlw	114	;'r'
   200  081D  3461               	retlw	97	;'a'
   201  081E  3474               	retlw	116	;'t'
   202  081F  3469               	retlw	105	;'i'
   203  0820  346F               	retlw	111	;'o'
   204  0821  346E               	retlw	110	;'n'
   205  0822  3420               	retlw	32	;' '
   206  0823  3446               	retlw	70	;'F'
   207  0824  3461               	retlw	97	;'a'
   208  0825  3469               	retlw	105	;'i'
   209  0826  346C               	retlw	108	;'l'
   210  0827  3400               	retlw	0
   211                           psect	strings
   212                           	
   213  0828                     STR_12:	
   214  0828  3445               	retlw	69	;'E'
   215  0829  3478               	retlw	120	;'x'
   216  082A  3469               	retlw	105	;'i'
   217  082B  3474               	retlw	116	;'t'
   218  082C  343F               	retlw	63	;'?'
   219  082D  3420               	retlw	32	;' '
   220  082E  3420               	retlw	32	;' '
   221  082F  3420               	retlw	32	;' '
   222  0830  3420               	retlw	32	;' '
   223  0831  3420               	retlw	32	;' '
   224  0832  3420               	retlw	32	;' '
   225  0833  3420               	retlw	32	;' '
   226  0834  3420               	retlw	32	;' '
   227  0835  3420               	retlw	32	;' '
   228  0836  3420               	retlw	32	;' '
   229  0837  3400               	retlw	0
   230                           psect	strings
   231                           	
   232  0838                     STR_10:	
   233  0838  3443               	retlw	67	;'C'
   234  0839  3461               	retlw	97	;'a'
   235  083A  346C               	retlw	108	;'l'
   236  083B  3469               	retlw	105	;'i'
   237  083C  3462               	retlw	98	;'b'
   238  083D  3472               	retlw	114	;'r'
   239  083E  3461               	retlw	97	;'a'
   240  083F  3474               	retlw	116	;'t'
   241  0840  3469               	retlw	105	;'i'
   242  0841  346F               	retlw	111	;'o'
   243  0842  346E               	retlw	110	;'n'
   244  0843  343F               	retlw	63	;'?'
   245  0844  3420               	retlw	32	;' '
   246  0845  3420               	retlw	32	;' '
   247  0846  3420               	retlw	32	;' '
   248  0847  3400               	retlw	0
   249                           psect	strings
   250                           	
   251  0848                     STR_11:	
   252  0848  3452               	retlw	82	;'R'
   253  0849  3465               	retlw	101	;'e'
   254  084A  3473               	retlw	115	;'s'
   255  084B  3465               	retlw	101	;'e'
   256  084C  3474               	retlw	116	;'t'
   257  084D  3420               	retlw	32	;' '
   258  084E  344F               	retlw	79	;'O'
   259  084F  3466               	retlw	102	;'f'
   260  0850  3466               	retlw	102	;'f'
   261  0851  3473               	retlw	115	;'s'
   262  0852  3465               	retlw	101	;'e'
   263  0853  3474               	retlw	116	;'t'
   264  0854  343F               	retlw	63	;'?'
   265  0855  3420               	retlw	32	;' '
   266  0856  3420               	retlw	32	;' '
   267  0857  3400               	retlw	0
   268                           psect	strings
   269                           	
   270  0858                     STR_9:	
   271  0858  3448               	retlw	72	;'H'
   272  0859  3465               	retlw	101	;'e'
   273  085A  3461               	retlw	97	;'a'
   274  085B  3464               	retlw	100	;'d'
   275  085C  3469               	retlw	105	;'i'
   276  085D  346E               	retlw	110	;'n'
   277  085E  3467               	retlw	103	;'g'
   278  085F  3420               	retlw	32	;' '
   279  0860  344F               	retlw	79	;'O'
   280  0861  3475               	retlw	117	;'u'
   281  0862  3474               	retlw	116	;'t'
   282  0863  3470               	retlw	112	;'p'
   283  0864  3475               	retlw	117	;'u'
   284  0865  3474               	retlw	116	;'t'
   285  0866  343F               	retlw	63	;'?'
   286  0867  3400               	retlw	0
   287                           psect	strings
   288                           	
   289  0868                     STR_15:	
   290  0868  3443               	retlw	67	;'C'
   291  0869  3461               	retlw	97	;'a'
   292  086A  346C               	retlw	108	;'l'
   293  086B  3469               	retlw	105	;'i'
   294  086C  3462               	retlw	98	;'b'
   295  086D  3472               	retlw	114	;'r'
   296  086E  3461               	retlw	97	;'a'
   297  086F  3474               	retlw	116	;'t'
   298  0870  3469               	retlw	105	;'i'
   299  0871  346E               	retlw	110	;'n'
   300  0872  3467               	retlw	103	;'g'
   301  0873  342E               	retlw	46	;'.'
   302  0874  342E               	retlw	46	;'.'
   303  0875  342E               	retlw	46	;'.'
   304  0876  3400               	retlw	0
   305                           psect	strings
   306                           	
   307  0877                     STR_1:	
   308  0877  3443               	retlw	67	;'C'
   309  0878  3479               	retlw	121	;'y'
   310  0879  3474               	retlw	116	;'t'
   311  087A  3472               	retlw	114	;'r'
   312  087B  346F               	retlw	111	;'o'
   313  087C  346E               	retlw	110	;'n'
   314  087D  3420               	retlw	32	;' '
   315  087E  3454               	retlw	84	;'T'
   316  087F  3465               	retlw	101	;'e'
   317  0880  3463               	retlw	99	;'c'
   318  0881  3468               	retlw	104	;'h'
   319  0882  342E               	retlw	46	;'.'
   320  0883  3400               	retlw	0
   321                           psect	strings
   322                           	
   323  0884                     STR_23:	
   324  0884  3453               	retlw	83	;'S'
   325  0885  3461               	retlw	97	;'a'
   326  0886  3474               	retlw	116	;'t'
   327  0887  3475               	retlw	117	;'u'
   328  0888  3472               	retlw	114	;'r'
   329  0889  3461               	retlw	97	;'a'
   330  088A  3474               	retlw	116	;'t'
   331  088B  3465               	retlw	101	;'e'
   332  088C  3464               	retlw	100	;'d'
   333  088D  3400               	retlw	0
   334                           psect	strings
   335                           	
   336  088E                     STR_13:	
   337  088E  3448               	retlw	72	;'H'
   338  088F  3465               	retlw	101	;'e'
   339  0890  3461               	retlw	97	;'a'
   340  0891  3464               	retlw	100	;'d'
   341  0892  3469               	retlw	105	;'i'
   342  0893  346E               	retlw	110	;'n'
   343  0894  3467               	retlw	103	;'g'
   344  0895  343A               	retlw	58	;':'
   345  0896  3400               	retlw	0
   346                           psect	strings
   347                           	
   348  0897                     STR_6:	
   349  0897  3441               	retlw	65	;'A'
   350  0898  3444               	retlw	68	;'D'
   351  0899  3437               	retlw	55	;'7'
   352  089A  3437               	retlw	55	;'7'
   353  089B  3434               	retlw	52	;'4'
   354  089C  3436               	retlw	54	;'6'
   355  089D  3420               	retlw	32	;' '
   356  089E  3400               	retlw	0
   357                           psect	strings
   358                           	
   359  089F                     STR_7:	
   360  089F  3453               	retlw	83	;'S'
   361  08A0  3443               	retlw	67	;'C'
   362  08A1  3450               	retlw	80	;'P'
   363  08A2  3431               	retlw	49	;'1'
   364  08A3  3430               	retlw	48	;'0'
   365  08A4  3430               	retlw	48	;'0'
   366  08A5  3430               	retlw	48	;'0'
   367  08A6  3400               	retlw	0
   368                           psect	strings
   369                           	
   370  08A7                     STR_5:	
   371  08A7  3448               	retlw	72	;'H'
   372  08A8  344D               	retlw	77	;'M'
   373  08A9  3443               	retlw	67	;'C'
   374  08AA  3436               	retlw	54	;'6'
   375  08AB  3433               	retlw	51	;'3'
   376  08AC  3435               	retlw	53	;'5'
   377  08AD  3432               	retlw	50	;'2'
   378  08AE  3400               	retlw	0
   379                           psect	strings
   380                           	
   381  08AF                     STR_3:	
   382  08AF  3453               	retlw	83	;'S'
   383  08B0  3465               	retlw	101	;'e'
   384  08B1  346E               	retlw	110	;'n'
   385  08B2  3473               	retlw	115	;'s'
   386  08B3  346F               	retlw	111	;'o'
   387  08B4  3472               	retlw	114	;'r'
   388  08B5  343A               	retlw	58	;':'
   389  08B6  3400               	retlw	0
   390                           psect	strings
   391                           	
   392  08B7                     STR_25:	
   393  08B7  3450               	retlw	80	;'P'
   394  08B8  3472               	retlw	114	;'r'
   395  08B9  3465               	retlw	101	;'e'
   396  08BA  342E               	retlw	46	;'.'
   397  08BB  343A               	retlw	58	;':'
   398  08BC  3400               	retlw	0
   399                           psect	strings
   400                           	
   401  08BD                     STR_22:	
   402  08BD  3454               	retlw	84	;'T'
   403  08BE  3465               	retlw	101	;'e'
   404  08BF  346D               	retlw	109	;'m'
   405  08C0  342E               	retlw	46	;'.'
   406  08C1  343A               	retlw	58	;':'
   407  08C2  3400               	retlw	0
   408                           psect	strings
   409                           	
   410  08C3                     STR_21:	
   411  08C3  3443               	retlw	67	;'C'
   412  08C4  3461               	retlw	97	;'a'
   413  08C5  3470               	retlw	112	;'p'
   414  08C6  342E               	retlw	46	;'.'
   415  08C7  343A               	retlw	58	;':'
   416  08C8  3400               	retlw	0
   417                           psect	strings
   418                           	
   419  08C9                     STR_24:	
   420  08C9  3470               	retlw	112	;'p'
   421  08CA  3446               	retlw	70	;'F'
   422  08CB  3420               	retlw	32	;' '
   423  08CC  3420               	retlw	32	;' '
   424  08CD  3400               	retlw	0
   425                           psect	strings
   426                           	
   427  08CE                     STR_2:	
   428  08CE  3450               	retlw	80	;'P'
   429  08CF  3452               	retlw	82	;'R'
   430  08D0  3432               	retlw	50	;'2'
   431  08D1  3432               	retlw	50	;'2'
   432  08D2  3400               	retlw	0
   433                           psect	strings
   434                           	
   435  08D3                     STR_17:	
   436  08D3  3444               	retlw	68	;'D'
   437  08D4  346F               	retlw	111	;'o'
   438  08D5  346E               	retlw	110	;'n'
   439  08D6  3465               	retlw	101	;'e'
   440  08D7  3400               	retlw	0
   441                           psect	strings
   442                           	
   443  08D8                     STR_14:	
   444  08D8  3445               	retlw	69	;'E'
   445  08D9  3478               	retlw	120	;'x'
   446  08DA  3469               	retlw	105	;'i'
   447  08DB  3474               	retlw	116	;'t'
   448  08DC  3400               	retlw	0
   449                           psect	strings
   450                           	
   451  08DD                     STR_27:	
   452  08DD  346B               	retlw	107	;'k'
   453  08DE  3450               	retlw	80	;'P'
   454  08DF  3461               	retlw	97	;'a'
   455  08E0  3400               	retlw	0
   456                           psect	strings
   457                           	
   458  08E1                     STR_4:	
   459  08E1  344F               	retlw	79	;'O'
   460  08E2  344B               	retlw	75	;'K'
   461  08E3  3400               	retlw	0
   462                           psect	strings
   463  08D8                     STR_16	equ	STR_14+0
   464  08D3                     STR_18	equ	STR_17+0
   465  08E1                     STR_8	equ	STR_4+0
   466  08BD                     STR_26	equ	STR_22+0
   467                           	file	"C:\Users\HATAKE~1\AppData\Local\Temp\s1gjc."
   468                           	line	#
   469                           psect cinit,class=CODE,delta=2
   470                           global start_initialization
   471  0989                     start_initialization:
   472                           
   473                           psect	bssBANK0,class=BANK0,space=1
   474                           global __pbssBANK0
   475  0037                     __pbssBANK0:
   476  0037                     _i2c_master_data:
   477  0037                            ds      7
   478                           
   479  003E                     _i2c_master_rcvb:
   480  003E                            ds      7
   481                           
   482  0045                     _mode:
   483  0045                            ds      1
   484                           
   485  0046                     _spi_baro_rcvb:
   486  0046                            ds      2
   487                           
   488                           psect clrtext,class=CODE,delta=2
   489                           global clear_ram
   490                           ;	Called with FSR containing the base address, and
   491                           ;	W with the last address+1
   492  0981                     clear_ram:
   493  0981  0064               	clrwdt			;clear the watchdog before getting into this loop
   494  0982                     clrloop:
   495  0982  0180               	clrf	indf		;clear RAM location pointed to by FSR
   496  0983  0A84               	incf	fsr,f		;increment pointer
   497  0984  0604               	xorwf	fsr,w		;XOR with final address
   498  0985  1903               	btfsc	status,2	;have we reached the end yet?
   499  0986  3400               	retlw	0		;all done for this memory range, return
   500  0987  0604               	xorwf	fsr,w		;XOR again to restore value
   501  0988  2982               	goto	clrloop		;do the next byte
   502                           
   503                           ; Clear objects allocated to BANK0
   504                           psect cinit,class=CODE,delta=2,merge=1
   505  0989  1383               	bcf	status, 7	;select IRP bank0
   506  098A  3037               	movlw	low(__pbssBANK0)
   507  098B  0084               	movwf	fsr
   508  098C  3048               	movlw	low((__pbssBANK0)+011h)
   509  098D  120A  158A  2181   	fcall	clear_ram
              120A  158A         
   510                           psect cinit,class=CODE,delta=2,merge=1
   511                           global end_of_initialization
   512                           
   513                           ;End of C runtime variable initialization code
   514                           
   515  0992                     end_of_initialization:
   516  0992  0183               clrf status
   517  0993  120A  118A  2892   ljmp _main	;jump to C main() function
   518                           psect	cstackCOMMON,class=COMMON,space=1
   519                           global __pcstackCOMMON
   520  0070                     __pcstackCOMMON:
   521                           	global	?_send_config
   522  0070                     ?_send_config:	; 0 bytes @ 0x0
   523                           	global	?_lcd_clr
   524  0070                     ?_lcd_clr:	; 0 bytes @ 0x0
   525                           	global	?_lcd_goto
   526  0070                     ?_lcd_goto:	; 0 bytes @ 0x0
   527                           	global	?_send_string
   528  0070                     ?_send_string:	; 0 bytes @ 0x0
   529                           	global	?_delay
   530  0070                     ?_delay:	; 0 bytes @ 0x0
   531                           	global	?_mode1
   532  0070                     ?_mode1:	; 0 bytes @ 0x0
   533                           	global	?_mode2
   534  0070                     ?_mode2:	; 0 bytes @ 0x0
   535                           	global	?_mode3
   536  0070                     ?_mode3:	; 0 bytes @ 0x0
   537                           	global	?_i2c_start
   538  0070                     ?_i2c_start:	; 0 bytes @ 0x0
   539                           	global	?_send_char
   540  0070                     ?_send_char:	; 0 bytes @ 0x0
   541                           	global	?_main
   542  0070                     ?_main:	; 0 bytes @ 0x0
   543                           	global	?_spi_start
   544  0070                     ?_spi_start:	; 1 bytes @ 0x0
   545                           	global	?___lwmod
   546  0070                     ?___lwmod:	; 2 bytes @ 0x0
   547                           	global	?___awmod
   548  0070                     ?___awmod:	; 2 bytes @ 0x0
   549                           	global	?___llmod
   550  0070                     ?___llmod:	; 4 bytes @ 0x0
   551                           	global	?___lldiv
   552  0070                     ?___lldiv:	; 4 bytes @ 0x0
   553                           	global	i2c_start@size
   554  0070                     i2c_start@size:	; 1 bytes @ 0x0
   555                           	global	___lwmod@divisor
   556  0070                     ___lwmod@divisor:	; 2 bytes @ 0x0
   557                           	global	___awmod@divisor
   558  0070                     ___awmod@divisor:	; 2 bytes @ 0x0
   559                           	global	delay@data
   560  0070                     delay@data:	; 4 bytes @ 0x0
   561                           	global	___llmod@divisor
   562  0070                     ___llmod@divisor:	; 4 bytes @ 0x0
   563                           	global	___lldiv@divisor
   564  0070                     ___lldiv@divisor:	; 4 bytes @ 0x0
   565  0070                     	ds	1
   566                           	global	i2c_start@operation
   567  0071                     i2c_start@operation:	; 2 bytes @ 0x1
   568  0071                     	ds	1
   569                           	global	___lwmod@dividend
   570  0072                     ___lwmod@dividend:	; 2 bytes @ 0x2
   571                           	global	___awmod@dividend
   572  0072                     ___awmod@dividend:	; 2 bytes @ 0x2
   573  0072                     	ds	1
   574                           	global	??_i2c_start
   575  0073                     ??_i2c_start:	; 0 bytes @ 0x3
   576  0073                     	ds	1
   577                           	global	??_delay
   578  0074                     ??_delay:	; 0 bytes @ 0x4
   579                           	global	??___lwmod
   580  0074                     ??___lwmod:	; 0 bytes @ 0x4
   581                           	global	??___awmod
   582  0074                     ??___awmod:	; 0 bytes @ 0x4
   583                           	global	___llmod@dividend
   584  0074                     ___llmod@dividend:	; 4 bytes @ 0x4
   585                           	global	___lldiv@dividend
   586  0074                     ___lldiv@dividend:	; 4 bytes @ 0x4
   587  0074                     	ds	1
   588                           	global	i2c_start@address
   589  0075                     i2c_start@address:	; 1 bytes @ 0x5
   590                           	global	___lwmod@counter
   591  0075                     ___lwmod@counter:	; 1 bytes @ 0x5
   592                           	global	___awmod@counter
   593  0075                     ___awmod@counter:	; 1 bytes @ 0x5
   594  0075                     	ds	1
   595                           	global	?___lwdiv
   596  0076                     ?___lwdiv:	; 2 bytes @ 0x6
   597                           	global	i2c_start@i
   598  0076                     i2c_start@i:	; 1 bytes @ 0x6
   599                           	global	___awmod@sign
   600  0076                     ___awmod@sign:	; 1 bytes @ 0x6
   601                           	global	___lwdiv@divisor
   602  0076                     ___lwdiv@divisor:	; 2 bytes @ 0x6
   603  0076                     	ds	1
   604                           	global	?___awdiv
   605  0077                     ?___awdiv:	; 2 bytes @ 0x7
   606                           	global	___awdiv@divisor
   607  0077                     ___awdiv@divisor:	; 2 bytes @ 0x7
   608  0077                     	ds	1
   609                           	global	??_send_config
   610  0078                     ??_send_config:	; 0 bytes @ 0x8
   611                           	global	??_send_char
   612  0078                     ??_send_char:	; 0 bytes @ 0x8
   613                           	global	??_spi_start
   614  0078                     ??_spi_start:	; 0 bytes @ 0x8
   615                           	global	??___llmod
   616  0078                     ??___llmod:	; 0 bytes @ 0x8
   617                           	global	??___lldiv
   618  0078                     ??___lldiv:	; 0 bytes @ 0x8
   619                           	global	send_config@data
   620  0078                     send_config@data:	; 1 bytes @ 0x8
   621                           	global	send_char@data
   622  0078                     send_char@data:	; 1 bytes @ 0x8
   623                           	global	___lwdiv@dividend
   624  0078                     ___lwdiv@dividend:	; 2 bytes @ 0x8
   625  0078                     	ds	1
   626                           	global	??_lcd_clr
   627  0079                     ??_lcd_clr:	; 0 bytes @ 0x9
   628                           	global	??_lcd_goto
   629  0079                     ??_lcd_goto:	; 0 bytes @ 0x9
   630                           	global	??_send_string
   631  0079                     ??_send_string:	; 0 bytes @ 0x9
   632                           	global	spi_start@data
   633  0079                     spi_start@data:	; 1 bytes @ 0x9
   634                           	global	___llmod@counter
   635  0079                     ___llmod@counter:	; 1 bytes @ 0x9
   636                           	global	___awdiv@dividend
   637  0079                     ___awdiv@dividend:	; 2 bytes @ 0x9
   638                           	global	___lldiv@quotient
   639  0079                     ___lldiv@quotient:	; 4 bytes @ 0x9
   640  0079                     	ds	1
   641                           	global	??___lwdiv
   642  007A                     ??___lwdiv:	; 0 bytes @ 0xA
   643                           	global	lcd_goto@data
   644  007A                     lcd_goto@data:	; 1 bytes @ 0xA
   645                           	global	send_string@s
   646  007A                     send_string@s:	; 1 bytes @ 0xA
   647                           	global	spi_start@rcvb
   648  007A                     spi_start@rcvb:	; 1 bytes @ 0xA
   649  007A                     	ds	1
   650                           	global	??___awdiv
   651  007B                     ??___awdiv:	; 0 bytes @ 0xB
   652                           	global	spi_start@i
   653  007B                     spi_start@i:	; 1 bytes @ 0xB
   654                           	global	___lwdiv@quotient
   655  007B                     ___lwdiv@quotient:	; 2 bytes @ 0xB
   656  007B                     	ds	1
   657                           	global	??_spi_baro
   658  007C                     ??_spi_baro:	; 0 bytes @ 0xC
   659  007C                     	ds	1
   660                           	global	___lwdiv@counter
   661  007D                     ___lwdiv@counter:	; 1 bytes @ 0xD
   662                           	global	___lldiv@counter
   663  007D                     ___lldiv@counter:	; 1 bytes @ 0xD
   664  007D                     	ds	1
   665                           psect	cstackBANK0,class=BANK0,space=1
   666                           global __pcstackBANK0
   667  0020                     __pcstackBANK0:
   668                           	global	??_mode1
   669  0020                     ??_mode1:	; 0 bytes @ 0x0
   670                           	global	?_spi_baro
   671  0020                     ?_spi_baro:	; 0 bytes @ 0x0
   672                           	global	spi_baro@data
   673  0020                     spi_baro@data:	; 1 bytes @ 0x0
   674                           	global	___awdiv@counter
   675  0020                     ___awdiv@counter:	; 1 bytes @ 0x0
   676  0020                     	ds	1
   677                           	global	___awdiv@sign
   678  0021                     ___awdiv@sign:	; 1 bytes @ 0x1
   679                           	global	spi_baro@operation
   680  0021                     spi_baro@operation:	; 2 bytes @ 0x1
   681  0021                     	ds	1
   682                           	global	mode1@result
   683  0022                     mode1@result:	; 2 bytes @ 0x2
   684                           	global	___awdiv@quotient
   685  0022                     ___awdiv@quotient:	; 2 bytes @ 0x2
   686  0022                     	ds	1
   687                           	global	spi_baro@register_address
   688  0023                     spi_baro@register_address:	; 1 bytes @ 0x3
   689  0023                     	ds	1
   690                           	global	??_mode2
   691  0024                     ??_mode2:	; 0 bytes @ 0x4
   692                           	global	??_mode3
   693  0024                     ??_mode3:	; 0 bytes @ 0x4
   694                           	global	mode1@submode
   695  0024                     mode1@submode:	; 1 bytes @ 0x4
   696  0024                     	ds	4
   697                           	global	mode3@temperature_raw
   698  0028                     mode3@temperature_raw:	; 2 bytes @ 0x8
   699  0028                     	ds	1
   700                           	global	mode2@capacitance_raw
   701  0029                     mode2@capacitance_raw:	; 4 bytes @ 0x9
   702  0029                     	ds	1
   703                           	global	mode3@pressure_raw
   704  002A                     mode3@pressure_raw:	; 4 bytes @ 0xA
   705  002A                     	ds	3
   706                           	global	mode2@temperature_raw
   707  002D                     mode2@temperature_raw:	; 4 bytes @ 0xD
   708  002D                     	ds	1
   709                           	global	mode3@pressure
   710  002E                     mode3@pressure:	; 4 bytes @ 0xE
   711  002E                     	ds	3
   712                           	global	mode2@temperature
   713  0031                     mode2@temperature:	; 1 bytes @ 0x11
   714  0031                     	ds	1
   715                           	global	mode2@i
   716  0032                     mode2@i:	; 1 bytes @ 0x12
   717                           	global	mode3@temp
   718  0032                     mode3@temp:	; 2 bytes @ 0x12
   719  0032                     	ds	1
   720                           	global	mode2@capacitance
   721  0033                     mode2@capacitance:	; 2 bytes @ 0x13
   722  0033                     	ds	1
   723                           	global	mode3@temperature
   724  0034                     mode3@temperature:	; 2 bytes @ 0x14
   725  0034                     	ds	2
   726                           	global	??_main
   727  0036                     ??_main:	; 0 bytes @ 0x16
   728  0036                     	ds	1
   729                           ;!
   730                           ;!Data Sizes:
   731                           ;!    Strings     222
   732                           ;!    Constant    0
   733                           ;!    Data        0
   734                           ;!    BSS         17
   735                           ;!    Persistent  0
   736                           ;!    Stack       0
   737                           ;!
   738                           ;!Auto Spaces:
   739                           ;!    Space          Size  Autos    Used
   740                           ;!    COMMON           14     14      14
   741                           ;!    BANK0            80     23      40
   742                           ;!    BANK1            80      0       0
   743                           ;!    BANK3            96      0       0
   744                           ;!    BANK2            96      0       0
   745                           
   746                           ;!
   747                           ;!Pointer List with Targets:
   748                           ;!
   749                           ;!    ?___llmod	unsigned long  size(1) Largest target is 2
   750                           ;!		 -> spi_baro_rcvb(BANK0[2]), 
   751                           ;!
   752                           ;!    ?___lldiv	unsigned long  size(1) Largest target is 0
   753                           ;!
   754                           ;!    ?___awdiv	int  size(1) Largest target is 0
   755                           ;!
   756                           ;!    ?___awmod	int  size(1) Largest target is 0
   757                           ;!
   758                           ;!    ?___lwdiv	unsigned int  size(1) Largest target is 0
   759                           ;!
   760                           ;!    ?___lwmod	unsigned int  size(1) Largest target is 2
   761                           ;!		 -> spi_baro_rcvb(BANK0[2]), 
   762                           ;!
   763                           ;!    send_string@s	PTR const unsigned char  size(1) Largest target is 17
   764                           ;!		 -> STR_27(CODE[4]), STR_26(CODE[6]), STR_25(CODE[6]), STR_24(CODE[5]), 
   765                           ;!		 -> STR_23(CODE[10]), STR_22(CODE[6]), STR_21(CODE[6]), STR_20(CODE[17]), 
   766                           ;!		 -> STR_19(CODE[17]), STR_18(CODE[5]), STR_17(CODE[5]), STR_16(CODE[5]), 
   767                           ;!		 -> STR_15(CODE[15]), STR_14(CODE[5]), STR_13(CODE[9]), STR_12(CODE[16]), 
   768                           ;!		 -> STR_11(CODE[16]), STR_10(CODE[16]), STR_9(CODE[16]), STR_8(CODE[3]), 
   769                           ;!		 -> STR_7(CODE[8]), STR_6(CODE[8]), STR_5(CODE[8]), STR_4(CODE[3]), 
   770                           ;!		 -> STR_3(CODE[8]), STR_2(CODE[5]), STR_1(CODE[13]), 
   771                           ;!
   772                           
   773                           
   774                           ;!
   775                           ;!Critical Paths under _main in COMMON
   776                           ;!
   777                           ;!    _mode1->___lwdiv
   778                           ;!    _mode2->___lwdiv
   779                           ;!    _mode3->_spi_baro
   780                           ;!    _mode3->___lldiv
   781                           ;!    _mode3->___lwdiv
   782                           ;!    _lcd_clr->_send_config
   783                           ;!    _lcd_goto->_send_config
   784                           ;!    _send_config->_delay
   785                           ;!    _send_string->_send_char
   786                           ;!    _send_char->_delay
   787                           ;!    _spi_baro->_spi_start
   788                           ;!    _spi_start->_delay
   789                           ;!    ___lwdiv->___lwmod
   790                           ;!    ___awdiv->___awmod
   791                           ;!
   792                           ;!Critical Paths under _main in BANK0
   793                           ;!
   794                           ;!    _main->_mode3
   795                           ;!    _mode2->___awdiv
   796                           ;!    _mode3->_spi_baro
   797                           ;!
   798                           ;!Critical Paths under _main in BANK1
   799                           ;!
   800                           ;!    None.
   801                           ;!
   802                           ;!Critical Paths under _main in BANK3
   803                           ;!
   804                           ;!    None.
   805                           ;!
   806                           ;!Critical Paths under _main in BANK2
   807                           ;!
   808                           ;!    None.
   809                           
   810 ;;
   811 ;;Main: autosize = 0, tempsize = 1, incstack = 0, save=0
   812 ;;
   813                           
   814                           ;!
   815                           ;!Call Graph Tables:
   816                           ;!
   817                           ;! ---------------------------------------------------------------------------------
   818                           ;! (Depth) Function   	        Calls       Base Space   Used Autos Params    Refs
   819                           ;! ---------------------------------------------------------------------------------
   820                           ;! (0) _main                                                 1     1      0    5606
   821                           ;!                                             22 BANK0      1     1      0
   822                           ;!                        _send_config
   823                           ;!                            _lcd_clr
   824                           ;!                           _lcd_goto
   825                           ;!                        _send_string
   826                           ;!                              _delay
   827                           ;!                              _mode1
   828                           ;!                              _mode2
   829                           ;!                              _mode3
   830                           ;! ---------------------------------------------------------------------------------
   831                           ;! (1) _mode1                                                5     5      0    1283
   832                           ;!                                              0 BANK0      5     5      0
   833                           ;!                            _lcd_clr
   834                           ;!                           _lcd_goto
   835                           ;!                        _send_string
   836                           ;!                              _delay
   837                           ;!                          _i2c_start
   838                           ;!                            ___lwmod
   839                           ;!                            ___lwdiv
   840                           ;!                          _send_char
   841                           ;! ---------------------------------------------------------------------------------
   842                           ;! (1) _mode2                                               17    17      0    1999
   843                           ;!                                              4 BANK0     17    17      0
   844                           ;!                           _lcd_goto
   845                           ;!                        _send_string
   846                           ;!                          _i2c_start
   847                           ;!                            _lcd_clr
   848                           ;!                              _delay
   849                           ;!                            ___lwdiv
   850                           ;!                          _send_char
   851                           ;!                            ___lwmod
   852                           ;!                            ___awmod
   853                           ;!                            ___awdiv
   854                           ;! ---------------------------------------------------------------------------------
   855                           ;! (1) _mode3                                               18    18      0    1810
   856                           ;!                                              4 BANK0     18    18      0
   857                           ;!                           _spi_baro
   858                           ;!                            _lcd_clr
   859                           ;!                           _lcd_goto
   860                           ;!                        _send_string
   861                           ;!                            ___lldiv
   862                           ;!                            ___lwmod
   863                           ;!                            ___lwdiv
   864                           ;!                          _send_char
   865                           ;!                            ___llmod
   866                           ;!                              _delay
   867                           ;! ---------------------------------------------------------------------------------
   868                           ;! (2) _lcd_clr                                              0     0      0     112
   869                           ;!                        _send_config
   870                           ;!                              _delay
   871                           ;! ---------------------------------------------------------------------------------
   872                           ;! (2) _lcd_goto                                             2     2      0     156
   873                           ;!                                              9 COMMON     2     2      0
   874                           ;!                        _send_config
   875                           ;! ---------------------------------------------------------------------------------
   876                           ;! (3) _send_config                                          1     1      0      67
   877                           ;!                                              8 COMMON     1     1      0
   878                           ;!                              _delay
   879                           ;! ---------------------------------------------------------------------------------
   880                           ;! (2) _send_string                                          2     2      0     134
   881                           ;!                                              9 COMMON     2     2      0
   882                           ;!                          _send_char
   883                           ;! ---------------------------------------------------------------------------------
   884                           ;! (2) _i2c_start                                            7     4      3     268
   885                           ;!                                              0 COMMON     7     4      3
   886                           ;! ---------------------------------------------------------------------------------
   887                           ;! (2) _send_char                                            1     1      0      67
   888                           ;!                                              8 COMMON     1     1      0
   889                           ;!                              _delay
   890                           ;! ---------------------------------------------------------------------------------
   891                           ;! (2) _spi_baro                                             6     3      3     293
   892                           ;!                                             12 COMMON     2     2      0
   893                           ;!                                              0 BANK0      4     1      3
   894                           ;!                          _spi_start
   895                           ;! ---------------------------------------------------------------------------------
   896                           ;! (3) _spi_start                                            4     4      0     161
   897                           ;!                                              8 COMMON     4     4      0
   898                           ;!                              _delay
   899                           ;! ---------------------------------------------------------------------------------
   900                           ;! (2) _delay                                                8     4      4      45
   901                           ;!                                              0 COMMON     8     4      4
   902                           ;! ---------------------------------------------------------------------------------
   903                           ;! (2) ___lwdiv                                              8     4      4     162
   904                           ;!                                              6 COMMON     8     4      4
   905                           ;!                            ___lwmod (ARG)
   906                           ;! ---------------------------------------------------------------------------------
   907                           ;! (2) ___lwmod                                              6     2      4     159
   908                           ;!                                              0 COMMON     6     2      4
   909                           ;! ---------------------------------------------------------------------------------
   910                           ;! (2) ___awdiv                                              9     5      4     300
   911                           ;!                                              7 COMMON     5     1      4
   912                           ;!                                              0 BANK0      4     4      0
   913                           ;!                            ___awmod (ARG)
   914                           ;! ---------------------------------------------------------------------------------
   915                           ;! (2) ___llmod                                             10     2      8     159
   916                           ;!                                              0 COMMON    10     2      8
   917                           ;! ---------------------------------------------------------------------------------
   918                           ;! (2) ___lldiv                                             14     6      8     162
   919                           ;!                                              0 COMMON    14     6      8
   920                           ;! ---------------------------------------------------------------------------------
   921                           ;! (2) ___awmod                                              7     3      4     296
   922                           ;!                                              0 COMMON     7     3      4
   923                           ;! ---------------------------------------------------------------------------------
   924                           ;! Estimated maximum stack depth 3
   925                           ;! ---------------------------------------------------------------------------------
   926                           ;!
   927                           ;! Call Graph Graphs:
   928                           ;!
   929                           ;! _main (ROOT)
   930                           ;!   _send_config
   931                           ;!     _delay
   932                           ;!   _lcd_clr
   933                           ;!     _send_config
   934                           ;!       _delay
   935                           ;!     _delay
   936                           ;!   _lcd_goto
   937                           ;!     _send_config
   938                           ;!       _delay
   939                           ;!   _send_string
   940                           ;!     _send_char
   941                           ;!       _delay
   942                           ;!   _delay
   943                           ;!   _mode1
   944                           ;!     _lcd_clr
   945                           ;!       _send_config
   946                           ;!         _delay
   947                           ;!       _delay
   948                           ;!     _lcd_goto
   949                           ;!       _send_config
   950                           ;!         _delay
   951                           ;!     _send_string
   952                           ;!       _send_char
   953                           ;!         _delay
   954                           ;!     _delay
   955                           ;!     _i2c_start
   956                           ;!     ___lwmod
   957                           ;!     ___lwdiv
   958                           ;!       ___lwmod (ARG)
   959                           ;!     _send_char
   960                           ;!       _delay
   961                           ;!   _mode2
   962                           ;!     _lcd_goto
   963                           ;!       _send_config
   964                           ;!         _delay
   965                           ;!     _send_string
   966                           ;!       _send_char
   967                           ;!         _delay
   968                           ;!     _i2c_start
   969                           ;!     _lcd_clr
   970                           ;!       _send_config
   971                           ;!         _delay
   972                           ;!       _delay
   973                           ;!     _delay
   974                           ;!     ___lwdiv
   975                           ;!       ___lwmod (ARG)
   976                           ;!     _send_char
   977                           ;!       _delay
   978                           ;!     ___lwmod
   979                           ;!     ___awmod
   980                           ;!     ___awdiv
   981                           ;!       ___awmod (ARG)
   982                           ;!   _mode3
   983                           ;!     _spi_baro
   984                           ;!       _spi_start
   985                           ;!         _delay
   986                           ;!     _lcd_clr
   987                           ;!       _send_config
   988                           ;!         _delay
   989                           ;!       _delay
   990                           ;!     _lcd_goto
   991                           ;!       _send_config
   992                           ;!         _delay
   993                           ;!     _send_string
   994                           ;!       _send_char
   995                           ;!         _delay
   996                           ;!     ___lldiv
   997                           ;!     ___lwmod
   998                           ;!     ___lwdiv
   999                           ;!       ___lwmod (ARG)
  1000                           ;!     _send_char
  1001                           ;!       _delay
  1002                           ;!     ___llmod
  1003                           ;!     _delay
  1004                           ;!
  1005                           
  1006                           ;! Address spaces:
  1007                           
  1008                           ;!Name               Size   Autos  Total    Cost      Usage
  1009                           ;!BITCOMMON            E      0       0       0        0.0%
  1010                           ;!EEDATA             100      0       0       0        0.0%
  1011                           ;!NULL                 0      0       0       0        0.0%
  1012                           ;!CODE                 0      0       0       0        0.0%
  1013                           ;!COMMON               E      E       E       1      100.0%
  1014                           ;!BITSFR0              0      0       0       1        0.0%
  1015                           ;!SFR0                 0      0       0       1        0.0%
  1016                           ;!BITSFR1              0      0       0       2        0.0%
  1017                           ;!SFR1                 0      0       0       2        0.0%
  1018                           ;!STACK                0      0       4       2        0.0%
  1019                           ;!ABS                  0      0      36       3        0.0%
  1020                           ;!BITBANK0            50      0       0       4        0.0%
  1021                           ;!BITSFR3              0      0       0       4        0.0%
  1022                           ;!SFR3                 0      0       0       4        0.0%
  1023                           ;!BANK0               50     17      28       5       50.0%
  1024                           ;!BITSFR2              0      0       0       5        0.0%
  1025                           ;!SFR2                 0      0       0       5        0.0%
  1026                           ;!BITBANK1            50      0       0       6        0.0%
  1027                           ;!BANK1               50      0       0       7        0.0%
  1028                           ;!BITBANK3            60      0       0       8        0.0%
  1029                           ;!BANK3               60      0       0       9        0.0%
  1030                           ;!BITBANK2            60      0       0      10        0.0%
  1031                           ;!BANK2               60      0       0      11        0.0%
  1032                           ;!DATA                 0      0      3A      12        0.0%
  1033                           
  1034                           	global	_main
  1035                           
  1036 ;; *************** function _main *****************
  1037 ;; Defined at:
  1038 ;;		line 66 in file "PR22.c"
  1039 ;; Parameters:    Size  Location     Type
  1040 ;;		None
  1041 ;; Auto vars:     Size  Location     Type
  1042 ;;		None
  1043 ;; Return value:  Size  Location     Type
  1044 ;;		None               void
  1045 ;; Registers used:
  1046 ;;		wreg, fsr0l, fsr0h, status,2, status,0, btemp+1, pclath, cstack
  1047 ;; Tracked objects:
  1048 ;;		On entry : 17F/0
  1049 ;;		On exit  : 0/0
  1050 ;;		Unchanged: 0/0
  1051 ;; Data sizes:     COMMON   BANK0   BANK1   BANK3   BANK2
  1052 ;;      Params:         0       0       0       0       0
  1053 ;;      Locals:         0       0       0       0       0
  1054 ;;      Temps:          0       1       0       0       0
  1055 ;;      Totals:         0       1       0       0       0
  1056 ;;Total ram usage:        1 bytes
  1057 ;; Hardware stack levels required when called:    4
  1058 ;; This function calls:
  1059 ;;		_send_config
  1060 ;;		_lcd_clr
  1061 ;;		_lcd_goto
  1062 ;;		_send_string
  1063 ;;		_delay
  1064 ;;		_mode1
  1065 ;;		_mode2
  1066 ;;		_mode3
  1067 ;; This function is called by:
  1068 ;;		Startup code after reset
  1069 ;; This function uses a non-reentrant model
  1070 ;;
  1071                           psect	maintext,global,class=CODE,delta=2,split=1
  1072                           global __pmaintext
  1073  0092                     __pmaintext:
  1074                           psect	maintext
  1075                           	file	"PR22.c"
  1076                           	line	66
  1077                           	global	__size_of_main
  1078  0144                     	__size_of_main	equ	__end_of_main-_main
  1079                           	
  1080  0092                     _main:	
  1081                           	opt	stack 4
  1082                           ; Regs used in _main: [wreg-fsr0h+status,2+status,0+btemp+1+pclath+cstack]
  1083                           	line	68
  1084                           	
  1085  0092                     l2641:	
  1086                           ;PR22.c: 68: TRISB = 0b00000000;
  1087  0092  1683               	bsf	status, 5	;RP0=1, select bank1
  1088  0093  1303               	bcf	status, 6	;RP1=0, select bank1
  1089  0094  0186               	clrf	(134)^080h	;volatile
  1090                           	line	69
  1091                           	
  1092  0095                     l2643:	
  1093                           ;PR22.c: 69: TRISC = 0b00111000;
  1094  0095  3038               	movlw	(038h)
  1095  0096  0087               	movwf	(135)^080h	;volatile
  1096                           	line	70
  1097                           	
  1098  0097                     l2645:	
  1099                           ;PR22.c: 70: TRISA = 0b00010111;
  1100  0097  3017               	movlw	(017h)
  1101  0098  0085               	movwf	(133)^080h	;volatile
  1102                           	line	73
  1103                           ;PR22.c: 73: SSPBUF = 0;
  1104  0099  1283               	bcf	status, 5	;RP0=0, select bank0
  1105  009A  1303               	bcf	status, 6	;RP1=0, select bank0
  1106  009B  0193               	clrf	(19)	;volatile
  1107                           	line	74
  1108                           	
  1109  009C                     l2647:	
  1110                           ;PR22.c: 74: SSPSTAT = 0b11000000;
  1111  009C  30C0               	movlw	(0C0h)
  1112  009D  1683               	bsf	status, 5	;RP0=1, select bank1
  1113  009E  1303               	bcf	status, 6	;RP1=0, select bank1
  1114  009F  0094               	movwf	(148)^080h	;volatile
  1115                           	line	75
  1116                           	
  1117  00A0                     l2649:	
  1118                           ;PR22.c: 75: SSPCON = 0b00111000;
  1119  00A0  3038               	movlw	(038h)
  1120  00A1  1283               	bcf	status, 5	;RP0=0, select bank0
  1121  00A2  1303               	bcf	status, 6	;RP1=0, select bank0
  1122  00A3  0094               	movwf	(20)	;volatile
  1123                           	line	76
  1124                           ;PR22.c: 76: SSPCON2 = 0b00000000;
  1125  00A4  1683               	bsf	status, 5	;RP0=1, select bank1
  1126  00A5  1303               	bcf	status, 6	;RP1=0, select bank1
  1127  00A6  0191               	clrf	(145)^080h	;volatile
  1128                           	line	77
  1129                           	
  1130  00A7                     l2651:	
  1131                           ;PR22.c: 77: SSPADD = 0x32;
  1132  00A7  3032               	movlw	(032h)
  1133  00A8  0093               	movwf	(147)^080h	;volatile
  1134                           	line	78
  1135                           	
  1136  00A9                     l2653:	
  1137                           ;PR22.c: 78: SSPIF = 0;
  1138  00A9  1283               	bcf	status, 5	;RP0=0, select bank0
  1139  00AA  1303               	bcf	status, 6	;RP1=0, select bank0
  1140  00AB  118C               	bcf	(99/8),(99)&7	;volatile
  1141                           	line	81
  1142                           	
  1143  00AC                     l2655:	
  1144                           ;PR22.c: 81: RC6 = 1;
  1145  00AC  1707               	bsf	(62/8),(62)&7	;volatile
  1146                           	line	82
  1147                           	
  1148  00AD                     l2657:	
  1149                           ;PR22.c: 82: RC7 = 1;
  1150  00AD  1787               	bsf	(63/8),(63)&7	;volatile
  1151                           	line	83
  1152                           	
  1153  00AE                     l2659:	
  1154                           ;PR22.c: 83: RA3 = 1;
  1155  00AE  1585               	bsf	(43/8),(43)&7	;volatile
  1156                           	line	86
  1157                           	
  1158  00AF                     l2661:	
  1159                           ;PR22.c: 86: ADCON1 = 0b00000110;
  1160  00AF  3006               	movlw	(06h)
  1161  00B0  1683               	bsf	status, 5	;RP0=1, select bank1
  1162  00B1  1303               	bcf	status, 6	;RP1=0, select bank1
  1163  00B2  009F               	movwf	(159)^080h	;volatile
  1164                           	line	89
  1165                           	
  1166  00B3                     l2663:	
  1167                           ;PR22.c: 89: send_config(0b00000001);
  1168  00B3  3001               	movlw	(01h)
  1169  00B4  120A  158A  21EC   	fcall	_send_config
              120A  118A         
  1170                           	line	90
  1171                           	
  1172  00B9                     l2665:	
  1173                           ;PR22.c: 90: send_config(0b00000010);
  1174  00B9  3002               	movlw	(02h)
  1175  00BA  120A  158A  21EC   	fcall	_send_config
              120A  118A         
  1176                           	line	91
  1177                           	
  1178  00BF                     l2667:	
  1179                           ;PR22.c: 91: send_config(0b00000110);
  1180  00BF  3006               	movlw	(06h)
  1181  00C0  120A  158A  21EC   	fcall	_send_config
              120A  118A         
  1182                           	line	92
  1183                           	
  1184  00C5                     l2669:	
  1185                           ;PR22.c: 92: send_config(0b00001100);
  1186  00C5  300C               	movlw	(0Ch)
  1187  00C6  120A  158A  21EC   	fcall	_send_config
              120A  118A         
  1188                           	line	93
  1189                           	
  1190  00CB                     l2671:	
  1191                           ;PR22.c: 93: send_config(0b00111000);
  1192  00CB  3038               	movlw	(038h)
  1193  00CC  120A  158A  21EC   	fcall	_send_config
              120A  118A         
  1194                           	line	96
  1195                           	
  1196  00D1                     l2673:	
  1197                           ;PR22.c: 96: CCP1CON = 0b00001100;
  1198  00D1  300C               	movlw	(0Ch)
  1199  00D2  1283               	bcf	status, 5	;RP0=0, select bank0
  1200  00D3  1303               	bcf	status, 6	;RP1=0, select bank0
  1201  00D4  0097               	movwf	(23)	;volatile
  1202                           	line	97
  1203                           	
  1204  00D5                     l2675:	
  1205                           ;PR22.c: 97: CCP2CON = 0b00001100;
  1206  00D5  300C               	movlw	(0Ch)
  1207  00D6  009D               	movwf	(29)	;volatile
  1208                           	line	98
  1209                           	
  1210  00D7                     l2677:	
  1211                           ;PR22.c: 98: PR2 = 0xFF;
  1212  00D7  30FF               	movlw	(0FFh)
  1213  00D8  1683               	bsf	status, 5	;RP0=1, select bank1
  1214  00D9  1303               	bcf	status, 6	;RP1=0, select bank1
  1215  00DA  0092               	movwf	(146)^080h	;volatile
  1216                           	line	99
  1217                           	
  1218  00DB                     l2679:	
  1219                           ;PR22.c: 99: T2CON = 0b00000101;
  1220  00DB  3005               	movlw	(05h)
  1221  00DC  1283               	bcf	status, 5	;RP0=0, select bank0
  1222  00DD  1303               	bcf	status, 6	;RP1=0, select bank0
  1223  00DE  0092               	movwf	(18)	;volatile
  1224                           	line	100
  1225                           	
  1226  00DF                     l2681:	
  1227                           ;PR22.c: 100: CCPR2L = 50;
  1228  00DF  3032               	movlw	(032h)
  1229  00E0  009B               	movwf	(27)	;volatile
  1230                           	line	101
  1231                           	
  1232  00E1                     l2683:	
  1233                           ;PR22.c: 101: CCPR1L = 0;
  1234  00E1  0195               	clrf	(21)	;volatile
  1235                           	line	104
  1236                           	
  1237  00E2                     l2685:	
  1238                           ;PR22.c: 104: lcd_clr();
  1239  00E2  120A  158A  2196   	fcall	_lcd_clr
              120A  118A         
  1240                           	line	105
  1241                           	
  1242  00E7                     l2687:	
  1243                           ;PR22.c: 105: lcd_goto(0);
  1244  00E7  3000               	movlw	(0)
  1245  00E8  120A  158A  21AA   	fcall	_lcd_goto
              120A  118A         
  1246                           	line	106
  1247                           	
  1248  00ED                     l2689:	
  1249                           ;PR22.c: 106: send_string("Cytron Tech.");
  1250  00ED  3072               	movlw	((STR_1-__stringbase))&0ffh
  1251  00EE  120A  158A  2211   	fcall	_send_string
              120A  118A         
  1252                           	line	107
  1253                           	
  1254  00F3                     l2691:	
  1255                           ;PR22.c: 107: lcd_goto(20);
  1256  00F3  3014               	movlw	(014h)
  1257  00F4  120A  158A  21AA   	fcall	_lcd_goto
              120A  118A         
  1258                           	line	108
  1259                           	
  1260  00F9                     l2693:	
  1261                           ;PR22.c: 108: send_string("PR22");
  1262  00F9  30C9               	movlw	((STR_2-__stringbase))&0ffh
  1263  00FA  120A  158A  2211   	fcall	_send_string
              120A  118A         
  1264                           	line	110
  1265                           	
  1266  00FF                     l2695:	
  1267                           ;PR22.c: 110: delay(200000);
  1268  00FF  3000               	movlw	0
  1269  0100  00F3               	movwf	(?_delay+3)
  1270  0101  3003               	movlw	03h
  1271  0102  00F2               	movwf	(?_delay+2)
  1272  0103  300D               	movlw	0Dh
  1273  0104  00F1               	movwf	(?_delay+1)
  1274  0105  3040               	movlw	040h
  1275  0106  00F0               	movwf	(?_delay)
  1276                           
  1277  0107  120A  158A  2237   	fcall	_delay
              120A  118A         
  1278                           	line	112
  1279                           	
  1280  010C                     l2697:	
  1281                           ;PR22.c: 112: mode = 1;
  1282  010C  1283               	bcf	status, 5	;RP0=0, select bank0
  1283  010D  1303               	bcf	status, 6	;RP1=0, select bank0
  1284  010E  01C5               	clrf	(_mode)
  1285  010F  1403               	bsf	status,0
  1286  0110  0DC5               	rlf	(_mode),f
  1287  0111  2912               	goto	l2699
  1288                           	line	114
  1289                           ;PR22.c: 114: while(1)
  1290                           	
  1291  0112                     l97:	
  1292                           	line	116
  1293                           	
  1294  0112                     l2699:	
  1295                           ;PR22.c: 115: {
  1296                           ;PR22.c: 116: lcd_clr();
  1297  0112  120A  158A  2196   	fcall	_lcd_clr
              120A  118A         
  1298                           	line	117
  1299                           	
  1300  0117                     l2701:	
  1301                           ;PR22.c: 117: lcd_goto(0);
  1302  0117  3000               	movlw	(0)
  1303  0118  120A  158A  21AA   	fcall	_lcd_goto
              120A  118A         
  1304                           	line	118
  1305                           	
  1306  011D                     l2703:	
  1307                           ;PR22.c: 118: send_string("Sensor:");
  1308  011D  30AA               	movlw	((STR_3-__stringbase))&0ffh
  1309  011E  120A  158A  2211   	fcall	_send_string
              120A  118A         
  1310                           	line	119
  1311                           	
  1312  0123                     l2705:	
  1313                           ;PR22.c: 119: lcd_goto(20);
  1314  0123  3014               	movlw	(014h)
  1315  0124  120A  158A  21AA   	fcall	_lcd_goto
              120A  118A         
  1316                           	line	120
  1317                           	
  1318  0129                     l2707:	
  1319                           ;PR22.c: 120: send_string("OK");
  1320  0129  30DC               	movlw	((STR_4-__stringbase))&0ffh
  1321  012A  120A  158A  2211   	fcall	_send_string
              120A  118A         
  1322                           	line	122
  1323                           ;PR22.c: 122: while(RA2)
  1324  012F  2987               	goto	l2731
  1325                           	
  1326  0130                     l99:	
  1327                           	line	124
  1328                           ;PR22.c: 123: {
  1329                           ;PR22.c: 124: if(!RA0)
  1330  0130  1805               	btfsc	(40/8),(40)&7	;volatile
  1331  0131  2933               	goto	u2271
  1332  0132  2934               	goto	u2270
  1333  0133                     u2271:
  1334  0133  293E               	goto	l100
  1335  0134                     u2270:
  1336                           	line	127
  1337                           	
  1338  0134                     l2709:	
  1339                           ;PR22.c: 125: {
  1340                           ;PR22.c: 127: if(mode > 1)
  1341  0134  3002               	movlw	(02h)
  1342  0135  0245               	subwf	(_mode),w
  1343  0136  1C03               	skipc
  1344  0137  2939               	goto	u2281
  1345  0138  293A               	goto	u2280
  1346  0139                     u2281:
  1347  0139  294F               	goto	l2717
  1348  013A                     u2280:
  1349                           	line	128
  1350                           	
  1351  013A                     l2711:	
  1352                           ;PR22.c: 128: mode--;
  1353  013A  3001               	movlw	low(01h)
  1354  013B  02C5               	subwf	(_mode),f
  1355  013C  294F               	goto	l2717
  1356                           	
  1357  013D                     l101:	
  1358                           	line	129
  1359                           ;PR22.c: 129: }
  1360  013D  294F               	goto	l2717
  1361                           	line	130
  1362                           	
  1363  013E                     l100:	
  1364                           ;PR22.c: 130: else if(!RA1)
  1365  013E  1885               	btfsc	(41/8),(41)&7	;volatile
  1366  013F  2941               	goto	u2291
  1367  0140  2942               	goto	u2290
  1368  0141                     u2291:
  1369  0141  294F               	goto	l2717
  1370  0142                     u2290:
  1371                           	line	133
  1372                           	
  1373  0142                     l2713:	
  1374                           ;PR22.c: 131: {
  1375                           ;PR22.c: 133: if(mode < 3)
  1376  0142  3003               	movlw	(03h)
  1377  0143  0245               	subwf	(_mode),w
  1378  0144  1803               	skipnc
  1379  0145  2947               	goto	u2301
  1380  0146  2948               	goto	u2300
  1381  0147                     u2301:
  1382  0147  294F               	goto	l2717
  1383  0148                     u2300:
  1384                           	line	134
  1385                           	
  1386  0148                     l2715:	
  1387                           ;PR22.c: 134: mode++;
  1388  0148  3001               	movlw	(01h)
  1389  0149  00B6               	movwf	(??_main+0)+0
  1390  014A  0836               	movf	(??_main+0)+0,w
  1391  014B  07C5               	addwf	(_mode),f
  1392  014C  294F               	goto	l2717
  1393                           	
  1394  014D                     l104:	
  1395  014D  294F               	goto	l2717
  1396                           	line	135
  1397                           	
  1398  014E                     l103:	
  1399  014E  294F               	goto	l2717
  1400                           	line	138
  1401                           	
  1402  014F                     l102:	
  1403                           	
  1404  014F                     l2717:	
  1405                           ;PR22.c: 135: }
  1406                           ;PR22.c: 138: lcd_goto(8);
  1407  014F  3008               	movlw	(08h)
  1408  0150  120A  158A  21AA   	fcall	_lcd_goto
              120A  118A         
  1409                           	line	139
  1410                           ;PR22.c: 139: switch(mode)
  1411  0155  296C               	goto	l2727
  1412                           	line	141
  1413                           ;PR22.c: 140: {
  1414                           ;PR22.c: 141: case 1 : send_string("HMC6352");
  1415                           	
  1416  0156                     l106:	
  1417                           	
  1418  0156                     l2719:	
  1419  0156  30A2               	movlw	((STR_5-__stringbase))&0ffh
  1420  0157  120A  158A  2211   	fcall	_send_string
              120A  118A         
  1421                           	line	142
  1422                           ;PR22.c: 142: break;
  1423  015C  2979               	goto	l2729
  1424                           	line	144
  1425                           ;PR22.c: 144: case 2 : send_string("AD7746 ");
  1426                           	
  1427  015D                     l108:	
  1428                           	
  1429  015D                     l2721:	
  1430  015D  3092               	movlw	((STR_6-__stringbase))&0ffh
  1431  015E  120A  158A  2211   	fcall	_send_string
              120A  118A         
  1432                           	line	145
  1433                           ;PR22.c: 145: break;
  1434  0163  2979               	goto	l2729
  1435                           	line	147
  1436                           ;PR22.c: 147: case 3 : send_string("SCP1000");
  1437                           	
  1438  0164                     l109:	
  1439                           	
  1440  0164                     l2723:	
  1441  0164  309A               	movlw	((STR_7-__stringbase))&0ffh
  1442  0165  120A  158A  2211   	fcall	_send_string
              120A  118A         
  1443                           	line	148
  1444                           ;PR22.c: 148: break;
  1445  016A  2979               	goto	l2729
  1446                           	line	149
  1447                           	
  1448  016B                     l2725:	
  1449                           ;PR22.c: 149: }
  1450  016B  2979               	goto	l2729
  1451                           	line	139
  1452                           	
  1453  016C                     l105:	
  1454                           	
  1455  016C                     l2727:	
  1456  016C  1283               	bcf	status, 5	;RP0=0, select bank0
  1457  016D  1303               	bcf	status, 6	;RP1=0, select bank0
  1458  016E  0845               	movf	(_mode),w
  1459                           	; Switch size 1, requested type "space"
  1460                           ; Number of cases is 3, Range of values is 1 to 3
  1461                           ; switch strategies available:
  1462                           ; Name         Instructions Cycles
  1463                           ; simple_byte           10     6 (average)
  1464                           ; direct_byte           20    11 (fixed)
  1465                           ; jumptable            263     9 (fixed)
  1466                           ;	Chosen strategy is simple_byte
  1467                           
  1468                           	opt asmopt_off
  1469  016F  3A01               	xorlw	1^0	; case 1
  1470  0170  1903               	skipnz
  1471  0171  2956               	goto	l2719
  1472  0172  3A03               	xorlw	2^1	; case 2
  1473  0173  1903               	skipnz
  1474  0174  295D               	goto	l2721
  1475  0175  3A01               	xorlw	3^2	; case 3
  1476  0176  1903               	skipnz
  1477  0177  2964               	goto	l2723
  1478  0178  2979               	goto	l2729
  1479                           	opt asmopt_on
  1480                           
  1481                           	line	149
  1482                           	
  1483  0179                     l107:	
  1484                           	line	151
  1485                           	
  1486  0179                     l2729:	
  1487                           ;PR22.c: 151: delay(30000);
  1488  0179  3000               	movlw	0
  1489  017A  00F3               	movwf	(?_delay+3)
  1490  017B  3000               	movlw	0
  1491  017C  00F2               	movwf	(?_delay+2)
  1492  017D  3075               	movlw	075h
  1493  017E  00F1               	movwf	(?_delay+1)
  1494  017F  3030               	movlw	030h
  1495  0180  00F0               	movwf	(?_delay)
  1496                           
  1497  0181  120A  158A  2237   	fcall	_delay
              120A  118A         
  1498  0186  2987               	goto	l2731
  1499                           	line	153
  1500                           	
  1501  0187                     l98:	
  1502                           	line	122
  1503                           	
  1504  0187                     l2731:	
  1505  0187  1283               	bcf	status, 5	;RP0=0, select bank0
  1506  0188  1303               	bcf	status, 6	;RP1=0, select bank0
  1507  0189  1905               	btfsc	(42/8),(42)&7	;volatile
  1508  018A  298C               	goto	u2311
  1509  018B  298D               	goto	u2310
  1510  018C                     u2311:
  1511  018C  2930               	goto	l99
  1512  018D                     u2310:
  1513  018D  298E               	goto	l2733
  1514                           	
  1515  018E                     l110:	
  1516                           	line	155
  1517                           	
  1518  018E                     l2733:	
  1519                           ;PR22.c: 153: }
  1520                           ;PR22.c: 155: delay(10000);
  1521  018E  3000               	movlw	0
  1522  018F  00F3               	movwf	(?_delay+3)
  1523  0190  3000               	movlw	0
  1524  0191  00F2               	movwf	(?_delay+2)
  1525  0192  3027               	movlw	027h
  1526  0193  00F1               	movwf	(?_delay+1)
  1527  0194  3010               	movlw	010h
  1528  0195  00F0               	movwf	(?_delay)
  1529                           
  1530  0196  120A  158A  2237   	fcall	_delay
              120A  118A         
  1531                           	line	156
  1532                           ;PR22.c: 156: while(!RA2);
  1533  019B  299C               	goto	l111
  1534                           	
  1535  019C                     l112:	
  1536                           	
  1537  019C                     l111:	
  1538  019C  1283               	bcf	status, 5	;RP0=0, select bank0
  1539  019D  1303               	bcf	status, 6	;RP1=0, select bank0
  1540  019E  1D05               	btfss	(42/8),(42)&7	;volatile
  1541  019F  29A1               	goto	u2321
  1542  01A0  29A2               	goto	u2320
  1543  01A1                     u2321:
  1544  01A1  299C               	goto	l111
  1545  01A2                     u2320:
  1546  01A2  29A3               	goto	l2735
  1547                           	
  1548  01A3                     l113:	
  1549                           	line	157
  1550                           	
  1551  01A3                     l2735:	
  1552                           ;PR22.c: 157: delay(10000);
  1553  01A3  3000               	movlw	0
  1554  01A4  00F3               	movwf	(?_delay+3)
  1555  01A5  3000               	movlw	0
  1556  01A6  00F2               	movwf	(?_delay+2)
  1557  01A7  3027               	movlw	027h
  1558  01A8  00F1               	movwf	(?_delay+1)
  1559  01A9  3010               	movlw	010h
  1560  01AA  00F0               	movwf	(?_delay)
  1561                           
  1562  01AB  120A  158A  2237   	fcall	_delay
              120A  118A         
  1563                           	line	159
  1564                           ;PR22.c: 159: switch(mode)
  1565  01B0  29C4               	goto	l2745
  1566                           	line	161
  1567                           ;PR22.c: 160: {
  1568                           ;PR22.c: 161: case 1 : mode1();
  1569                           	
  1570  01B1                     l115:	
  1571                           	
  1572  01B1                     l2737:	
  1573  01B1  120A  118A  24CF   	fcall	_mode1
              120A  118A         
  1574                           	line	162
  1575                           ;PR22.c: 162: break;
  1576  01B6  2912               	goto	l2699
  1577                           	line	164
  1578                           ;PR22.c: 164: case 2 : mode2();
  1579                           	
  1580  01B7                     l117:	
  1581                           	
  1582  01B7                     l2739:	
  1583  01B7  120A  118A  21D6   	fcall	_mode2
              120A  118A         
  1584                           	line	165
  1585                           ;PR22.c: 165: break;
  1586  01BC  2912               	goto	l2699
  1587                           	line	167
  1588                           ;PR22.c: 167: case 3 : mode3();
  1589                           	
  1590  01BD                     l118:	
  1591                           	
  1592  01BD                     l2741:	
  1593  01BD  120A  158A  2542   	fcall	_mode3
              120A  118A         
  1594                           	line	168
  1595                           ;PR22.c: 168: break;
  1596  01C2  2912               	goto	l2699
  1597                           	line	169
  1598                           	
  1599  01C3                     l2743:	
  1600                           ;PR22.c: 169: }
  1601  01C3  2912               	goto	l2699
  1602                           	line	159
  1603                           	
  1604  01C4                     l114:	
  1605                           	
  1606  01C4                     l2745:	
  1607  01C4  1283               	bcf	status, 5	;RP0=0, select bank0
  1608  01C5  1303               	bcf	status, 6	;RP1=0, select bank0
  1609  01C6  0845               	movf	(_mode),w
  1610                           	; Switch size 1, requested type "space"
  1611                           ; Number of cases is 3, Range of values is 1 to 3
  1612                           ; switch strategies available:
  1613                           ; Name         Instructions Cycles
  1614                           ; simple_byte           10     6 (average)
  1615                           ; direct_byte           20    11 (fixed)
  1616                           ; jumptable            263     9 (fixed)
  1617                           ;	Chosen strategy is simple_byte
  1618                           
  1619                           	opt asmopt_off
  1620  01C7  3A01               	xorlw	1^0	; case 1
  1621  01C8  1903               	skipnz
  1622  01C9  29B1               	goto	l2737
  1623  01CA  3A03               	xorlw	2^1	; case 2
  1624  01CB  1903               	skipnz
  1625  01CC  29B7               	goto	l2739
  1626  01CD  3A01               	xorlw	3^2	; case 3
  1627  01CE  1903               	skipnz
  1628  01CF  29BD               	goto	l2741
  1629  01D0  2912               	goto	l2699
  1630                           	opt asmopt_on
  1631                           
  1632                           	line	169
  1633                           	
  1634  01D1                     l116:	
  1635  01D1  2912               	goto	l2699
  1636                           	line	170
  1637                           	
  1638  01D2                     l119:	
  1639                           	line	114
  1640  01D2  2912               	goto	l2699
  1641                           	
  1642  01D3                     l120:	
  1643                           	line	171
  1644                           	
  1645  01D3                     l121:	
  1646                           	global	start
  1647  01D3  120A  118A  2800   	ljmp	start
  1648                           	opt stack 0
  1649                           GLOBAL	__end_of_main
  1650  01D6                     	__end_of_main:
  1651                           	signat	_main,88
  1652                           	global	_mode1
  1653                           
  1654 ;; *************** function _mode1 *****************
  1655 ;; Defined at:
  1656 ;;		line 176 in file "PR22.c"
  1657 ;; Parameters:    Size  Location     Type
  1658 ;;		None
  1659 ;; Auto vars:     Size  Location     Type
  1660 ;;  result          2    2[BANK0 ] unsigned int 
  1661 ;;  submode         1    4[BANK0 ] unsigned char 
  1662 ;; Return value:  Size  Location     Type
  1663 ;;		None               void
  1664 ;; Registers used:
  1665 ;;		wreg, fsr0l, fsr0h, status,2, status,0, btemp+1, pclath, cstack
  1666 ;; Tracked objects:
  1667 ;;		On entry : 0/0
  1668 ;;		On exit  : 0/0
  1669 ;;		Unchanged: 0/0
  1670 ;; Data sizes:     COMMON   BANK0   BANK1   BANK3   BANK2
  1671 ;;      Params:         0       0       0       0       0
  1672 ;;      Locals:         0       3       0       0       0
  1673 ;;      Temps:          0       2       0       0       0
  1674 ;;      Totals:         0       5       0       0       0
  1675 ;;Total ram usage:        5 bytes
  1676 ;; Hardware stack levels used:    1
  1677 ;; Hardware stack levels required when called:    3
  1678 ;; This function calls:
  1679 ;;		_lcd_clr
  1680 ;;		_lcd_goto
  1681 ;;		_send_string
  1682 ;;		_delay
  1683 ;;		_i2c_start
  1684 ;;		___lwmod
  1685 ;;		___lwdiv
  1686 ;;		_send_char
  1687 ;; This function is called by:
  1688 ;;		_main
  1689 ;; This function uses a non-reentrant model
  1690 ;;
  1691                           psect	text349,local,class=CODE,delta=2,merge=1
  1692                           global __ptext349
  1693  04CF                     __ptext349:
  1694                           psect	text349
  1695                           	file	"PR22.c"
  1696                           	line	176
  1697                           	global	__size_of_mode1
  1698  0331                     	__size_of_mode1	equ	__end_of_mode1-_mode1
  1699                           	
  1700  04CF                     _mode1:	
  1701                           	opt	stack 4
  1702                           ; Regs used in _mode1: [wreg-fsr0h+status,2+status,0+btemp+1+pclath+cstack]
  1703                           	line	178
  1704                           	
  1705  04CF                     l2327:	
  1706                           ;PR22.c: 177: unsigned int result;
  1707                           ;PR22.c: 178: unsigned char submode = 1;
  1708  04CF  1283               	bcf	status, 5	;RP0=0, select bank0
  1709  04D0  1303               	bcf	status, 6	;RP1=0, select bank0
  1710  04D1  01A4               	clrf	(mode1@submode)
  1711  04D2  1403               	bsf	status,0
  1712  04D3  0DA4               	rlf	(mode1@submode),f
  1713                           	line	180
  1714                           	
  1715  04D4                     l2329:	
  1716                           ;PR22.c: 180: lcd_clr();
  1717  04D4  120A  158A  2196   	fcall	_lcd_clr
              120A  118A         
  1718  04D9  2CDA               	goto	l2331
  1719                           	line	181
  1720                           ;PR22.c: 181: while(1)
  1721                           	
  1722  04DA                     l124:	
  1723                           	line	183
  1724                           	
  1725  04DA                     l2331:	
  1726                           ;PR22.c: 182: {
  1727                           ;PR22.c: 183: lcd_goto(20);
  1728  04DA  3014               	movlw	(014h)
  1729  04DB  120A  158A  21AA   	fcall	_lcd_goto
              120A  118A         
  1730                           	line	184
  1731                           	
  1732  04E0                     l2333:	
  1733                           ;PR22.c: 184: send_string("OK");
  1734  04E0  30DC               	movlw	((STR_8-__stringbase))&0ffh
  1735  04E1  120A  158A  2211   	fcall	_send_string
              120A  118A         
  1736                           	line	186
  1737                           	
  1738  04E6                     l2335:	
  1739                           ;PR22.c: 186: if(!RA0)
  1740  04E6  1283               	bcf	status, 5	;RP0=0, select bank0
  1741  04E7  1303               	bcf	status, 6	;RP1=0, select bank0
  1742  04E8  1805               	btfsc	(40/8),(40)&7	;volatile
  1743  04E9  2CEB               	goto	u1891
  1744  04EA  2CEC               	goto	u1890
  1745  04EB                     u1891:
  1746  04EB  2CF6               	goto	l125
  1747  04EC                     u1890:
  1748                           	line	189
  1749                           	
  1750  04EC                     l2337:	
  1751                           ;PR22.c: 187: {
  1752                           ;PR22.c: 189: if(submode > 1)
  1753  04EC  3002               	movlw	(02h)
  1754  04ED  0224               	subwf	(mode1@submode),w
  1755  04EE  1C03               	skipc
  1756  04EF  2CF1               	goto	u1901
  1757  04F0  2CF2               	goto	u1900
  1758  04F1                     u1901:
  1759  04F1  2D07               	goto	l2345
  1760  04F2                     u1900:
  1761                           	line	190
  1762                           	
  1763  04F2                     l2339:	
  1764                           ;PR22.c: 190: submode--;
  1765  04F2  3001               	movlw	low(01h)
  1766  04F3  02A4               	subwf	(mode1@submode),f
  1767  04F4  2D07               	goto	l2345
  1768                           	
  1769  04F5                     l126:	
  1770                           	line	191
  1771                           ;PR22.c: 191: }
  1772  04F5  2D07               	goto	l2345
  1773                           	line	192
  1774                           	
  1775  04F6                     l125:	
  1776                           ;PR22.c: 192: else if(!RA1)
  1777  04F6  1885               	btfsc	(41/8),(41)&7	;volatile
  1778  04F7  2CF9               	goto	u1911
  1779  04F8  2CFA               	goto	u1910
  1780  04F9                     u1911:
  1781  04F9  2D07               	goto	l2345
  1782  04FA                     u1910:
  1783                           	line	195
  1784                           	
  1785  04FA                     l2341:	
  1786                           ;PR22.c: 193: {
  1787                           ;PR22.c: 195: if(submode < 4)
  1788  04FA  3004               	movlw	(04h)
  1789  04FB  0224               	subwf	(mode1@submode),w
  1790  04FC  1803               	skipnc
  1791  04FD  2CFF               	goto	u1921
  1792  04FE  2D00               	goto	u1920
  1793  04FF                     u1921:
  1794  04FF  2D07               	goto	l2345
  1795  0500                     u1920:
  1796                           	line	196
  1797                           	
  1798  0500                     l2343:	
  1799                           ;PR22.c: 196: submode++;
  1800  0500  3001               	movlw	(01h)
  1801  0501  00A0               	movwf	(??_mode1+0)+0
  1802  0502  0820               	movf	(??_mode1+0)+0,w
  1803  0503  07A4               	addwf	(mode1@submode),f
  1804  0504  2D07               	goto	l2345
  1805                           	
  1806  0505                     l129:	
  1807  0505  2D07               	goto	l2345
  1808                           	line	197
  1809                           	
  1810  0506                     l128:	
  1811  0506  2D07               	goto	l2345
  1812                           	line	200
  1813                           	
  1814  0507                     l127:	
  1815                           	
  1816  0507                     l2345:	
  1817                           ;PR22.c: 197: }
  1818                           ;PR22.c: 200: lcd_goto(0);
  1819  0507  3000               	movlw	(0)
  1820  0508  120A  158A  21AA   	fcall	_lcd_goto
              120A  118A         
  1821                           	line	201
  1822                           ;PR22.c: 201: switch(submode)
  1823  050D  2D2B               	goto	l2357
  1824                           	line	203
  1825                           ;PR22.c: 202: {
  1826                           ;PR22.c: 203: case 1 : send_string("Heading Output?");
  1827                           	
  1828  050E                     l131:	
  1829                           	
  1830  050E                     l2347:	
  1831  050E  3053               	movlw	((STR_9-__stringbase))&0ffh
  1832  050F  120A  158A  2211   	fcall	_send_string
              120A  118A         
  1833                           	line	204
  1834                           ;PR22.c: 204: break;
  1835  0514  2D3B               	goto	l132
  1836                           	line	206
  1837                           ;PR22.c: 206: case 2 : send_string("Calibration?   ");
  1838                           	
  1839  0515                     l133:	
  1840                           	
  1841  0515                     l2349:	
  1842  0515  3033               	movlw	((STR_10-__stringbase))&0ffh
  1843  0516  120A  158A  2211   	fcall	_send_string
              120A  118A         
  1844                           	line	207
  1845                           ;PR22.c: 207: break;
  1846  051B  2D3B               	goto	l132
  1847                           	line	209
  1848                           ;PR22.c: 209: case 3 : send_string("Reset Offset?  ");
  1849                           	
  1850  051C                     l134:	
  1851                           	
  1852  051C                     l2351:	
  1853  051C  3043               	movlw	((STR_11-__stringbase))&0ffh
  1854  051D  120A  158A  2211   	fcall	_send_string
              120A  118A         
  1855                           	line	210
  1856                           ;PR22.c: 210: break;
  1857  0522  2D3B               	goto	l132
  1858                           	line	212
  1859                           ;PR22.c: 212: case 4 : send_string("Exit?          ");
  1860                           	
  1861  0523                     l135:	
  1862                           	
  1863  0523                     l2353:	
  1864  0523  3023               	movlw	((STR_12-__stringbase))&0ffh
  1865  0524  120A  158A  2211   	fcall	_send_string
              120A  118A         
  1866                           	line	213
  1867                           ;PR22.c: 213: break;
  1868  0529  2D3B               	goto	l132
  1869                           	line	214
  1870                           	
  1871  052A                     l2355:	
  1872                           ;PR22.c: 214: }
  1873  052A  2D3B               	goto	l132
  1874                           	line	201
  1875                           	
  1876  052B                     l130:	
  1877                           	
  1878  052B                     l2357:	
  1879  052B  1283               	bcf	status, 5	;RP0=0, select bank0
  1880  052C  1303               	bcf	status, 6	;RP1=0, select bank0
  1881  052D  0824               	movf	(mode1@submode),w
  1882                           	; Switch size 1, requested type "space"
  1883                           ; Number of cases is 4, Range of values is 1 to 4
  1884                           ; switch strategies available:
  1885                           ; Name         Instructions Cycles
  1886                           ; simple_byte           13     7 (average)
  1887                           ; direct_byte           23    11 (fixed)
  1888                           ; jumptable            263     9 (fixed)
  1889                           ;	Chosen strategy is simple_byte
  1890                           
  1891                           	opt asmopt_off
  1892  052E  3A01               	xorlw	1^0	; case 1
  1893  052F  1903               	skipnz
  1894  0530  2D0E               	goto	l2347
  1895  0531  3A03               	xorlw	2^1	; case 2
  1896  0532  1903               	skipnz
  1897  0533  2D15               	goto	l2349
  1898  0534  3A01               	xorlw	3^2	; case 3
  1899  0535  1903               	skipnz
  1900  0536  2D1C               	goto	l2351
  1901  0537  3A07               	xorlw	4^3	; case 4
  1902  0538  1903               	skipnz
  1903  0539  2D23               	goto	l2353
  1904  053A  2D3B               	goto	l132
  1905                           	opt asmopt_on
  1906                           
  1907                           	line	214
  1908                           	
  1909  053B                     l132:	
  1910                           	line	216
  1911                           ;PR22.c: 216: if(!RA2)
  1912  053B  1283               	bcf	status, 5	;RP0=0, select bank0
  1913  053C  1303               	bcf	status, 6	;RP1=0, select bank0
  1914  053D  1905               	btfsc	(42/8),(42)&7	;volatile
  1915  053E  2D40               	goto	u1931
  1916  053F  2D41               	goto	u1930
  1917  0540                     u1931:
  1918  0540  2FF0               	goto	l2469
  1919  0541                     u1930:
  1920                           	line	218
  1921                           	
  1922  0541                     l2359:	
  1923                           ;PR22.c: 217: {
  1924                           ;PR22.c: 218: delay(10000);
  1925  0541  3000               	movlw	0
  1926  0542  00F3               	movwf	(?_delay+3)
  1927  0543  3000               	movlw	0
  1928  0544  00F2               	movwf	(?_delay+2)
  1929  0545  3027               	movlw	027h
  1930  0546  00F1               	movwf	(?_delay+1)
  1931  0547  3010               	movlw	010h
  1932  0548  00F0               	movwf	(?_delay)
  1933                           
  1934  0549  120A  158A  2237   	fcall	_delay
              120A  118A         
  1935                           	line	219
  1936                           ;PR22.c: 219: while(!RA2);
  1937  054E  2D4F               	goto	l137
  1938                           	
  1939  054F                     l138:	
  1940                           	
  1941  054F                     l137:	
  1942  054F  1283               	bcf	status, 5	;RP0=0, select bank0
  1943  0550  1303               	bcf	status, 6	;RP1=0, select bank0
  1944  0551  1D05               	btfss	(42/8),(42)&7	;volatile
  1945  0552  2D54               	goto	u1941
  1946  0553  2D55               	goto	u1940
  1947  0554                     u1941:
  1948  0554  2D4F               	goto	l137
  1949  0555                     u1940:
  1950  0555  2D56               	goto	l2361
  1951                           	
  1952  0556                     l139:	
  1953                           	line	220
  1954                           	
  1955  0556                     l2361:	
  1956                           ;PR22.c: 220: delay(10000);
  1957  0556  3000               	movlw	0
  1958  0557  00F3               	movwf	(?_delay+3)
  1959  0558  3000               	movlw	0
  1960  0559  00F2               	movwf	(?_delay+2)
  1961  055A  3027               	movlw	027h
  1962  055B  00F1               	movwf	(?_delay+1)
  1963  055C  3010               	movlw	010h
  1964  055D  00F0               	movwf	(?_delay)
  1965                           
  1966  055E  120A  158A  2237   	fcall	_delay
              120A  118A         
  1967                           	line	222
  1968                           ;PR22.c: 222: lcd_clr();
  1969  0563  120A  158A  2196   	fcall	_lcd_clr
              120A  118A         
  1970                           	line	223
  1971                           ;PR22.c: 223: lcd_goto(0);
  1972  0568  3000               	movlw	(0)
  1973  0569  120A  158A  21AA   	fcall	_lcd_goto
              120A  118A         
  1974                           	line	225
  1975                           ;PR22.c: 225: switch(submode)
  1976  056E  2FDF               	goto	l2467
  1977                           	line	227
  1978                           ;PR22.c: 226: {
  1979                           ;PR22.c: 227: case 1 :
  1980                           	
  1981  056F                     l141:	
  1982                           	line	229
  1983                           	
  1984  056F                     l2363:	
  1985                           ;PR22.c: 229: send_string("Heading:");
  1986  056F  3089               	movlw	((STR_13-__stringbase))&0ffh
  1987  0570  120A  158A  2211   	fcall	_send_string
              120A  118A         
  1988                           	line	230
  1989                           	
  1990  0575                     l2365:	
  1991                           ;PR22.c: 230: lcd_goto(20);
  1992  0575  3014               	movlw	(014h)
  1993  0576  120A  158A  21AA   	fcall	_lcd_goto
              120A  118A         
  1994                           	line	231
  1995                           	
  1996  057B                     l2367:	
  1997                           ;PR22.c: 231: send_string("Exit");
  1998  057B  30D3               	movlw	((STR_14-__stringbase))&0ffh
  1999  057C  120A  158A  2211   	fcall	_send_string
              120A  118A         
  2000                           	line	234
  2001                           	
  2002  0581                     l2369:	
  2003                           ;PR22.c: 234: i2c_master_data[0] = 'O';
  2004  0581  304F               	movlw	(04Fh)
  2005  0582  1283               	bcf	status, 5	;RP0=0, select bank0
  2006  0583  1303               	bcf	status, 6	;RP1=0, select bank0
  2007  0584  00A0               	movwf	(??_mode1+0)+0
  2008  0585  0820               	movf	(??_mode1+0)+0,w
  2009  0586  00B7               	movwf	(_i2c_master_data)
  2010                           	line	235
  2011                           	
  2012  0587                     l2371:	
  2013                           ;PR22.c: 235: i2c_start(0x42, 1, 0);
  2014  0587  01F0               	clrf	(?_i2c_start)
  2015  0588  1403               	bsf	status,0
  2016  0589  0DF0               	rlf	(?_i2c_start),f
  2017  058A  3000               	movlw	low(0)
  2018  058B  00F1               	movwf	0+(?_i2c_start)+01h
  2019  058C  3000               	movlw	high(0)
  2020  058D  00F2               	movwf	(0+(?_i2c_start)+01h)+1
  2021  058E  3042               	movlw	(042h)
  2022  058F  120A  118A  2004   	fcall	_i2c_start
              120A  118A         
  2023                           	line	236
  2024                           	
  2025  0594                     l2373:	
  2026                           ;PR22.c: 236: delay(10000);
  2027  0594  3000               	movlw	0
  2028  0595  00F3               	movwf	(?_delay+3)
  2029  0596  3000               	movlw	0
  2030  0597  00F2               	movwf	(?_delay+2)
  2031  0598  3027               	movlw	027h
  2032  0599  00F1               	movwf	(?_delay+1)
  2033  059A  3010               	movlw	010h
  2034  059B  00F0               	movwf	(?_delay)
  2035                           
  2036  059C  120A  158A  2237   	fcall	_delay
              120A  118A         
  2037                           	line	238
  2038                           ;PR22.c: 238: while(RA2)
  2039  05A1  2E87               	goto	l2399
  2040                           	
  2041  05A2                     l143:	
  2042                           	line	241
  2043                           	
  2044  05A2                     l2375:	
  2045                           ;PR22.c: 239: {
  2046                           ;PR22.c: 241: i2c_master_data[0] = 'A';
  2047  05A2  3041               	movlw	(041h)
  2048  05A3  1283               	bcf	status, 5	;RP0=0, select bank0
  2049  05A4  1303               	bcf	status, 6	;RP1=0, select bank0
  2050  05A5  00A0               	movwf	(??_mode1+0)+0
  2051  05A6  0820               	movf	(??_mode1+0)+0,w
  2052  05A7  00B7               	movwf	(_i2c_master_data)
  2053                           	line	242
  2054                           	
  2055  05A8                     l2377:	
  2056                           ;PR22.c: 242: i2c_start(0x42, 1, 0);
  2057  05A8  01F0               	clrf	(?_i2c_start)
  2058  05A9  1403               	bsf	status,0
  2059  05AA  0DF0               	rlf	(?_i2c_start),f
  2060  05AB  3000               	movlw	low(0)
  2061  05AC  00F1               	movwf	0+(?_i2c_start)+01h
  2062  05AD  3000               	movlw	high(0)
  2063  05AE  00F2               	movwf	(0+(?_i2c_start)+01h)+1
  2064  05AF  3042               	movlw	(042h)
  2065  05B0  120A  118A  2004   	fcall	_i2c_start
              120A  118A         
  2066                           	line	243
  2067                           	
  2068  05B5                     l2379:	
  2069                           ;PR22.c: 243: delay(10000);
  2070  05B5  3000               	movlw	0
  2071  05B6  00F3               	movwf	(?_delay+3)
  2072  05B7  3000               	movlw	0
  2073  05B8  00F2               	movwf	(?_delay+2)
  2074  05B9  3027               	movlw	027h
  2075  05BA  00F1               	movwf	(?_delay+1)
  2076  05BB  3010               	movlw	010h
  2077  05BC  00F0               	movwf	(?_delay)
  2078                           
  2079  05BD  120A  158A  2237   	fcall	_delay
              120A  118A         
  2080                           	line	245
  2081                           	
  2082  05C2                     l2381:	
  2083                           ;PR22.c: 245: i2c_start(0x42, 2, 1);
  2084  05C2  3002               	movlw	(02h)
  2085  05C3  1283               	bcf	status, 5	;RP0=0, select bank0
  2086  05C4  1303               	bcf	status, 6	;RP1=0, select bank0
  2087  05C5  00A0               	movwf	(??_mode1+0)+0
  2088  05C6  0820               	movf	(??_mode1+0)+0,w
  2089  05C7  00F0               	movwf	(?_i2c_start)
  2090  05C8  3001               	movlw	low(01h)
  2091  05C9  00F1               	movwf	0+(?_i2c_start)+01h
  2092  05CA  3000               	movlw	high(01h)
  2093  05CB  00F2               	movwf	(0+(?_i2c_start)+01h)+1
  2094  05CC  3042               	movlw	(042h)
  2095  05CD  120A  118A  2004   	fcall	_i2c_start
              120A  118A         
  2096                           	line	247
  2097                           	
  2098  05D2                     l2383:	
  2099                           ;PR22.c: 247: lcd_goto(9);
  2100  05D2  3009               	movlw	(09h)
  2101  05D3  120A  158A  21AA   	fcall	_lcd_goto
              120A  118A         
  2102                           	line	250
  2103                           	
  2104  05D8                     l2385:	
  2105                           ;PR22.c: 250: result = (i2c_master_rcvb[0] << 8) + i2c_master_rcvb[1];
  2106  05D8  1283               	bcf	status, 5	;RP0=0, select bank0
  2107  05D9  1303               	bcf	status, 6	;RP1=0, select bank0
  2108  05DA  083E               	movf	(_i2c_master_rcvb),w
  2109  05DB  00A0               	movwf	(??_mode1+0)+0+0
  2110  05DC  01A1               	clrf	(??_mode1+0)+0+1
  2111  05DD  0820               	movf	(??_mode1+0)+0,w
  2112  05DE  00A1               	movwf	(??_mode1+0)+1
  2113  05DF  01A0               	clrf	(??_mode1+0)+0
  2114  05E0  083F               	movf	0+(_i2c_master_rcvb)+01h,w
  2115  05E1  0720               	addwf	0+(??_mode1+0)+0,w
  2116  05E2  00A2               	movwf	(mode1@result)
  2117  05E3  3000               	movlw	0
  2118  05E4  1803               	skipnc
  2119  05E5  3001               	movlw	1
  2120  05E6  0721               	addwf	1+(??_mode1+0)+0,w
  2121  05E7  00A3               	movwf	1+(mode1@result)
  2122                           	line	253
  2123                           	
  2124  05E8                     l2387:	
  2125                           ;PR22.c: 253: send_char('0' + (result % 10000) / 1000);
  2126  05E8  30E8               	movlw	low(03E8h)
  2127  05E9  00F6               	movwf	(?___lwdiv)
  2128  05EA  3003               	movlw	high(03E8h)
  2129  05EB  00F7               	movwf	((?___lwdiv))+1
  2130  05EC  0823               	movf	(mode1@result+1),w
  2131  05ED  01F3               	clrf	1+(?___lwmod)+02h
  2132  05EE  07F3               	addwf	1+(?___lwmod)+02h
  2133  05EF  0822               	movf	(mode1@result),w
  2134  05F0  01F2               	clrf	0+(?___lwmod)+02h
  2135  05F1  07F2               	addwf	0+(?___lwmod)+02h
  2136                           
  2137  05F2  3010               	movlw	low(02710h)
  2138  05F3  00F0               	movwf	(?___lwmod)
  2139  05F4  3027               	movlw	high(02710h)
  2140  05F5  00F1               	movwf	((?___lwmod))+1
  2141  05F6  120A  158A  2267   	fcall	___lwmod
              120A  118A         
  2142  05FB  0871               	movf	(1+(?___lwmod)),w
  2143  05FC  01F9               	clrf	1+(?___lwdiv)+02h
  2144  05FD  07F9               	addwf	1+(?___lwdiv)+02h
  2145  05FE  0870               	movf	(0+(?___lwmod)),w
  2146  05FF  01F8               	clrf	0+(?___lwdiv)+02h
  2147  0600  07F8               	addwf	0+(?___lwdiv)+02h
  2148                           
  2149  0601  120A  158A  22AB   	fcall	___lwdiv
              120A  118A         
  2150  0606  0876               	movf	(0+(?___lwdiv)),w
  2151  0607  3E30               	addlw	030h
  2152  0608  120A  158A  21C7   	fcall	_send_char
              120A  118A         
  2153                           	line	254
  2154                           	
  2155  060D                     l2389:	
  2156                           ;PR22.c: 254: send_char('0' + (result % 1000) / 100);
  2157  060D  3064               	movlw	low(064h)
  2158  060E  00F6               	movwf	(?___lwdiv)
  2159  060F  3000               	movlw	high(064h)
  2160  0610  00F7               	movwf	((?___lwdiv))+1
  2161  0611  1283               	bcf	status, 5	;RP0=0, select bank0
  2162  0612  1303               	bcf	status, 6	;RP1=0, select bank0
  2163  0613  0823               	movf	(mode1@result+1),w
  2164  0614  01F3               	clrf	1+(?___lwmod)+02h
  2165  0615  07F3               	addwf	1+(?___lwmod)+02h
  2166  0616  0822               	movf	(mode1@result),w
  2167  0617  01F2               	clrf	0+(?___lwmod)+02h
  2168  0618  07F2               	addwf	0+(?___lwmod)+02h
  2169                           
  2170  0619  30E8               	movlw	low(03E8h)
  2171  061A  00F0               	movwf	(?___lwmod)
  2172  061B  3003               	movlw	high(03E8h)
  2173  061C  00F1               	movwf	((?___lwmod))+1
  2174  061D  120A  158A  2267   	fcall	___lwmod
              120A  118A         
  2175  0622  0871               	movf	(1+(?___lwmod)),w
  2176  0623  01F9               	clrf	1+(?___lwdiv)+02h
  2177  0624  07F9               	addwf	1+(?___lwdiv)+02h
  2178  0625  0870               	movf	(0+(?___lwmod)),w
  2179  0626  01F8               	clrf	0+(?___lwdiv)+02h
  2180  0627  07F8               	addwf	0+(?___lwdiv)+02h
  2181                           
  2182  0628  120A  158A  22AB   	fcall	___lwdiv
              120A  118A         
  2183  062D  0876               	movf	(0+(?___lwdiv)),w
  2184  062E  3E30               	addlw	030h
  2185  062F  120A  158A  21C7   	fcall	_send_char
              120A  118A         
  2186                           	line	255
  2187                           	
  2188  0634                     l2391:	
  2189                           ;PR22.c: 255: send_char('0' + (result % 100) / 10);
  2190  0634  300A               	movlw	low(0Ah)
  2191  0635  00F6               	movwf	(?___lwdiv)
  2192  0636  3000               	movlw	high(0Ah)
  2193  0637  00F7               	movwf	((?___lwdiv))+1
  2194  0638  1283               	bcf	status, 5	;RP0=0, select bank0
  2195  0639  1303               	bcf	status, 6	;RP1=0, select bank0
  2196  063A  0823               	movf	(mode1@result+1),w
  2197  063B  01F3               	clrf	1+(?___lwmod)+02h
  2198  063C  07F3               	addwf	1+(?___lwmod)+02h
  2199  063D  0822               	movf	(mode1@result),w
  2200  063E  01F2               	clrf	0+(?___lwmod)+02h
  2201  063F  07F2               	addwf	0+(?___lwmod)+02h
  2202                           
  2203  0640  3064               	movlw	low(064h)
  2204  0641  00F0               	movwf	(?___lwmod)
  2205  0642  3000               	movlw	high(064h)
  2206  0643  00F1               	movwf	((?___lwmod))+1
  2207  0644  120A  158A  2267   	fcall	___lwmod
              120A  118A         
  2208  0649  0871               	movf	(1+(?___lwmod)),w
  2209  064A  01F9               	clrf	1+(?___lwdiv)+02h
  2210  064B  07F9               	addwf	1+(?___lwdiv)+02h
  2211  064C  0870               	movf	(0+(?___lwmod)),w
  2212  064D  01F8               	clrf	0+(?___lwdiv)+02h
  2213  064E  07F8               	addwf	0+(?___lwdiv)+02h
  2214                           
  2215  064F  120A  158A  22AB   	fcall	___lwdiv
              120A  118A         
  2216  0654  0876               	movf	(0+(?___lwdiv)),w
  2217  0655  3E30               	addlw	030h
  2218  0656  120A  158A  21C7   	fcall	_send_char
              120A  118A         
  2219                           	line	256
  2220                           	
  2221  065B                     l2393:	
  2222                           ;PR22.c: 256: send_char('.');
  2223  065B  302E               	movlw	(02Eh)
  2224  065C  120A  158A  21C7   	fcall	_send_char
              120A  118A         
  2225                           	line	257
  2226                           	
  2227  0661                     l2395:	
  2228                           ;PR22.c: 257: send_char('0' + (result % 10));
  2229  0661  300A               	movlw	low(0Ah)
  2230  0662  00F0               	movwf	(?___lwmod)
  2231  0663  3000               	movlw	high(0Ah)
  2232  0664  00F1               	movwf	((?___lwmod))+1
  2233  0665  1283               	bcf	status, 5	;RP0=0, select bank0
  2234  0666  1303               	bcf	status, 6	;RP1=0, select bank0
  2235  0667  0823               	movf	(mode1@result+1),w
  2236  0668  01F3               	clrf	1+(?___lwmod)+02h
  2237  0669  07F3               	addwf	1+(?___lwmod)+02h
  2238  066A  0822               	movf	(mode1@result),w
  2239  066B  01F2               	clrf	0+(?___lwmod)+02h
  2240  066C  07F2               	addwf	0+(?___lwmod)+02h
  2241                           
  2242  066D  120A  158A  2267   	fcall	___lwmod
              120A  118A         
  2243  0672  0870               	movf	(0+(?___lwmod)),w
  2244  0673  3E30               	addlw	030h
  2245  0674  120A  158A  21C7   	fcall	_send_char
              120A  118A         
  2246                           	line	258
  2247                           	
  2248  0679                     l2397:	
  2249                           ;PR22.c: 258: delay(10000);
  2250  0679  3000               	movlw	0
  2251  067A  00F3               	movwf	(?_delay+3)
  2252  067B  3000               	movlw	0
  2253  067C  00F2               	movwf	(?_delay+2)
  2254  067D  3027               	movlw	027h
  2255  067E  00F1               	movwf	(?_delay+1)
  2256  067F  3010               	movlw	010h
  2257  0680  00F0               	movwf	(?_delay)
  2258                           
  2259  0681  120A  158A  2237   	fcall	_delay
              120A  118A         
  2260  0686  2E87               	goto	l2399
  2261                           	line	259
  2262                           	
  2263  0687                     l142:	
  2264                           	line	238
  2265                           	
  2266  0687                     l2399:	
  2267  0687  1283               	bcf	status, 5	;RP0=0, select bank0
  2268  0688  1303               	bcf	status, 6	;RP1=0, select bank0
  2269  0689  1905               	btfsc	(42/8),(42)&7	;volatile
  2270  068A  2E8C               	goto	u1951
  2271  068B  2E8D               	goto	u1950
  2272  068C                     u1951:
  2273  068C  2DA2               	goto	l2375
  2274  068D                     u1950:
  2275  068D  2E8E               	goto	l2401
  2276                           	
  2277  068E                     l144:	
  2278                           	line	261
  2279                           	
  2280  068E                     l2401:	
  2281                           ;PR22.c: 259: }
  2282                           ;PR22.c: 261: delay(10000);
  2283  068E  3000               	movlw	0
  2284  068F  00F3               	movwf	(?_delay+3)
  2285  0690  3000               	movlw	0
  2286  0691  00F2               	movwf	(?_delay+2)
  2287  0692  3027               	movlw	027h
  2288  0693  00F1               	movwf	(?_delay+1)
  2289  0694  3010               	movlw	010h
  2290  0695  00F0               	movwf	(?_delay)
  2291                           
  2292  0696  120A  158A  2237   	fcall	_delay
              120A  118A         
  2293                           	line	262
  2294                           ;PR22.c: 262: while(!RA2);
  2295  069B  2E9C               	goto	l145
  2296                           	
  2297  069C                     l146:	
  2298                           	
  2299  069C                     l145:	
  2300  069C  1283               	bcf	status, 5	;RP0=0, select bank0
  2301  069D  1303               	bcf	status, 6	;RP1=0, select bank0
  2302  069E  1D05               	btfss	(42/8),(42)&7	;volatile
  2303  069F  2EA1               	goto	u1961
  2304  06A0  2EA2               	goto	u1960
  2305  06A1                     u1961:
  2306  06A1  2E9C               	goto	l145
  2307  06A2                     u1960:
  2308  06A2  2EA3               	goto	l2403
  2309                           	
  2310  06A3                     l147:	
  2311                           	line	263
  2312                           	
  2313  06A3                     l2403:	
  2314                           ;PR22.c: 263: delay(10000);
  2315  06A3  3000               	movlw	0
  2316  06A4  00F3               	movwf	(?_delay+3)
  2317  06A5  3000               	movlw	0
  2318  06A6  00F2               	movwf	(?_delay+2)
  2319  06A7  3027               	movlw	027h
  2320  06A8  00F1               	movwf	(?_delay+1)
  2321  06A9  3010               	movlw	010h
  2322  06AA  00F0               	movwf	(?_delay)
  2323                           
  2324  06AB  120A  158A  2237   	fcall	_delay
              120A  118A         
  2325                           	line	265
  2326                           ;PR22.c: 265: lcd_clr();
  2327  06B0  120A  158A  2196   	fcall	_lcd_clr
              120A  118A         
  2328                           	line	266
  2329                           ;PR22.c: 266: break;
  2330  06B5  2FF0               	goto	l2469
  2331                           	line	268
  2332                           ;PR22.c: 268: case 2 :
  2333                           	
  2334  06B6                     l149:	
  2335                           	line	270
  2336                           	
  2337  06B6                     l2405:	
  2338                           ;PR22.c: 270: lcd_clr();
  2339  06B6  120A  158A  2196   	fcall	_lcd_clr
              120A  118A         
  2340                           	line	271
  2341                           ;PR22.c: 271: lcd_goto(0);
  2342  06BB  3000               	movlw	(0)
  2343  06BC  120A  158A  21AA   	fcall	_lcd_goto
              120A  118A         
  2344                           	line	272
  2345                           	
  2346  06C1                     l2407:	
  2347                           ;PR22.c: 272: send_string("Calibrating...");
  2348  06C1  3063               	movlw	((STR_15-__stringbase))&0ffh
  2349  06C2  120A  158A  2211   	fcall	_send_string
              120A  118A         
  2350                           	line	273
  2351                           	
  2352  06C7                     l2409:	
  2353                           ;PR22.c: 273: lcd_goto(20);
  2354  06C7  3014               	movlw	(014h)
  2355  06C8  120A  158A  21AA   	fcall	_lcd_goto
              120A  118A         
  2356                           	line	274
  2357                           ;PR22.c: 274: send_string("Exit");
  2358  06CD  30D3               	movlw	((STR_16-__stringbase))&0ffh
  2359  06CE  120A  158A  2211   	fcall	_send_string
              120A  118A         
  2360                           	line	277
  2361                           	
  2362  06D3                     l2411:	
  2363                           ;PR22.c: 277: i2c_master_data[0] = 'C';
  2364  06D3  3043               	movlw	(043h)
  2365  06D4  1283               	bcf	status, 5	;RP0=0, select bank0
  2366  06D5  1303               	bcf	status, 6	;RP1=0, select bank0
  2367  06D6  00A0               	movwf	(??_mode1+0)+0
  2368  06D7  0820               	movf	(??_mode1+0)+0,w
  2369  06D8  00B7               	movwf	(_i2c_master_data)
  2370                           	line	278
  2371                           	
  2372  06D9                     l2413:	
  2373                           ;PR22.c: 278: i2c_start(0x42, 1, 0);
  2374  06D9  01F0               	clrf	(?_i2c_start)
  2375  06DA  1403               	bsf	status,0
  2376  06DB  0DF0               	rlf	(?_i2c_start),f
  2377  06DC  3000               	movlw	low(0)
  2378  06DD  00F1               	movwf	0+(?_i2c_start)+01h
  2379  06DE  3000               	movlw	high(0)
  2380  06DF  00F2               	movwf	(0+(?_i2c_start)+01h)+1
  2381  06E0  3042               	movlw	(042h)
  2382  06E1  120A  118A  2004   	fcall	_i2c_start
              120A  118A         
  2383                           	line	280
  2384                           ;PR22.c: 280: while(RA2);
  2385  06E6  2EE7               	goto	l150
  2386                           	
  2387  06E7                     l151:	
  2388                           	
  2389  06E7                     l150:	
  2390  06E7  1283               	bcf	status, 5	;RP0=0, select bank0
  2391  06E8  1303               	bcf	status, 6	;RP1=0, select bank0
  2392  06E9  1905               	btfsc	(42/8),(42)&7	;volatile
  2393  06EA  2EEC               	goto	u1971
  2394  06EB  2EED               	goto	u1970
  2395  06EC                     u1971:
  2396  06EC  2EE7               	goto	l150
  2397  06ED                     u1970:
  2398  06ED  2EEE               	goto	l2415
  2399                           	
  2400  06EE                     l152:	
  2401                           	line	281
  2402                           	
  2403  06EE                     l2415:	
  2404                           ;PR22.c: 281: delay(10000);
  2405  06EE  3000               	movlw	0
  2406  06EF  00F3               	movwf	(?_delay+3)
  2407  06F0  3000               	movlw	0
  2408  06F1  00F2               	movwf	(?_delay+2)
  2409  06F2  3027               	movlw	027h
  2410  06F3  00F1               	movwf	(?_delay+1)
  2411  06F4  3010               	movlw	010h
  2412  06F5  00F0               	movwf	(?_delay)
  2413                           
  2414  06F6  120A  158A  2237   	fcall	_delay
              120A  118A         
  2415                           	line	282
  2416                           ;PR22.c: 282: while(!RA2);
  2417  06FB  2EFC               	goto	l153
  2418                           	
  2419  06FC                     l154:	
  2420                           	
  2421  06FC                     l153:	
  2422  06FC  1283               	bcf	status, 5	;RP0=0, select bank0
  2423  06FD  1303               	bcf	status, 6	;RP1=0, select bank0
  2424  06FE  1D05               	btfss	(42/8),(42)&7	;volatile
  2425  06FF  2F01               	goto	u1981
  2426  0700  2F02               	goto	u1980
  2427  0701                     u1981:
  2428  0701  2EFC               	goto	l153
  2429  0702                     u1980:
  2430  0702  2F03               	goto	l2417
  2431                           	
  2432  0703                     l155:	
  2433                           	line	283
  2434                           	
  2435  0703                     l2417:	
  2436                           ;PR22.c: 283: delay(10000);
  2437  0703  3000               	movlw	0
  2438  0704  00F3               	movwf	(?_delay+3)
  2439  0705  3000               	movlw	0
  2440  0706  00F2               	movwf	(?_delay+2)
  2441  0707  3027               	movlw	027h
  2442  0708  00F1               	movwf	(?_delay+1)
  2443  0709  3010               	movlw	010h
  2444  070A  00F0               	movwf	(?_delay)
  2445                           
  2446  070B  120A  158A  2237   	fcall	_delay
              120A  118A         
  2447                           	line	286
  2448                           	
  2449  0710                     l2419:	
  2450                           ;PR22.c: 286: i2c_master_data[0] = 'E';
  2451  0710  3045               	movlw	(045h)
  2452  0711  1283               	bcf	status, 5	;RP0=0, select bank0
  2453  0712  1303               	bcf	status, 6	;RP1=0, select bank0
  2454  0713  00A0               	movwf	(??_mode1+0)+0
  2455  0714  0820               	movf	(??_mode1+0)+0,w
  2456  0715  00B7               	movwf	(_i2c_master_data)
  2457                           	line	287
  2458                           	
  2459  0716                     l2421:	
  2460                           ;PR22.c: 287: i2c_start(0x42, 1, 0);
  2461  0716  01F0               	clrf	(?_i2c_start)
  2462  0717  1403               	bsf	status,0
  2463  0718  0DF0               	rlf	(?_i2c_start),f
  2464  0719  3000               	movlw	low(0)
  2465  071A  00F1               	movwf	0+(?_i2c_start)+01h
  2466  071B  3000               	movlw	high(0)
  2467  071C  00F2               	movwf	(0+(?_i2c_start)+01h)+1
  2468  071D  3042               	movlw	(042h)
  2469  071E  120A  118A  2004   	fcall	_i2c_start
              120A  118A         
  2470                           	line	289
  2471                           	
  2472  0723                     l2423:	
  2473                           ;PR22.c: 289: lcd_clr();
  2474  0723  120A  158A  2196   	fcall	_lcd_clr
              120A  118A         
  2475                           	line	290
  2476                           	
  2477  0728                     l2425:	
  2478                           ;PR22.c: 290: lcd_goto(0);
  2479  0728  3000               	movlw	(0)
  2480  0729  120A  158A  21AA   	fcall	_lcd_goto
              120A  118A         
  2481                           	line	291
  2482                           	
  2483  072E                     l2427:	
  2484                           ;PR22.c: 291: send_string("Done");
  2485  072E  30CE               	movlw	((STR_17-__stringbase))&0ffh
  2486  072F  120A  158A  2211   	fcall	_send_string
              120A  118A         
  2487                           	line	292
  2488                           	
  2489  0734                     l2429:	
  2490                           ;PR22.c: 292: delay(200000);
  2491  0734  3000               	movlw	0
  2492  0735  00F3               	movwf	(?_delay+3)
  2493  0736  3003               	movlw	03h
  2494  0737  00F2               	movwf	(?_delay+2)
  2495  0738  300D               	movlw	0Dh
  2496  0739  00F1               	movwf	(?_delay+1)
  2497  073A  3040               	movlw	040h
  2498  073B  00F0               	movwf	(?_delay)
  2499                           
  2500  073C  120A  158A  2237   	fcall	_delay
              120A  118A         
  2501                           	line	293
  2502                           ;PR22.c: 293: break;
  2503  0741  2FF0               	goto	l2469
  2504                           	line	295
  2505                           ;PR22.c: 295: case 3 :
  2506                           	
  2507  0742                     l156:	
  2508                           	line	298
  2509                           	
  2510  0742                     l2431:	
  2511                           ;PR22.c: 298: i2c_master_data[0] = 'w';
  2512  0742  3077               	movlw	(077h)
  2513  0743  1283               	bcf	status, 5	;RP0=0, select bank0
  2514  0744  1303               	bcf	status, 6	;RP1=0, select bank0
  2515  0745  00A0               	movwf	(??_mode1+0)+0
  2516  0746  0820               	movf	(??_mode1+0)+0,w
  2517  0747  00B7               	movwf	(_i2c_master_data)
  2518                           	line	299
  2519                           	
  2520  0748                     l2433:	
  2521                           ;PR22.c: 299: i2c_master_data[1] = 0x01;
  2522  0748  01B8               	clrf	0+(_i2c_master_data)+01h
  2523  0749  1403               	bsf	status,0
  2524  074A  0DB8               	rlf	0+(_i2c_master_data)+01h,f
  2525                           	line	300
  2526                           	
  2527  074B                     l2435:	
  2528                           ;PR22.c: 300: i2c_master_data[2] = 0;
  2529  074B  01B9               	clrf	0+(_i2c_master_data)+02h
  2530                           	line	301
  2531                           	
  2532  074C                     l2437:	
  2533                           ;PR22.c: 301: i2c_start(0x42, 3, 0);
  2534  074C  3003               	movlw	(03h)
  2535  074D  00A0               	movwf	(??_mode1+0)+0
  2536  074E  0820               	movf	(??_mode1+0)+0,w
  2537  074F  00F0               	movwf	(?_i2c_start)
  2538  0750  3000               	movlw	low(0)
  2539  0751  00F1               	movwf	0+(?_i2c_start)+01h
  2540  0752  3000               	movlw	high(0)
  2541  0753  00F2               	movwf	(0+(?_i2c_start)+01h)+1
  2542  0754  3042               	movlw	(042h)
  2543  0755  120A  118A  2004   	fcall	_i2c_start
              120A  118A         
  2544                           	line	302
  2545                           	
  2546  075A                     l2439:	
  2547                           ;PR22.c: 302: delay(10000);
  2548  075A  3000               	movlw	0
  2549  075B  00F3               	movwf	(?_delay+3)
  2550  075C  3000               	movlw	0
  2551  075D  00F2               	movwf	(?_delay+2)
  2552  075E  3027               	movlw	027h
  2553  075F  00F1               	movwf	(?_delay+1)
  2554  0760  3010               	movlw	010h
  2555  0761  00F0               	movwf	(?_delay)
  2556                           
  2557  0762  120A  158A  2237   	fcall	_delay
              120A  118A         
  2558                           	line	304
  2559                           	
  2560  0767                     l2441:	
  2561                           ;PR22.c: 304: i2c_master_data[1] = 0x02;
  2562  0767  3002               	movlw	(02h)
  2563  0768  1283               	bcf	status, 5	;RP0=0, select bank0
  2564  0769  1303               	bcf	status, 6	;RP1=0, select bank0
  2565  076A  00A0               	movwf	(??_mode1+0)+0
  2566  076B  0820               	movf	(??_mode1+0)+0,w
  2567  076C  00B8               	movwf	0+(_i2c_master_data)+01h
  2568                           	line	305
  2569                           	
  2570  076D                     l2443:	
  2571                           ;PR22.c: 305: i2c_start(0x42, 3, 0);
  2572  076D  3003               	movlw	(03h)
  2573  076E  00A0               	movwf	(??_mode1+0)+0
  2574  076F  0820               	movf	(??_mode1+0)+0,w
  2575  0770  00F0               	movwf	(?_i2c_start)
  2576  0771  3000               	movlw	low(0)
  2577  0772  00F1               	movwf	0+(?_i2c_start)+01h
  2578  0773  3000               	movlw	high(0)
  2579  0774  00F2               	movwf	(0+(?_i2c_start)+01h)+1
  2580  0775  3042               	movlw	(042h)
  2581  0776  120A  118A  2004   	fcall	_i2c_start
              120A  118A         
  2582                           	line	306
  2583                           	
  2584  077B                     l2445:	
  2585                           ;PR22.c: 306: delay(10000);
  2586  077B  3000               	movlw	0
  2587  077C  00F3               	movwf	(?_delay+3)
  2588  077D  3000               	movlw	0
  2589  077E  00F2               	movwf	(?_delay+2)
  2590  077F  3027               	movlw	027h
  2591  0780  00F1               	movwf	(?_delay+1)
  2592  0781  3010               	movlw	010h
  2593  0782  00F0               	movwf	(?_delay)
  2594                           
  2595  0783  120A  158A  2237   	fcall	_delay
              120A  118A         
  2596                           	line	308
  2597                           	
  2598  0788                     l2447:	
  2599                           ;PR22.c: 308: i2c_master_data[1] = 0x03;
  2600  0788  3003               	movlw	(03h)
  2601  0789  1283               	bcf	status, 5	;RP0=0, select bank0
  2602  078A  1303               	bcf	status, 6	;RP1=0, select bank0
  2603  078B  00A0               	movwf	(??_mode1+0)+0
  2604  078C  0820               	movf	(??_mode1+0)+0,w
  2605  078D  00B8               	movwf	0+(_i2c_master_data)+01h
  2606                           	line	309
  2607                           	
  2608  078E                     l2449:	
  2609                           ;PR22.c: 309: i2c_start(0x42, 3, 0);
  2610  078E  3003               	movlw	(03h)
  2611  078F  00A0               	movwf	(??_mode1+0)+0
  2612  0790  0820               	movf	(??_mode1+0)+0,w
  2613  0791  00F0               	movwf	(?_i2c_start)
  2614  0792  3000               	movlw	low(0)
  2615  0793  00F1               	movwf	0+(?_i2c_start)+01h
  2616  0794  3000               	movlw	high(0)
  2617  0795  00F2               	movwf	(0+(?_i2c_start)+01h)+1
  2618  0796  3042               	movlw	(042h)
  2619  0797  120A  118A  2004   	fcall	_i2c_start
              120A  118A         
  2620                           	line	310
  2621                           	
  2622  079C                     l2451:	
  2623                           ;PR22.c: 310: delay(10000);
  2624  079C  3000               	movlw	0
  2625  079D  00F3               	movwf	(?_delay+3)
  2626  079E  3000               	movlw	0
  2627  079F  00F2               	movwf	(?_delay+2)
  2628  07A0  3027               	movlw	027h
  2629  07A1  00F1               	movwf	(?_delay+1)
  2630  07A2  3010               	movlw	010h
  2631  07A3  00F0               	movwf	(?_delay)
  2632                           
  2633  07A4  120A  158A  2237   	fcall	_delay
              120A  118A         
  2634                           	line	312
  2635                           	
  2636  07A9                     l2453:	
  2637                           ;PR22.c: 312: i2c_master_data[1] = 0x04;
  2638  07A9  3004               	movlw	(04h)
  2639  07AA  1283               	bcf	status, 5	;RP0=0, select bank0
  2640  07AB  1303               	bcf	status, 6	;RP1=0, select bank0
  2641  07AC  00A0               	movwf	(??_mode1+0)+0
  2642  07AD  0820               	movf	(??_mode1+0)+0,w
  2643  07AE  00B8               	movwf	0+(_i2c_master_data)+01h
  2644                           	line	313
  2645                           	
  2646  07AF                     l2455:	
  2647                           ;PR22.c: 313: i2c_start(0x42, 3, 0);
  2648  07AF  3003               	movlw	(03h)
  2649  07B0  00A0               	movwf	(??_mode1+0)+0
  2650  07B1  0820               	movf	(??_mode1+0)+0,w
  2651  07B2  00F0               	movwf	(?_i2c_start)
  2652  07B3  3000               	movlw	low(0)
  2653  07B4  00F1               	movwf	0+(?_i2c_start)+01h
  2654  07B5  3000               	movlw	high(0)
  2655  07B6  00F2               	movwf	(0+(?_i2c_start)+01h)+1
  2656  07B7  3042               	movlw	(042h)
  2657  07B8  120A  118A  2004   	fcall	_i2c_start
              120A  118A         
  2658                           	line	315
  2659                           	
  2660  07BD                     l2457:	
  2661                           ;PR22.c: 315: lcd_clr();
  2662  07BD  120A  158A  2196   	fcall	_lcd_clr
              120A  118A         
  2663                           	line	316
  2664                           	
  2665  07C2                     l2459:	
  2666                           ;PR22.c: 316: lcd_goto(0);
  2667  07C2  3000               	movlw	(0)
  2668  07C3  120A  158A  21AA   	fcall	_lcd_goto
              120A  118A         
  2669                           	line	317
  2670                           	
  2671  07C8                     l2461:	
  2672                           ;PR22.c: 317: send_string("Done");
  2673  07C8  30CE               	movlw	((STR_18-__stringbase))&0ffh
  2674  07C9  120A  158A  2211   	fcall	_send_string
              120A  118A         
  2675                           	line	318
  2676                           	
  2677  07CE                     l2463:	
  2678                           ;PR22.c: 318: delay(200000);
  2679  07CE  3000               	movlw	0
  2680  07CF  00F3               	movwf	(?_delay+3)
  2681  07D0  3003               	movlw	03h
  2682  07D1  00F2               	movwf	(?_delay+2)
  2683  07D2  300D               	movlw	0Dh
  2684  07D3  00F1               	movwf	(?_delay+1)
  2685  07D4  3040               	movlw	040h
  2686  07D5  00F0               	movwf	(?_delay)
  2687                           
  2688  07D6  120A  158A  2237   	fcall	_delay
              120A  118A         
  2689                           	line	319
  2690                           ;PR22.c: 319: break;
  2691  07DB  2FF0               	goto	l2469
  2692                           	line	321
  2693                           ;PR22.c: 321: case 4 :
  2694                           	
  2695  07DC                     l157:	
  2696                           	line	323
  2697                           ;PR22.c: 323: return;
  2698  07DC  2FFF               	goto	l158
  2699                           	line	325
  2700                           ;PR22.c: 325: default : break;
  2701                           	
  2702  07DD                     l159:	
  2703  07DD  2FF0               	goto	l2469
  2704                           	line	326
  2705                           	
  2706  07DE                     l2465:	
  2707                           ;PR22.c: 326: }
  2708  07DE  2FF0               	goto	l2469
  2709                           	line	225
  2710                           	
  2711  07DF                     l140:	
  2712                           	
  2713  07DF                     l2467:	
  2714  07DF  1283               	bcf	status, 5	;RP0=0, select bank0
  2715  07E0  1303               	bcf	status, 6	;RP1=0, select bank0
  2716  07E1  0824               	movf	(mode1@submode),w
  2717                           	; Switch size 1, requested type "space"
  2718                           ; Number of cases is 4, Range of values is 1 to 4
  2719                           ; switch strategies available:
  2720                           ; Name         Instructions Cycles
  2721                           ; simple_byte           13     7 (average)
  2722                           ; direct_byte           23    11 (fixed)
  2723                           ; jumptable            263     9 (fixed)
  2724                           ;	Chosen strategy is simple_byte
  2725                           
  2726                           	opt asmopt_off
  2727  07E2  3A01               	xorlw	1^0	; case 1
  2728  07E3  1903               	skipnz
  2729  07E4  2D6F               	goto	l2363
  2730  07E5  3A03               	xorlw	2^1	; case 2
  2731  07E6  1903               	skipnz
  2732  07E7  2EB6               	goto	l2405
  2733  07E8  3A01               	xorlw	3^2	; case 3
  2734  07E9  1903               	skipnz
  2735  07EA  2F42               	goto	l2431
  2736  07EB  3A07               	xorlw	4^3	; case 4
  2737  07EC  1903               	skipnz
  2738  07ED  2FFF               	goto	l158
  2739  07EE  2FF0               	goto	l2469
  2740                           	opt asmopt_on
  2741                           
  2742                           	line	326
  2743                           	
  2744  07EF                     l148:	
  2745  07EF  2FF0               	goto	l2469
  2746                           	line	327
  2747                           	
  2748  07F0                     l136:	
  2749                           	line	328
  2750                           	
  2751  07F0                     l2469:	
  2752                           ;PR22.c: 327: }
  2753                           ;PR22.c: 328: delay(30000);
  2754  07F0  3000               	movlw	0
  2755  07F1  00F3               	movwf	(?_delay+3)
  2756  07F2  3000               	movlw	0
  2757  07F3  00F2               	movwf	(?_delay+2)
  2758  07F4  3075               	movlw	075h
  2759  07F5  00F1               	movwf	(?_delay+1)
  2760  07F6  3030               	movlw	030h
  2761  07F7  00F0               	movwf	(?_delay)
  2762                           
  2763  07F8  120A  158A  2237   	fcall	_delay
              120A  118A         
  2764  07FD  2CDA               	goto	l2331
  2765                           	line	330
  2766                           	
  2767  07FE                     l160:	
  2768                           	line	181
  2769  07FE  2CDA               	goto	l2331
  2770                           	
  2771  07FF                     l161:	
  2772                           	line	331
  2773                           	
  2774  07FF                     l158:	
  2775  07FF  0008               	return
  2776                           	opt stack 0
  2777                           GLOBAL	__end_of_mode1
  2778  0800                     	__end_of_mode1:
  2779                           	signat	_mode1,88
  2780                           	global	_mode2
  2781                           
  2782 ;; *************** function _mode2 *****************
  2783 ;; Defined at:
  2784 ;;		line 334 in file "PR22.c"
  2785 ;; Parameters:    Size  Location     Type
  2786 ;;		None
  2787 ;; Auto vars:     Size  Location     Type
  2788 ;;  temperature_    4   13[BANK0 ] unsigned long 
  2789 ;;  capacitance_    4    9[BANK0 ] unsigned long 
  2790 ;;  capacitance     2   19[BANK0 ] unsigned int 
  2791 ;;  i               1   18[BANK0 ] unsigned char 
  2792 ;;  temperature     1   17[BANK0 ] unsigned char 
  2793 ;; Return value:  Size  Location     Type
  2794 ;;		None               void
  2795 ;; Registers used:
  2796 ;;		wreg, fsr0l, fsr0h, status,2, status,0, pclath, cstack
  2797 ;; Tracked objects:
  2798 ;;		On entry : 0/0
  2799 ;;		On exit  : 0/0
  2800 ;;		Unchanged: 0/0
  2801 ;; Data sizes:     COMMON   BANK0   BANK1   BANK3   BANK2
  2802 ;;      Params:         0       0       0       0       0
  2803 ;;      Locals:         0      12       0       0       0
  2804 ;;      Temps:          0       5       0       0       0
  2805 ;;      Totals:         0      17       0       0       0
  2806 ;;Total ram usage:       17 bytes
  2807 ;; Hardware stack levels used:    1
  2808 ;; Hardware stack levels required when called:    3
  2809 ;; This function calls:
  2810 ;;		_lcd_goto
  2811 ;;		_send_string
  2812 ;;		_i2c_start
  2813 ;;		_lcd_clr
  2814 ;;		_delay
  2815 ;;		___lwdiv
  2816 ;;		_send_char
  2817 ;;		___lwmod
  2818 ;;		___awmod
  2819 ;;		___awdiv
  2820 ;; This function is called by:
  2821 ;;		_main
  2822 ;; This function uses a non-reentrant model
  2823 ;;
  2824                           psect	text350,local,class=CODE,delta=2,merge=1
  2825                           global __ptext350
  2826  01D6                     __ptext350:
  2827                           psect	text350
  2828                           	file	"PR22.c"
  2829                           	line	334
  2830                           	global	__size_of_mode2
  2831  02F9                     	__size_of_mode2	equ	__end_of_mode2-_mode2
  2832                           	
  2833  01D6                     _mode2:	
  2834                           	opt	stack 4
  2835                           ; Regs used in _mode2: [wreg-fsr0h+status,2+status,0+pclath+cstack]
  2836                           	line	340
  2837                           	
  2838  01D6                     l2471:	
  2839                           ;PR22.c: 335: unsigned char i;
  2840                           ;PR22.c: 336: unsigned char temperature;
  2841                           ;PR22.c: 337: unsigned int capacitance;
  2842                           ;PR22.c: 338: unsigned long capacitance_raw, temperature_raw;
  2843                           ;PR22.c: 340: lcd_goto(20);
  2844  01D6  3014               	movlw	(014h)
  2845  01D7  120A  158A  21AA   	fcall	_lcd_goto
              120A  118A         
  2846                           	line	341
  2847                           	
  2848  01DC                     l2473:	
  2849                           ;PR22.c: 341: send_string("Calibrating...  ");
  2850  01DC  3001               	movlw	((STR_19-__stringbase))&0ffh
  2851  01DD  120A  158A  2211   	fcall	_send_string
              120A  118A         
  2852                           	line	344
  2853                           	
  2854  01E2                     l2475:	
  2855                           ;PR22.c: 344: for(i = 0; i < 7; i++)
  2856  01E2  1283               	bcf	status, 5	;RP0=0, select bank0
  2857  01E3  1303               	bcf	status, 6	;RP1=0, select bank0
  2858  01E4  01B2               	clrf	(mode2@i)
  2859                           	
  2860  01E5                     l2477:	
  2861  01E5  3007               	movlw	(07h)
  2862  01E6  0232               	subwf	(mode2@i),w
  2863  01E7  1C03               	skipc
  2864  01E8  29EA               	goto	u1991
  2865  01E9  29EB               	goto	u1990
  2866  01EA                     u1991:
  2867  01EA  29ED               	goto	l2481
  2868  01EB                     u1990:
  2869  01EB  2A04               	goto	l2487
  2870                           	
  2871  01EC                     l2479:	
  2872  01EC  2A04               	goto	l2487
  2873                           	line	345
  2874                           	
  2875  01ED                     l164:	
  2876                           	
  2877  01ED                     l2481:	
  2878                           ;PR22.c: 345: i2c_master_data[i] = i2c_master_rcvb[i] = 0;
  2879  01ED  0832               	movf	(mode2@i),w
  2880  01EE  3E3E               	addlw	_i2c_master_rcvb&0ffh
  2881  01EF  0084               	movwf	fsr0
  2882  01F0  3000               	movlw	(0)
  2883  01F1  1383               	bcf	status, 7	;select IRP bank0
  2884  01F2  0080               	movwf	indf
  2885  01F3  00A4               	movwf	(??_mode2+0)+0
  2886  01F4  0832               	movf	(mode2@i),w
  2887  01F5  3E37               	addlw	_i2c_master_data&0ffh
  2888  01F6  0084               	movwf	fsr0
  2889  01F7  0824               	movf	(??_mode2+0)+0,w
  2890  01F8  0080               	movwf	indf
  2891                           	line	344
  2892                           	
  2893  01F9                     l2483:	
  2894  01F9  3001               	movlw	(01h)
  2895  01FA  00A4               	movwf	(??_mode2+0)+0
  2896  01FB  0824               	movf	(??_mode2+0)+0,w
  2897  01FC  07B2               	addwf	(mode2@i),f
  2898                           	
  2899  01FD                     l2485:	
  2900  01FD  3007               	movlw	(07h)
  2901  01FE  0232               	subwf	(mode2@i),w
  2902  01FF  1C03               	skipc
  2903  0200  2A02               	goto	u2001
  2904  0201  2A03               	goto	u2000
  2905  0202                     u2001:
  2906  0202  29ED               	goto	l2481
  2907  0203                     u2000:
  2908  0203  2A04               	goto	l2487
  2909                           	
  2910  0204                     l165:	
  2911                           	line	347
  2912                           	
  2913  0204                     l2487:	
  2914                           ;PR22.c: 347: i2c_master_data[5] = 0b10000000;
  2915  0204  3080               	movlw	(080h)
  2916  0205  00A4               	movwf	(??_mode2+0)+0
  2917  0206  0824               	movf	(??_mode2+0)+0,w
  2918  0207  00BC               	movwf	0+(_i2c_master_data)+05h
  2919                           	line	357
  2920                           ;PR22.c: 357: i2c_master_data[0] = 0x07;
  2921  0208  3007               	movlw	(07h)
  2922  0209  00A4               	movwf	(??_mode2+0)+0
  2923  020A  0824               	movf	(??_mode2+0)+0,w
  2924  020B  00B7               	movwf	(_i2c_master_data)
  2925                           	line	358
  2926                           ;PR22.c: 358: i2c_master_data[1] = 0b10000000;
  2927  020C  3080               	movlw	(080h)
  2928  020D  00A4               	movwf	(??_mode2+0)+0
  2929  020E  0824               	movf	(??_mode2+0)+0,w
  2930  020F  00B8               	movwf	0+(_i2c_master_data)+01h
  2931                           	line	364
  2932                           ;PR22.c: 364: i2c_master_data[2] = 0b10000001;
  2933  0210  3081               	movlw	(081h)
  2934  0211  00A4               	movwf	(??_mode2+0)+0
  2935  0212  0824               	movf	(??_mode2+0)+0,w
  2936  0213  00B9               	movwf	0+(_i2c_master_data)+02h
  2937                           	line	365
  2938                           ;PR22.c: 365: i2c_master_data[3] = 0b00001011;
  2939  0214  300B               	movlw	(0Bh)
  2940  0215  00A4               	movwf	(??_mode2+0)+0
  2941  0216  0824               	movf	(??_mode2+0)+0,w
  2942  0217  00BA               	movwf	0+(_i2c_master_data)+03h
  2943                           	line	371
  2944                           ;PR22.c: 371: i2c_master_data[4] = 0b00010001;
  2945  0218  3011               	movlw	(011h)
  2946  0219  00A4               	movwf	(??_mode2+0)+0
  2947  021A  0824               	movf	(??_mode2+0)+0,w
  2948  021B  00BB               	movwf	0+(_i2c_master_data)+04h
  2949  021C  2A1D               	goto	l2489
  2950                           	line	376
  2951                           ;PR22.c: 376: do
  2952                           	
  2953  021D                     l166:	
  2954                           	line	378
  2955                           	
  2956  021D                     l2489:	
  2957                           ;PR22.c: 377: {
  2958                           ;PR22.c: 378: i2c_start(0x90, 6, 0);
  2959  021D  3006               	movlw	(06h)
  2960  021E  00A4               	movwf	(??_mode2+0)+0
  2961  021F  0824               	movf	(??_mode2+0)+0,w
  2962  0220  00F0               	movwf	(?_i2c_start)
  2963  0221  3000               	movlw	low(0)
  2964  0222  00F1               	movwf	0+(?_i2c_start)+01h
  2965  0223  3000               	movlw	high(0)
  2966  0224  00F2               	movwf	(0+(?_i2c_start)+01h)+1
  2967  0225  3090               	movlw	(090h)
  2968  0226  120A  118A  2004   	fcall	_i2c_start
              120A  118A         
  2969  022B  2A2C               	goto	l2491
  2970                           	line	380
  2971                           ;PR22.c: 380: do
  2972                           	
  2973  022C                     l167:	
  2974                           	line	381
  2975                           	
  2976  022C                     l2491:	
  2977                           ;PR22.c: 381: i2c_start(0x90, 1, 1);
  2978  022C  01F0               	clrf	(?_i2c_start)
  2979  022D  1403               	bsf	status,0
  2980  022E  0DF0               	rlf	(?_i2c_start),f
  2981  022F  3001               	movlw	low(01h)
  2982  0230  00F1               	movwf	0+(?_i2c_start)+01h
  2983  0231  3000               	movlw	high(01h)
  2984  0232  00F2               	movwf	(0+(?_i2c_start)+01h)+1
  2985  0233  3090               	movlw	(090h)
  2986  0234  120A  118A  2004   	fcall	_i2c_start
              120A  118A         
  2987                           	line	382
  2988                           	
  2989  0239                     l2493:	
  2990                           ;PR22.c: 382: while(i2c_master_rcvb[0] != 0);
  2991  0239  1283               	bcf	status, 5	;RP0=0, select bank0
  2992  023A  1303               	bcf	status, 6	;RP1=0, select bank0
  2993  023B  08BE               	movf	(_i2c_master_rcvb),f
  2994  023C  1D03               	skipz
  2995  023D  2A3F               	goto	u2011
  2996  023E  2A40               	goto	u2010
  2997  023F                     u2011:
  2998  023F  2A2C               	goto	l2491
  2999  0240                     u2010:
  3000  0240  2A41               	goto	l2495
  3001                           	
  3002  0241                     l168:	
  3003                           	line	384
  3004                           	
  3005  0241                     l2495:	
  3006                           ;PR22.c: 384: i2c_start(0x90, 4, 1);
  3007  0241  3004               	movlw	(04h)
  3008  0242  00A4               	movwf	(??_mode2+0)+0
  3009  0243  0824               	movf	(??_mode2+0)+0,w
  3010  0244  00F0               	movwf	(?_i2c_start)
  3011  0245  3001               	movlw	low(01h)
  3012  0246  00F1               	movwf	0+(?_i2c_start)+01h
  3013  0247  3000               	movlw	high(01h)
  3014  0248  00F2               	movwf	(0+(?_i2c_start)+01h)+1
  3015  0249  3090               	movlw	(090h)
  3016  024A  120A  118A  2004   	fcall	_i2c_start
              120A  118A         
  3017                           	line	386
  3018                           	
  3019  024F                     l2497:	
  3020                           ;PR22.c: 386: if(i2c_master_data[5] < 0xFF)
  3021  024F  1283               	bcf	status, 5	;RP0=0, select bank0
  3022  0250  1303               	bcf	status, 6	;RP1=0, select bank0
  3023  0251  083C               	movf	0+(_i2c_master_data)+05h,w
  3024  0252  3AFF               	xorlw	0FFh
  3025  0253  1903               	skipnz
  3026  0254  2A56               	goto	u2021
  3027  0255  2A57               	goto	u2020
  3028  0256                     u2021:
  3029  0256  2A61               	goto	l2503
  3030  0257                     u2020:
  3031                           	line	388
  3032                           	
  3033  0257                     l2499:	
  3034                           ;PR22.c: 387: {
  3035                           ;PR22.c: 388: if(i2c_master_rcvb[1] != 0)
  3036  0257  083F               	movf	0+(_i2c_master_rcvb)+01h,w
  3037  0258  1D03               	skipz
  3038  0259  2A5B               	goto	u2030
  3039  025A  2A81               	goto	l2511
  3040  025B                     u2030:
  3041                           	line	389
  3042                           	
  3043  025B                     l2501:	
  3044                           ;PR22.c: 389: i2c_master_data[5]++;
  3045  025B  3001               	movlw	(01h)
  3046  025C  00A4               	movwf	(??_mode2+0)+0
  3047  025D  0824               	movf	(??_mode2+0)+0,w
  3048  025E  07BC               	addwf	0+(_i2c_master_data)+05h,f
  3049  025F  2A81               	goto	l2511
  3050                           	
  3051  0260                     l170:	
  3052                           	line	390
  3053                           ;PR22.c: 390: }
  3054  0260  2A81               	goto	l2511
  3055                           	line	391
  3056                           	
  3057  0261                     l169:	
  3058                           	line	393
  3059                           	
  3060  0261                     l2503:	
  3061                           ;PR22.c: 391: else
  3062                           ;PR22.c: 392: {
  3063                           ;PR22.c: 393: lcd_clr();
  3064  0261  120A  158A  2196   	fcall	_lcd_clr
              120A  118A         
  3065                           	line	394
  3066                           ;PR22.c: 394: lcd_goto(0);
  3067  0266  3000               	movlw	(0)
  3068  0267  120A  158A  21AA   	fcall	_lcd_goto
              120A  118A         
  3069                           	line	395
  3070                           	
  3071  026C                     l2505:	
  3072                           ;PR22.c: 395: send_string("Calibration Fail");
  3073  026C  3012               	movlw	((STR_20-__stringbase))&0ffh
  3074  026D  120A  158A  2211   	fcall	_send_string
              120A  118A         
  3075                           	line	396
  3076                           	
  3077  0272                     l2507:	
  3078                           ;PR22.c: 396: delay(200000);
  3079  0272  3000               	movlw	0
  3080  0273  00F3               	movwf	(?_delay+3)
  3081  0274  3003               	movlw	03h
  3082  0275  00F2               	movwf	(?_delay+2)
  3083  0276  300D               	movlw	0Dh
  3084  0277  00F1               	movwf	(?_delay+1)
  3085  0278  3040               	movlw	040h
  3086  0279  00F0               	movwf	(?_delay)
  3087                           
  3088  027A  120A  158A  2237   	fcall	_delay
              120A  118A         
  3089  027F  2CCE               	goto	l172
  3090                           	line	397
  3091                           	
  3092  0280                     l2509:	
  3093                           ;PR22.c: 397: return;
  3094  0280  2CCE               	goto	l172
  3095                           	line	398
  3096                           	
  3097  0281                     l171:	
  3098                           	line	399
  3099                           	
  3100  0281                     l2511:	
  3101                           ;PR22.c: 398: }
  3102                           ;PR22.c: 399: } while(i2c_master_rcvb[1] != 0);
  3103  0281  1283               	bcf	status, 5	;RP0=0, select bank0
  3104  0282  1303               	bcf	status, 6	;RP1=0, select bank0
  3105  0283  08BF               	movf	0+(_i2c_master_rcvb)+01h,f
  3106  0284  1D03               	skipz
  3107  0285  2A87               	goto	u2041
  3108  0286  2A88               	goto	u2040
  3109  0287                     u2041:
  3110  0287  2A1D               	goto	l2489
  3111  0288                     u2040:
  3112  0288  2A89               	goto	l2513
  3113                           	
  3114  0289                     l173:	
  3115                           	line	403
  3116                           	
  3117  0289                     l2513:	
  3118                           ;PR22.c: 403: lcd_clr();
  3119  0289  120A  158A  2196   	fcall	_lcd_clr
              120A  118A         
  3120                           	line	404
  3121                           ;PR22.c: 404: lcd_goto(0);
  3122  028E  3000               	movlw	(0)
  3123  028F  120A  158A  21AA   	fcall	_lcd_goto
              120A  118A         
  3124                           	line	405
  3125                           	
  3126  0294                     l2515:	
  3127                           ;PR22.c: 405: send_string("Cap.:");
  3128  0294  30BE               	movlw	((STR_21-__stringbase))&0ffh
  3129  0295  120A  158A  2211   	fcall	_send_string
              120A  118A         
  3130                           	line	406
  3131                           	
  3132  029A                     l2517:	
  3133                           ;PR22.c: 406: lcd_goto(20);
  3134  029A  3014               	movlw	(014h)
  3135  029B  120A  158A  21AA   	fcall	_lcd_goto
              120A  118A         
  3136                           	line	407
  3137                           ;PR22.c: 407: send_string("Tem.:");
  3138  02A0  30B8               	movlw	((STR_22-__stringbase))&0ffh
  3139  02A1  120A  158A  2211   	fcall	_send_string
              120A  118A         
  3140                           	line	409
  3141                           ;PR22.c: 409: while(RA2)
  3142  02A6  2CA5               	goto	l2569
  3143                           	
  3144  02A7                     l175:	
  3145  02A7  2AA8               	goto	l2519
  3146                           	line	413
  3147                           ;PR22.c: 410: {
  3148                           ;PR22.c: 413: do
  3149                           	
  3150  02A8                     l176:	
  3151                           	line	414
  3152                           	
  3153  02A8                     l2519:	
  3154                           ;PR22.c: 414: i2c_start(0x90, 1, 1);
  3155  02A8  01F0               	clrf	(?_i2c_start)
  3156  02A9  1403               	bsf	status,0
  3157  02AA  0DF0               	rlf	(?_i2c_start),f
  3158  02AB  3001               	movlw	low(01h)
  3159  02AC  00F1               	movwf	0+(?_i2c_start)+01h
  3160  02AD  3000               	movlw	high(01h)
  3161  02AE  00F2               	movwf	(0+(?_i2c_start)+01h)+1
  3162  02AF  3090               	movlw	(090h)
  3163  02B0  120A  118A  2004   	fcall	_i2c_start
              120A  118A         
  3164                           	line	415
  3165                           	
  3166  02B5                     l2521:	
  3167                           ;PR22.c: 415: while(i2c_master_rcvb[0] != 0);
  3168  02B5  1283               	bcf	status, 5	;RP0=0, select bank0
  3169  02B6  1303               	bcf	status, 6	;RP1=0, select bank0
  3170  02B7  08BE               	movf	(_i2c_master_rcvb),f
  3171  02B8  1D03               	skipz
  3172  02B9  2ABB               	goto	u2051
  3173  02BA  2ABC               	goto	u2050
  3174  02BB                     u2051:
  3175  02BB  2AA8               	goto	l2519
  3176  02BC                     u2050:
  3177  02BC  2ABD               	goto	l2523
  3178                           	
  3179  02BD                     l177:	
  3180                           	line	417
  3181                           	
  3182  02BD                     l2523:	
  3183                           ;PR22.c: 417: i2c_start(0x90, 7, 1);
  3184  02BD  3007               	movlw	(07h)
  3185  02BE  00A4               	movwf	(??_mode2+0)+0
  3186  02BF  0824               	movf	(??_mode2+0)+0,w
  3187  02C0  00F0               	movwf	(?_i2c_start)
  3188  02C1  3001               	movlw	low(01h)
  3189  02C2  00F1               	movwf	0+(?_i2c_start)+01h
  3190  02C3  3000               	movlw	high(01h)
  3191  02C4  00F2               	movwf	(0+(?_i2c_start)+01h)+1
  3192  02C5  3090               	movlw	(090h)
  3193  02C6  120A  118A  2004   	fcall	_i2c_start
              120A  118A         
  3194                           	line	430
  3195                           	
  3196  02CB                     l2525:	
  3197                           ;PR22.c: 430: capacitance_raw = i2c_master_rcvb[1];
  3198  02CB  1283               	bcf	status, 5	;RP0=0, select bank0
  3199  02CC  1303               	bcf	status, 6	;RP1=0, select bank0
  3200  02CD  083F               	movf	0+(_i2c_master_rcvb)+01h,w
  3201  02CE  00A4               	movwf	(??_mode2+0)+0
  3202  02CF  01A5               	clrf	((??_mode2+0)+0+1)
  3203  02D0  01A6               	clrf	((??_mode2+0)+0+2)
  3204  02D1  01A7               	clrf	((??_mode2+0)+0+3)
  3205  02D2  0827               	movf	3+(??_mode2+0)+0,w
  3206  02D3  00AC               	movwf	(mode2@capacitance_raw+3)
  3207  02D4  0826               	movf	2+(??_mode2+0)+0,w
  3208  02D5  00AB               	movwf	(mode2@capacitance_raw+2)
  3209  02D6  0825               	movf	1+(??_mode2+0)+0,w
  3210  02D7  00AA               	movwf	(mode2@capacitance_raw+1)
  3211  02D8  0824               	movf	0+(??_mode2+0)+0,w
  3212  02D9  00A9               	movwf	(mode2@capacitance_raw)
  3213                           
  3214                           	line	431
  3215                           	
  3216  02DA                     l2527:	
  3217                           ;PR22.c: 431: capacitance_raw <<= 8;
  3218  02DA  3008               	movlw	08h
  3219  02DB  00A4               	movwf	(??_mode2+0)+0
  3220  02DC                     u2065:
  3221  02DC  1003               	clrc
  3222  02DD  0DA9               	rlf	(mode2@capacitance_raw),f
  3223  02DE  0DAA               	rlf	(mode2@capacitance_raw+1),f
  3224  02DF  0DAB               	rlf	(mode2@capacitance_raw+2),f
  3225  02E0  0DAC               	rlf	(mode2@capacitance_raw+3),f
  3226  02E1  0BA4               	decfsz	(??_mode2+0)+0
  3227  02E2  2ADC               	goto	u2065
  3228                           	line	432
  3229                           	
  3230  02E3                     l2529:	
  3231                           ;PR22.c: 432: capacitance_raw += i2c_master_rcvb[2];
  3232  02E3  0840               	movf	0+(_i2c_master_rcvb)+02h,w
  3233  02E4  00A4               	movwf	(??_mode2+0)+0
  3234  02E5  01A5               	clrf	((??_mode2+0)+0+1)
  3235  02E6  01A6               	clrf	((??_mode2+0)+0+2)
  3236  02E7  01A7               	clrf	((??_mode2+0)+0+3)
  3237  02E8  0824               	movf	0+(??_mode2+0)+0,w
  3238  02E9  07A9               	addwf	(mode2@capacitance_raw),f
  3239  02EA  0825               	movf	1+(??_mode2+0)+0,w
  3240  02EB  1103               	clrz
  3241  02EC  1803               	skipnc
  3242  02ED  3E01               	addlw	1
  3243  02EE  1903               	skipnz
  3244  02EF  2AF1               	goto	u2071
  3245  02F0  07AA               	addwf	(mode2@capacitance_raw+1),f
  3246  02F1                     u2071:
  3247  02F1  0826               	movf	2+(??_mode2+0)+0,w
  3248  02F2  1103               	clrz
  3249  02F3  1803               	skipnc
  3250  02F4  3E01               	addlw	1
  3251  02F5  1903               	skipnz
  3252  02F6  2AF8               	goto	u2072
  3253  02F7  07AB               	addwf	(mode2@capacitance_raw+2),f
  3254  02F8                     u2072:
  3255  02F8  0827               	movf	3+(??_mode2+0)+0,w
  3256  02F9  1103               	clrz
  3257  02FA  1803               	skipnc
  3258  02FB  3E01               	addlw	1
  3259  02FC  1903               	skipnz
  3260  02FD  2AFF               	goto	u2073
  3261  02FE  07AC               	addwf	(mode2@capacitance_raw+3),f
  3262  02FF                     u2073:
  3263                           
  3264                           	line	433
  3265                           	
  3266  02FF                     l2531:	
  3267                           ;PR22.c: 433: capacitance_raw <<= 8;
  3268  02FF  3008               	movlw	08h
  3269  0300  00A4               	movwf	(??_mode2+0)+0
  3270  0301                     u2085:
  3271  0301  1003               	clrc
  3272  0302  0DA9               	rlf	(mode2@capacitance_raw),f
  3273  0303  0DAA               	rlf	(mode2@capacitance_raw+1),f
  3274  0304  0DAB               	rlf	(mode2@capacitance_raw+2),f
  3275  0305  0DAC               	rlf	(mode2@capacitance_raw+3),f
  3276  0306  0BA4               	decfsz	(??_mode2+0)+0
  3277  0307  2B01               	goto	u2085
  3278                           	line	434
  3279                           	
  3280  0308                     l2533:	
  3281                           ;PR22.c: 434: capacitance_raw += i2c_master_rcvb[3];
  3282  0308  0841               	movf	0+(_i2c_master_rcvb)+03h,w
  3283  0309  00A4               	movwf	(??_mode2+0)+0
  3284  030A  01A5               	clrf	((??_mode2+0)+0+1)
  3285  030B  01A6               	clrf	((??_mode2+0)+0+2)
  3286  030C  01A7               	clrf	((??_mode2+0)+0+3)
  3287  030D  0824               	movf	0+(??_mode2+0)+0,w
  3288  030E  07A9               	addwf	(mode2@capacitance_raw),f
  3289  030F  0825               	movf	1+(??_mode2+0)+0,w
  3290  0310  1103               	clrz
  3291  0311  1803               	skipnc
  3292  0312  3E01               	addlw	1
  3293  0313  1903               	skipnz
  3294  0314  2B16               	goto	u2091
  3295  0315  07AA               	addwf	(mode2@capacitance_raw+1),f
  3296  0316                     u2091:
  3297  0316  0826               	movf	2+(??_mode2+0)+0,w
  3298  0317  1103               	clrz
  3299  0318  1803               	skipnc
  3300  0319  3E01               	addlw	1
  3301  031A  1903               	skipnz
  3302  031B  2B1D               	goto	u2092
  3303  031C  07AB               	addwf	(mode2@capacitance_raw+2),f
  3304  031D                     u2092:
  3305  031D  0827               	movf	3+(??_mode2+0)+0,w
  3306  031E  1103               	clrz
  3307  031F  1803               	skipnc
  3308  0320  3E01               	addlw	1
  3309  0321  1903               	skipnz
  3310  0322  2B24               	goto	u2093
  3311  0323  07AC               	addwf	(mode2@capacitance_raw+3),f
  3312  0324                     u2093:
  3313                           
  3314                           	line	435
  3315                           	
  3316  0324                     l2535:	
  3317                           ;PR22.c: 435: capacitance = capacitance_raw / 2048;
  3318  0324  0829               	movf	(mode2@capacitance_raw),w
  3319  0325  00A4               	movwf	(??_mode2+0)+0
  3320  0326  082A               	movf	(mode2@capacitance_raw+1),w
  3321  0327  00A5               	movwf	((??_mode2+0)+0+1)
  3322  0328  082B               	movf	(mode2@capacitance_raw+2),w
  3323  0329  00A6               	movwf	((??_mode2+0)+0+2)
  3324  032A  082C               	movf	(mode2@capacitance_raw+3),w
  3325  032B  00A7               	movwf	((??_mode2+0)+0+3)
  3326  032C  300B               	movlw	0Bh
  3327  032D                     u2105:
  3328  032D  1003               	clrc
  3329  032E  0CA7               	rrf	(??_mode2+0)+3,f
  3330  032F  0CA6               	rrf	(??_mode2+0)+2,f
  3331  0330  0CA5               	rrf	(??_mode2+0)+1,f
  3332  0331  0CA4               	rrf	(??_mode2+0)+0,f
  3333  0332                     u2100:
  3334  0332  3EFF               	addlw	-1
  3335  0333  1D03               	skipz
  3336  0334  2B2D               	goto	u2105
  3337  0335  0825               	movf	1+(??_mode2+0)+0,w
  3338  0336  01B4               	clrf	(mode2@capacitance+1)
  3339  0337  07B4               	addwf	(mode2@capacitance+1)
  3340  0338  0824               	movf	0+(??_mode2+0)+0,w
  3341  0339  01B3               	clrf	(mode2@capacitance)
  3342  033A  07B3               	addwf	(mode2@capacitance)
  3343                           
  3344                           	line	438
  3345                           	
  3346  033B                     l2537:	
  3347                           ;PR22.c: 438: temperature_raw = i2c_master_rcvb[4];
  3348  033B  0842               	movf	0+(_i2c_master_rcvb)+04h,w
  3349  033C  00A4               	movwf	(??_mode2+0)+0
  3350  033D  01A5               	clrf	((??_mode2+0)+0+1)
  3351  033E  01A6               	clrf	((??_mode2+0)+0+2)
  3352  033F  01A7               	clrf	((??_mode2+0)+0+3)
  3353  0340  0827               	movf	3+(??_mode2+0)+0,w
  3354  0341  00B0               	movwf	(mode2@temperature_raw+3)
  3355  0342  0826               	movf	2+(??_mode2+0)+0,w
  3356  0343  00AF               	movwf	(mode2@temperature_raw+2)
  3357  0344  0825               	movf	1+(??_mode2+0)+0,w
  3358  0345  00AE               	movwf	(mode2@temperature_raw+1)
  3359  0346  0824               	movf	0+(??_mode2+0)+0,w
  3360  0347  00AD               	movwf	(mode2@temperature_raw)
  3361                           
  3362                           	line	439
  3363                           	
  3364  0348                     l2539:	
  3365                           ;PR22.c: 439: temperature_raw <<= 8;
  3366  0348  3008               	movlw	08h
  3367  0349  00A4               	movwf	(??_mode2+0)+0
  3368  034A                     u2115:
  3369  034A  1003               	clrc
  3370  034B  0DAD               	rlf	(mode2@temperature_raw),f
  3371  034C  0DAE               	rlf	(mode2@temperature_raw+1),f
  3372  034D  0DAF               	rlf	(mode2@temperature_raw+2),f
  3373  034E  0DB0               	rlf	(mode2@temperature_raw+3),f
  3374  034F  0BA4               	decfsz	(??_mode2+0)+0
  3375  0350  2B4A               	goto	u2115
  3376                           	line	440
  3377                           	
  3378  0351                     l2541:	
  3379                           ;PR22.c: 440: temperature_raw += i2c_master_rcvb[5];
  3380  0351  0843               	movf	0+(_i2c_master_rcvb)+05h,w
  3381  0352  00A4               	movwf	(??_mode2+0)+0
  3382  0353  01A5               	clrf	((??_mode2+0)+0+1)
  3383  0354  01A6               	clrf	((??_mode2+0)+0+2)
  3384  0355  01A7               	clrf	((??_mode2+0)+0+3)
  3385  0356  0824               	movf	0+(??_mode2+0)+0,w
  3386  0357  07AD               	addwf	(mode2@temperature_raw),f
  3387  0358  0825               	movf	1+(??_mode2+0)+0,w
  3388  0359  1103               	clrz
  3389  035A  1803               	skipnc
  3390  035B  3E01               	addlw	1
  3391  035C  1903               	skipnz
  3392  035D  2B5F               	goto	u2121
  3393  035E  07AE               	addwf	(mode2@temperature_raw+1),f
  3394  035F                     u2121:
  3395  035F  0826               	movf	2+(??_mode2+0)+0,w
  3396  0360  1103               	clrz
  3397  0361  1803               	skipnc
  3398  0362  3E01               	addlw	1
  3399  0363  1903               	skipnz
  3400  0364  2B66               	goto	u2122
  3401  0365  07AF               	addwf	(mode2@temperature_raw+2),f
  3402  0366                     u2122:
  3403  0366  0827               	movf	3+(??_mode2+0)+0,w
  3404  0367  1103               	clrz
  3405  0368  1803               	skipnc
  3406  0369  3E01               	addlw	1
  3407  036A  1903               	skipnz
  3408  036B  2B6D               	goto	u2123
  3409  036C  07B0               	addwf	(mode2@temperature_raw+3),f
  3410  036D                     u2123:
  3411                           
  3412                           	line	441
  3413                           	
  3414  036D                     l2543:	
  3415                           ;PR22.c: 441: temperature_raw <<= 8;
  3416  036D  3008               	movlw	08h
  3417  036E  00A4               	movwf	(??_mode2+0)+0
  3418  036F                     u2135:
  3419  036F  1003               	clrc
  3420  0370  0DAD               	rlf	(mode2@temperature_raw),f
  3421  0371  0DAE               	rlf	(mode2@temperature_raw+1),f
  3422  0372  0DAF               	rlf	(mode2@temperature_raw+2),f
  3423  0373  0DB0               	rlf	(mode2@temperature_raw+3),f
  3424  0374  0BA4               	decfsz	(??_mode2+0)+0
  3425  0375  2B6F               	goto	u2135
  3426                           	line	442
  3427                           	
  3428  0376                     l2545:	
  3429                           ;PR22.c: 442: temperature_raw += i2c_master_rcvb[6];
  3430  0376  0844               	movf	0+(_i2c_master_rcvb)+06h,w
  3431  0377  00A4               	movwf	(??_mode2+0)+0
  3432  0378  01A5               	clrf	((??_mode2+0)+0+1)
  3433  0379  01A6               	clrf	((??_mode2+0)+0+2)
  3434  037A  01A7               	clrf	((??_mode2+0)+0+3)
  3435  037B  0824               	movf	0+(??_mode2+0)+0,w
  3436  037C  07AD               	addwf	(mode2@temperature_raw),f
  3437  037D  0825               	movf	1+(??_mode2+0)+0,w
  3438  037E  1103               	clrz
  3439  037F  1803               	skipnc
  3440  0380  3E01               	addlw	1
  3441  0381  1903               	skipnz
  3442  0382  2B84               	goto	u2141
  3443  0383  07AE               	addwf	(mode2@temperature_raw+1),f
  3444  0384                     u2141:
  3445  0384  0826               	movf	2+(??_mode2+0)+0,w
  3446  0385  1103               	clrz
  3447  0386  1803               	skipnc
  3448  0387  3E01               	addlw	1
  3449  0388  1903               	skipnz
  3450  0389  2B8B               	goto	u2142
  3451  038A  07AF               	addwf	(mode2@temperature_raw+2),f
  3452  038B                     u2142:
  3453  038B  0827               	movf	3+(??_mode2+0)+0,w
  3454  038C  1103               	clrz
  3455  038D  1803               	skipnc
  3456  038E  3E01               	addlw	1
  3457  038F  1903               	skipnz
  3458  0390  2B92               	goto	u2143
  3459  0391  07B0               	addwf	(mode2@temperature_raw+3),f
  3460  0392                     u2143:
  3461                           
  3462                           	line	443
  3463                           	
  3464  0392                     l2547:	
  3465                           ;PR22.c: 443: temperature = (temperature_raw / 2048) - 4096;
  3466  0392  082D               	movf	(mode2@temperature_raw),w
  3467  0393  00A4               	movwf	(??_mode2+0)+0
  3468  0394  082E               	movf	(mode2@temperature_raw+1),w
  3469  0395  00A5               	movwf	((??_mode2+0)+0+1)
  3470  0396  082F               	movf	(mode2@temperature_raw+2),w
  3471  0397  00A6               	movwf	((??_mode2+0)+0+2)
  3472  0398  0830               	movf	(mode2@temperature_raw+3),w
  3473  0399  00A7               	movwf	((??_mode2+0)+0+3)
  3474  039A  300B               	movlw	0Bh
  3475  039B                     u2155:
  3476  039B  1003               	clrc
  3477  039C  0CA7               	rrf	(??_mode2+0)+3,f
  3478  039D  0CA6               	rrf	(??_mode2+0)+2,f
  3479  039E  0CA5               	rrf	(??_mode2+0)+1,f
  3480  039F  0CA4               	rrf	(??_mode2+0)+0,f
  3481  03A0                     u2150:
  3482  03A0  3EFF               	addlw	-1
  3483  03A1  1D03               	skipz
  3484  03A2  2B9B               	goto	u2155
  3485  03A3  0824               	movf	0+(??_mode2+0)+0,w
  3486  03A4  00A8               	movwf	(??_mode2+4)+0
  3487  03A5  0828               	movf	(??_mode2+4)+0,w
  3488  03A6  00B1               	movwf	(mode2@temperature)
  3489                           	line	446
  3490                           	
  3491  03A7                     l2549:	
  3492                           ;PR22.c: 446: lcd_goto(6);
  3493  03A7  3006               	movlw	(06h)
  3494  03A8  120A  158A  21AA   	fcall	_lcd_goto
              120A  118A         
  3495                           	line	447
  3496                           	
  3497  03AD                     l2551:	
  3498                           ;PR22.c: 447: if(capacitance >= 8191)
  3499  03AD  301F               	movlw	high(01FFFh)
  3500  03AE  1283               	bcf	status, 5	;RP0=0, select bank0
  3501  03AF  1303               	bcf	status, 6	;RP1=0, select bank0
  3502  03B0  0234               	subwf	(mode2@capacitance+1),w
  3503  03B1  30FF               	movlw	low(01FFFh)
  3504  03B2  1903               	skipnz
  3505  03B3  0233               	subwf	(mode2@capacitance),w
  3506  03B4  1C03               	skipc
  3507  03B5  2BB7               	goto	u2161
  3508  03B6  2BB8               	goto	u2160
  3509  03B7                     u2161:
  3510  03B7  2BBF               	goto	l2555
  3511  03B8                     u2160:
  3512                           	line	448
  3513                           	
  3514  03B8                     l2553:	
  3515                           ;PR22.c: 448: send_string("Saturated");
  3516  03B8  307F               	movlw	((STR_23-__stringbase))&0ffh
  3517  03B9  120A  158A  2211   	fcall	_send_string
              120A  118A         
  3518  03BE  2C4A               	goto	l2559
  3519                           	line	449
  3520                           	
  3521  03BF                     l178:	
  3522                           	line	451
  3523                           	
  3524  03BF                     l2555:	
  3525                           ;PR22.c: 449: else
  3526                           ;PR22.c: 450: {
  3527                           ;PR22.c: 451: send_char('0' + capacitance / 1000);
  3528  03BF  30E8               	movlw	low(03E8h)
  3529  03C0  00F6               	movwf	(?___lwdiv)
  3530  03C1  3003               	movlw	high(03E8h)
  3531  03C2  00F7               	movwf	((?___lwdiv))+1
  3532  03C3  1283               	bcf	status, 5	;RP0=0, select bank0
  3533  03C4  1303               	bcf	status, 6	;RP1=0, select bank0
  3534  03C5  0834               	movf	(mode2@capacitance+1),w
  3535  03C6  01F9               	clrf	1+(?___lwdiv)+02h
  3536  03C7  07F9               	addwf	1+(?___lwdiv)+02h
  3537  03C8  0833               	movf	(mode2@capacitance),w
  3538  03C9  01F8               	clrf	0+(?___lwdiv)+02h
  3539  03CA  07F8               	addwf	0+(?___lwdiv)+02h
  3540                           
  3541  03CB  120A  158A  22AB   	fcall	___lwdiv
              120A  118A         
  3542  03D0  0876               	movf	(0+(?___lwdiv)),w
  3543  03D1  3E30               	addlw	030h
  3544  03D2  120A  158A  21C7   	fcall	_send_char
              120A  118A         
  3545                           	line	452
  3546                           ;PR22.c: 452: send_char('.');
  3547  03D7  302E               	movlw	(02Eh)
  3548  03D8  120A  158A  21C7   	fcall	_send_char
              120A  118A         
  3549                           	line	453
  3550                           ;PR22.c: 453: send_char('0' + (capacitance % 1000) / 100);
  3551  03DD  3064               	movlw	low(064h)
  3552  03DE  00F6               	movwf	(?___lwdiv)
  3553  03DF  3000               	movlw	high(064h)
  3554  03E0  00F7               	movwf	((?___lwdiv))+1
  3555  03E1  1283               	bcf	status, 5	;RP0=0, select bank0
  3556  03E2  1303               	bcf	status, 6	;RP1=0, select bank0
  3557  03E3  0834               	movf	(mode2@capacitance+1),w
  3558  03E4  01F3               	clrf	1+(?___lwmod)+02h
  3559  03E5  07F3               	addwf	1+(?___lwmod)+02h
  3560  03E6  0833               	movf	(mode2@capacitance),w
  3561  03E7  01F2               	clrf	0+(?___lwmod)+02h
  3562  03E8  07F2               	addwf	0+(?___lwmod)+02h
  3563                           
  3564  03E9  30E8               	movlw	low(03E8h)
  3565  03EA  00F0               	movwf	(?___lwmod)
  3566  03EB  3003               	movlw	high(03E8h)
  3567  03EC  00F1               	movwf	((?___lwmod))+1
  3568  03ED  120A  158A  2267   	fcall	___lwmod
              120A  118A         
  3569  03F2  0871               	movf	(1+(?___lwmod)),w
  3570  03F3  01F9               	clrf	1+(?___lwdiv)+02h
  3571  03F4  07F9               	addwf	1+(?___lwdiv)+02h
  3572  03F5  0870               	movf	(0+(?___lwmod)),w
  3573  03F6  01F8               	clrf	0+(?___lwdiv)+02h
  3574  03F7  07F8               	addwf	0+(?___lwdiv)+02h
  3575                           
  3576  03F8  120A  158A  22AB   	fcall	___lwdiv
              120A  118A         
  3577  03FD  0876               	movf	(0+(?___lwdiv)),w
  3578  03FE  3E30               	addlw	030h
  3579  03FF  120A  158A  21C7   	fcall	_send_char
              120A  118A         
  3580                           	line	454
  3581                           ;PR22.c: 454: send_char('0' + (capacitance % 100) / 10);
  3582  0404  300A               	movlw	low(0Ah)
  3583  0405  00F6               	movwf	(?___lwdiv)
  3584  0406  3000               	movlw	high(0Ah)
  3585  0407  00F7               	movwf	((?___lwdiv))+1
  3586  0408  1283               	bcf	status, 5	;RP0=0, select bank0
  3587  0409  1303               	bcf	status, 6	;RP1=0, select bank0
  3588  040A  0834               	movf	(mode2@capacitance+1),w
  3589  040B  01F3               	clrf	1+(?___lwmod)+02h
  3590  040C  07F3               	addwf	1+(?___lwmod)+02h
  3591  040D  0833               	movf	(mode2@capacitance),w
  3592  040E  01F2               	clrf	0+(?___lwmod)+02h
  3593  040F  07F2               	addwf	0+(?___lwmod)+02h
  3594                           
  3595  0410  3064               	movlw	low(064h)
  3596  0411  00F0               	movwf	(?___lwmod)
  3597  0412  3000               	movlw	high(064h)
  3598  0413  00F1               	movwf	((?___lwmod))+1
  3599  0414  120A  158A  2267   	fcall	___lwmod
              120A  118A         
  3600  0419  0871               	movf	(1+(?___lwmod)),w
  3601  041A  01F9               	clrf	1+(?___lwdiv)+02h
  3602  041B  07F9               	addwf	1+(?___lwdiv)+02h
  3603  041C  0870               	movf	(0+(?___lwmod)),w
  3604  041D  01F8               	clrf	0+(?___lwdiv)+02h
  3605  041E  07F8               	addwf	0+(?___lwdiv)+02h
  3606                           
  3607  041F  120A  158A  22AB   	fcall	___lwdiv
              120A  118A         
  3608  0424  0876               	movf	(0+(?___lwdiv)),w
  3609  0425  3E30               	addlw	030h
  3610  0426  120A  158A  21C7   	fcall	_send_char
              120A  118A         
  3611                           	line	455
  3612                           ;PR22.c: 455: send_char('0' + (capacitance % 10));
  3613  042B  300A               	movlw	low(0Ah)
  3614  042C  00F0               	movwf	(?___lwmod)
  3615  042D  3000               	movlw	high(0Ah)
  3616  042E  00F1               	movwf	((?___lwmod))+1
  3617  042F  1283               	bcf	status, 5	;RP0=0, select bank0
  3618  0430  1303               	bcf	status, 6	;RP1=0, select bank0
  3619  0431  0834               	movf	(mode2@capacitance+1),w
  3620  0432  01F3               	clrf	1+(?___lwmod)+02h
  3621  0433  07F3               	addwf	1+(?___lwmod)+02h
  3622  0434  0833               	movf	(mode2@capacitance),w
  3623  0435  01F2               	clrf	0+(?___lwmod)+02h
  3624  0436  07F2               	addwf	0+(?___lwmod)+02h
  3625                           
  3626  0437  120A  158A  2267   	fcall	___lwmod
              120A  118A         
  3627  043C  0870               	movf	(0+(?___lwmod)),w
  3628  043D  3E30               	addlw	030h
  3629  043E  120A  158A  21C7   	fcall	_send_char
              120A  118A         
  3630                           	line	456
  3631                           	
  3632  0443                     l2557:	
  3633                           ;PR22.c: 456: send_string("pF  ");
  3634  0443  30C4               	movlw	((STR_24-__stringbase))&0ffh
  3635  0444  120A  158A  2211   	fcall	_send_string
              120A  118A         
  3636  0449  2C4A               	goto	l2559
  3637                           	line	457
  3638                           	
  3639  044A                     l179:	
  3640                           	line	460
  3641                           	
  3642  044A                     l2559:	
  3643                           ;PR22.c: 457: }
  3644                           ;PR22.c: 460: lcd_goto(26);
  3645  044A  301A               	movlw	(01Ah)
  3646  044B  120A  158A  21AA   	fcall	_lcd_goto
              120A  118A         
  3647                           	line	461
  3648                           	
  3649  0450                     l2561:	
  3650                           ;PR22.c: 461: send_char('0' + (temperature % 100) / 10);
  3651  0450  300A               	movlw	low(0Ah)
  3652  0451  00F7               	movwf	(?___awdiv)
  3653  0452  3000               	movlw	high(0Ah)
  3654  0453  00F8               	movwf	((?___awdiv))+1
  3655  0454  1283               	bcf	status, 5	;RP0=0, select bank0
  3656  0455  1303               	bcf	status, 6	;RP1=0, select bank0
  3657  0456  0831               	movf	(mode2@temperature),w
  3658  0457  00A4               	movwf	(??_mode2+0)+0+0
  3659  0458  01A5               	clrf	(??_mode2+0)+0+1
  3660  0459  0824               	movf	0+(??_mode2+0)+0,w
  3661  045A  00F2               	movwf	0+(?___awmod)+02h
  3662  045B  0825               	movf	1+(??_mode2+0)+0,w
  3663  045C  00F3               	movwf	1+(?___awmod)+02h
  3664  045D  3064               	movlw	low(064h)
  3665  045E  00F0               	movwf	(?___awmod)
  3666  045F  3000               	movlw	high(064h)
  3667  0460  00F1               	movwf	((?___awmod))+1
  3668  0461  120A  158A  23F8   	fcall	___awmod
              120A  118A         
  3669  0466  0871               	movf	(1+(?___awmod)),w
  3670  0467  01FA               	clrf	1+(?___awdiv)+02h
  3671  0468  07FA               	addwf	1+(?___awdiv)+02h
  3672  0469  0870               	movf	(0+(?___awmod)),w
  3673  046A  01F9               	clrf	0+(?___awdiv)+02h
  3674  046B  07F9               	addwf	0+(?___awdiv)+02h
  3675                           
  3676  046C  120A  158A  24CC   	fcall	___awdiv
              120A  118A         
  3677  0471  0877               	movf	(0+(?___awdiv)),w
  3678  0472  3E30               	addlw	030h
  3679  0473  120A  158A  21C7   	fcall	_send_char
              120A  118A         
  3680                           	line	462
  3681                           	
  3682  0478                     l2563:	
  3683                           ;PR22.c: 462: send_char('0' + (temperature % 10));
  3684  0478  300A               	movlw	low(0Ah)
  3685  0479  00F0               	movwf	(?___awmod)
  3686  047A  3000               	movlw	high(0Ah)
  3687  047B  00F1               	movwf	((?___awmod))+1
  3688  047C  1283               	bcf	status, 5	;RP0=0, select bank0
  3689  047D  1303               	bcf	status, 6	;RP1=0, select bank0
  3690  047E  0831               	movf	(mode2@temperature),w
  3691  047F  00A4               	movwf	(??_mode2+0)+0+0
  3692  0480  01A5               	clrf	(??_mode2+0)+0+1
  3693  0481  0824               	movf	0+(??_mode2+0)+0,w
  3694  0482  00F2               	movwf	0+(?___awmod)+02h
  3695  0483  0825               	movf	1+(??_mode2+0)+0,w
  3696  0484  00F3               	movwf	1+(?___awmod)+02h
  3697  0485  120A  158A  23F8   	fcall	___awmod
              120A  118A         
  3698  048A  0870               	movf	(0+(?___awmod)),w
  3699  048B  3E30               	addlw	030h
  3700  048C  120A  158A  21C7   	fcall	_send_char
              120A  118A         
  3701                           	line	463
  3702                           	
  3703  0491                     l2565:	
  3704                           ;PR22.c: 463: send_char('C');
  3705  0491  3043               	movlw	(043h)
  3706  0492  120A  158A  21C7   	fcall	_send_char
              120A  118A         
  3707                           	line	465
  3708                           	
  3709  0497                     l2567:	
  3710                           ;PR22.c: 465: delay(10000);
  3711  0497  3000               	movlw	0
  3712  0498  00F3               	movwf	(?_delay+3)
  3713  0499  3000               	movlw	0
  3714  049A  00F2               	movwf	(?_delay+2)
  3715  049B  3027               	movlw	027h
  3716  049C  00F1               	movwf	(?_delay+1)
  3717  049D  3010               	movlw	010h
  3718  049E  00F0               	movwf	(?_delay)
  3719                           
  3720  049F  120A  158A  2237   	fcall	_delay
              120A  118A         
  3721  04A4  2CA5               	goto	l2569
  3722                           	line	466
  3723                           	
  3724  04A5                     l174:	
  3725                           	line	409
  3726                           	
  3727  04A5                     l2569:	
  3728  04A5  1283               	bcf	status, 5	;RP0=0, select bank0
  3729  04A6  1303               	bcf	status, 6	;RP1=0, select bank0
  3730  04A7  1905               	btfsc	(42/8),(42)&7	;volatile
  3731  04A8  2CAA               	goto	u2171
  3732  04A9  2CAB               	goto	u2170
  3733  04AA                     u2171:
  3734  04AA  2AA8               	goto	l2519
  3735  04AB                     u2170:
  3736  04AB  2CAC               	goto	l2571
  3737                           	
  3738  04AC                     l180:	
  3739                           	line	468
  3740                           	
  3741  04AC                     l2571:	
  3742                           ;PR22.c: 466: }
  3743                           ;PR22.c: 468: delay(10000);
  3744  04AC  3000               	movlw	0
  3745  04AD  00F3               	movwf	(?_delay+3)
  3746  04AE  3000               	movlw	0
  3747  04AF  00F2               	movwf	(?_delay+2)
  3748  04B0  3027               	movlw	027h
  3749  04B1  00F1               	movwf	(?_delay+1)
  3750  04B2  3010               	movlw	010h
  3751  04B3  00F0               	movwf	(?_delay)
  3752                           
  3753  04B4  120A  158A  2237   	fcall	_delay
              120A  118A         
  3754                           	line	469
  3755                           ;PR22.c: 469: while(!RA2);
  3756  04B9  2CBA               	goto	l181
  3757                           	
  3758  04BA                     l182:	
  3759                           	
  3760  04BA                     l181:	
  3761  04BA  1283               	bcf	status, 5	;RP0=0, select bank0
  3762  04BB  1303               	bcf	status, 6	;RP1=0, select bank0
  3763  04BC  1D05               	btfss	(42/8),(42)&7	;volatile
  3764  04BD  2CBF               	goto	u2181
  3765  04BE  2CC0               	goto	u2180
  3766  04BF                     u2181:
  3767  04BF  2CBA               	goto	l181
  3768  04C0                     u2180:
  3769  04C0  2CC1               	goto	l2573
  3770                           	
  3771  04C1                     l183:	
  3772                           	line	470
  3773                           	
  3774  04C1                     l2573:	
  3775                           ;PR22.c: 470: delay(10000);
  3776  04C1  3000               	movlw	0
  3777  04C2  00F3               	movwf	(?_delay+3)
  3778  04C3  3000               	movlw	0
  3779  04C4  00F2               	movwf	(?_delay+2)
  3780  04C5  3027               	movlw	027h
  3781  04C6  00F1               	movwf	(?_delay+1)
  3782  04C7  3010               	movlw	010h
  3783  04C8  00F0               	movwf	(?_delay)
  3784                           
  3785  04C9  120A  158A  2237   	fcall	_delay
              120A  118A         
  3786                           	line	471
  3787                           	
  3788  04CE                     l172:	
  3789  04CE  0008               	return
  3790                           	opt stack 0
  3791                           GLOBAL	__end_of_mode2
  3792  04CF                     	__end_of_mode2:
  3793                           	signat	_mode2,88
  3794                           	global	_mode3
  3795                           
  3796 ;; *************** function _mode3 *****************
  3797 ;; Defined at:
  3798 ;;		line 474 in file "PR22.c"
  3799 ;; Parameters:    Size  Location     Type
  3800 ;;		None
  3801 ;; Auto vars:     Size  Location     Type
  3802 ;;  pressure        4   14[BANK0 ] unsigned long 
  3803 ;;  pressure_raw    4   10[BANK0 ] unsigned long 
  3804 ;;  temperature     2   20[BANK0 ] unsigned int 
  3805 ;;  temp            2   18[BANK0 ] unsigned int 
  3806 ;;  temperature_    2    8[BANK0 ] unsigned int 
  3807 ;; Return value:  Size  Location     Type
  3808 ;;		None               void
  3809 ;; Registers used:
  3810 ;;		wreg, fsr0l, fsr0h, status,2, status,0, btemp+1, pclath, cstack
  3811 ;; Tracked objects:
  3812 ;;		On entry : 0/0
  3813 ;;		On exit  : 0/0
  3814 ;;		Unchanged: 0/0
  3815 ;; Data sizes:     COMMON   BANK0   BANK1   BANK3   BANK2
  3816 ;;      Params:         0       0       0       0       0
  3817 ;;      Locals:         0      14       0       0       0
  3818 ;;      Temps:          0       4       0       0       0
  3819 ;;      Totals:         0      18       0       0       0
  3820 ;;Total ram usage:       18 bytes
  3821 ;; Hardware stack levels used:    1
  3822 ;; Hardware stack levels required when called:    3
  3823 ;; This function calls:
  3824 ;;		_spi_baro
  3825 ;;		_lcd_clr
  3826 ;;		_lcd_goto
  3827 ;;		_send_string
  3828 ;;		___lldiv
  3829 ;;		___lwmod
  3830 ;;		___lwdiv
  3831 ;;		_send_char
  3832 ;;		___llmod
  3833 ;;		_delay
  3834 ;; This function is called by:
  3835 ;;		_main
  3836 ;; This function uses a non-reentrant model
  3837 ;;
  3838                           psect	text351,local,class=CODE,delta=2,merge=1
  3839                           global __ptext351
  3840  0D42                     __ptext351:
  3841                           psect	text351
  3842                           	file	"PR22.c"
  3843                           	line	474
  3844                           	global	__size_of_mode3
  3845  02BE                     	__size_of_mode3	equ	__end_of_mode3-_mode3
  3846                           	
  3847  0D42                     _mode3:	
  3848                           	opt	stack 4
  3849                           ; Regs used in _mode3: [wreg-fsr0h+status,2+status,0+btemp+1+pclath+cstack]
  3850                           	line	481
  3851                           	
  3852  0D42                     l2575:	
  3853                           ;PR22.c: 475: unsigned int temp;
  3854                           ;PR22.c: 476: unsigned int temperature;
  3855                           ;PR22.c: 477: unsigned int temperature_raw;
  3856                           ;PR22.c: 478: unsigned long pressure;
  3857                           ;PR22.c: 479: unsigned long pressure_raw;
  3858                           ;PR22.c: 481: spi_baro(0x03, 0x09, 0);
  3859  0D42  3009               	movlw	(09h)
  3860  0D43  1283               	bcf	status, 5	;RP0=0, select bank0
  3861  0D44  1303               	bcf	status, 6	;RP1=0, select bank0
  3862  0D45  00A4               	movwf	(??_mode3+0)+0
  3863  0D46  0824               	movf	(??_mode3+0)+0,w
  3864  0D47  00A0               	movwf	(?_spi_baro)
  3865  0D48  3000               	movlw	low(0)
  3866  0D49  00A1               	movwf	0+(?_spi_baro)+01h
  3867  0D4A  3000               	movlw	high(0)
  3868  0D4B  00A2               	movwf	(0+(?_spi_baro)+01h)+1
  3869  0D4C  3003               	movlw	(03h)
  3870  0D4D  120A  158A  22F9   	fcall	_spi_baro
              120A  158A         
  3871                           	line	482
  3872                           ;PR22.c: 482: lcd_clr();
  3873  0D52  120A  158A  2196   	fcall	_lcd_clr
              120A  158A         
  3874                           	line	483
  3875                           ;PR22.c: 483: lcd_goto(0);
  3876  0D57  3000               	movlw	(0)
  3877  0D58  120A  158A  21AA   	fcall	_lcd_goto
              120A  158A         
  3878                           	line	484
  3879                           	
  3880  0D5D                     l2577:	
  3881                           ;PR22.c: 484: send_string("Pre.:");
  3882  0D5D  30B2               	movlw	((STR_25-__stringbase))&0ffh
  3883  0D5E  120A  158A  2211   	fcall	_send_string
              120A  158A         
  3884                           	line	485
  3885                           	
  3886  0D63                     l2579:	
  3887                           ;PR22.c: 485: lcd_goto(20);
  3888  0D63  3014               	movlw	(014h)
  3889  0D64  120A  158A  21AA   	fcall	_lcd_goto
              120A  158A         
  3890                           	line	486
  3891                           ;PR22.c: 486: send_string("Tem.:");
  3892  0D69  30B8               	movlw	((STR_26-__stringbase))&0ffh
  3893  0D6A  120A  158A  2211   	fcall	_send_string
              120A  158A         
  3894                           	line	488
  3895                           ;PR22.c: 488: while(RA2)
  3896  0D6F  2FCB               	goto	l2635
  3897                           	
  3898  0D70                     l187:	
  3899  0D70  2D71               	goto	l2581
  3900                           	line	490
  3901                           ;PR22.c: 489: {
  3902                           ;PR22.c: 490: do
  3903                           	
  3904  0D71                     l188:	
  3905                           	line	491
  3906                           	
  3907  0D71                     l2581:	
  3908                           ;PR22.c: 491: spi_baro(0x07, 0, 1);
  3909  0D71  1283               	bcf	status, 5	;RP0=0, select bank0
  3910  0D72  1303               	bcf	status, 6	;RP1=0, select bank0
  3911  0D73  01A0               	clrf	(?_spi_baro)
  3912  0D74  3001               	movlw	low(01h)
  3913  0D75  00A1               	movwf	0+(?_spi_baro)+01h
  3914  0D76  3000               	movlw	high(01h)
  3915  0D77  00A2               	movwf	(0+(?_spi_baro)+01h)+1
  3916  0D78  3007               	movlw	(07h)
  3917  0D79  120A  158A  22F9   	fcall	_spi_baro
              120A  158A         
  3918                           	line	492
  3919                           	
  3920  0D7E                     l2583:	
  3921                           ;PR22.c: 492: while(!(0b00100000 & spi_baro_rcvb[0]));
  3922  0D7E  1283               	bcf	status, 5	;RP0=0, select bank0
  3923  0D7F  1303               	bcf	status, 6	;RP1=0, select bank0
  3924  0D80  1EC6               	btfss	(_spi_baro_rcvb),(5)&7
  3925  0D81  2D83               	goto	u2191
  3926  0D82  2D84               	goto	u2190
  3927  0D83                     u2191:
  3928  0D83  2D71               	goto	l2581
  3929  0D84                     u2190:
  3930  0D84  2D85               	goto	l2585
  3931                           	
  3932  0D85                     l189:	
  3933                           	line	495
  3934                           	
  3935  0D85                     l2585:	
  3936                           ;PR22.c: 495: spi_baro(0x1F, 0, 1);
  3937  0D85  01A0               	clrf	(?_spi_baro)
  3938  0D86  3001               	movlw	low(01h)
  3939  0D87  00A1               	movwf	0+(?_spi_baro)+01h
  3940  0D88  3000               	movlw	high(01h)
  3941  0D89  00A2               	movwf	(0+(?_spi_baro)+01h)+1
  3942  0D8A  301F               	movlw	(01Fh)
  3943  0D8B  120A  158A  22F9   	fcall	_spi_baro
              120A  158A         
  3944                           	line	496
  3945                           	
  3946  0D90                     l2587:	
  3947                           ;PR22.c: 496: pressure_raw = (0b00000111 & spi_baro_rcvb[0]);
  3948  0D90  1283               	bcf	status, 5	;RP0=0, select bank0
  3949  0D91  1303               	bcf	status, 6	;RP1=0, select bank0
  3950  0D92  0846               	movf	(_spi_baro_rcvb),w
  3951  0D93  3907               	andlw	07h
  3952  0D94  00A4               	movwf	(??_mode3+0)+0
  3953  0D95  01A5               	clrf	((??_mode3+0)+0+1)
  3954  0D96  01A6               	clrf	((??_mode3+0)+0+2)
  3955  0D97  01A7               	clrf	((??_mode3+0)+0+3)
  3956  0D98  0827               	movf	3+(??_mode3+0)+0,w
  3957  0D99  00AD               	movwf	(mode3@pressure_raw+3)
  3958  0D9A  0826               	movf	2+(??_mode3+0)+0,w
  3959  0D9B  00AC               	movwf	(mode3@pressure_raw+2)
  3960  0D9C  0825               	movf	1+(??_mode3+0)+0,w
  3961  0D9D  00AB               	movwf	(mode3@pressure_raw+1)
  3962  0D9E  0824               	movf	0+(??_mode3+0)+0,w
  3963  0D9F  00AA               	movwf	(mode3@pressure_raw)
  3964                           
  3965                           	line	497
  3966                           	
  3967  0DA0                     l2589:	
  3968                           ;PR22.c: 497: pressure_raw <<= 16;
  3969  0DA0  3010               	movlw	010h
  3970  0DA1  00A4               	movwf	(??_mode3+0)+0
  3971  0DA2                     u2205:
  3972  0DA2  1003               	clrc
  3973  0DA3  0DAA               	rlf	(mode3@pressure_raw),f
  3974  0DA4  0DAB               	rlf	(mode3@pressure_raw+1),f
  3975  0DA5  0DAC               	rlf	(mode3@pressure_raw+2),f
  3976  0DA6  0DAD               	rlf	(mode3@pressure_raw+3),f
  3977  0DA7  0BA4               	decfsz	(??_mode3+0)+0
  3978  0DA8  2DA2               	goto	u2205
  3979                           	line	498
  3980                           	
  3981  0DA9                     l2591:	
  3982                           ;PR22.c: 498: spi_baro(0x20, 0, 1);
  3983  0DA9  01A0               	clrf	(?_spi_baro)
  3984  0DAA  3001               	movlw	low(01h)
  3985  0DAB  00A1               	movwf	0+(?_spi_baro)+01h
  3986  0DAC  3000               	movlw	high(01h)
  3987  0DAD  00A2               	movwf	(0+(?_spi_baro)+01h)+1
  3988  0DAE  3020               	movlw	(020h)
  3989  0DAF  120A  158A  22F9   	fcall	_spi_baro
              120A  158A         
  3990                           	line	499
  3991                           	
  3992  0DB4                     l2593:	
  3993                           ;PR22.c: 499: pressure_raw += ((spi_baro_rcvb[0] << 8) + spi_baro_rcvb[1]);
  3994  0DB4  1283               	bcf	status, 5	;RP0=0, select bank0
  3995  0DB5  1303               	bcf	status, 6	;RP1=0, select bank0
  3996  0DB6  0847               	movf	0+(_spi_baro_rcvb)+01h,w
  3997  0DB7  00A4               	movwf	((??_mode3+0)+0)
  3998  0DB8  0846               	movf	(_spi_baro_rcvb),w
  3999  0DB9  00A5               	movwf	((??_mode3+0)+0+1)
  4000  0DBA  3000               	movlw	0
  4001  0DBB  1BA5               	btfsc	((??_mode3+0)+0+1),7
  4002  0DBC  30FF               	movlw	255
  4003  0DBD  00A6               	movwf	((??_mode3+0)+0+2)
  4004  0DBE  00A7               	movwf	((??_mode3+0)+0+3)
  4005  0DBF  0824               	movf	0+(??_mode3+0)+0,w
  4006  0DC0  07AA               	addwf	(mode3@pressure_raw),f
  4007  0DC1  0825               	movf	1+(??_mode3+0)+0,w
  4008  0DC2  1103               	clrz
  4009  0DC3  1803               	skipnc
  4010  0DC4  3E01               	addlw	1
  4011  0DC5  1903               	skipnz
  4012  0DC6  2DC8               	goto	u2211
  4013  0DC7  07AB               	addwf	(mode3@pressure_raw+1),f
  4014  0DC8                     u2211:
  4015  0DC8  0826               	movf	2+(??_mode3+0)+0,w
  4016  0DC9  1103               	clrz
  4017  0DCA  1803               	skipnc
  4018  0DCB  3E01               	addlw	1
  4019  0DCC  1903               	skipnz
  4020  0DCD  2DCF               	goto	u2212
  4021  0DCE  07AC               	addwf	(mode3@pressure_raw+2),f
  4022  0DCF                     u2212:
  4023  0DCF  0827               	movf	3+(??_mode3+0)+0,w
  4024  0DD0  1103               	clrz
  4025  0DD1  1803               	skipnc
  4026  0DD2  3E01               	addlw	1
  4027  0DD3  1903               	skipnz
  4028  0DD4  2DD6               	goto	u2213
  4029  0DD5  07AD               	addwf	(mode3@pressure_raw+3),f
  4030  0DD6                     u2213:
  4031                           
  4032                           	line	502
  4033                           	
  4034  0DD6                     l2595:	
  4035                           ;PR22.c: 502: spi_baro(0x21, 0, 1);
  4036  0DD6  01A0               	clrf	(?_spi_baro)
  4037  0DD7  3001               	movlw	low(01h)
  4038  0DD8  00A1               	movwf	0+(?_spi_baro)+01h
  4039  0DD9  3000               	movlw	high(01h)
  4040  0DDA  00A2               	movwf	(0+(?_spi_baro)+01h)+1
  4041  0DDB  3021               	movlw	(021h)
  4042  0DDC  120A  158A  22F9   	fcall	_spi_baro
              120A  158A         
  4043                           	line	503
  4044                           	
  4045  0DE1                     l2597:	
  4046                           ;PR22.c: 503: temperature_raw = (spi_baro_rcvb[0] << 8) + spi_baro_rcvb[1];
  4047  0DE1  1283               	bcf	status, 5	;RP0=0, select bank0
  4048  0DE2  1303               	bcf	status, 6	;RP1=0, select bank0
  4049  0DE3  0846               	movf	(_spi_baro_rcvb),w
  4050  0DE4  00A4               	movwf	(??_mode3+0)+0+0
  4051  0DE5  01A5               	clrf	(??_mode3+0)+0+1
  4052  0DE6  0824               	movf	(??_mode3+0)+0,w
  4053  0DE7  00A5               	movwf	(??_mode3+0)+1
  4054  0DE8  01A4               	clrf	(??_mode3+0)+0
  4055  0DE9  0847               	movf	0+(_spi_baro_rcvb)+01h,w
  4056  0DEA  0724               	addwf	0+(??_mode3+0)+0,w
  4057  0DEB  00A8               	movwf	(mode3@temperature_raw)
  4058  0DEC  3000               	movlw	0
  4059  0DED  1803               	skipnc
  4060  0DEE  3001               	movlw	1
  4061  0DEF  0725               	addwf	1+(??_mode3+0)+0,w
  4062  0DF0  00A9               	movwf	1+(mode3@temperature_raw)
  4063                           	line	506
  4064                           	
  4065  0DF1                     l2599:	
  4066                           ;PR22.c: 506: lcd_goto(6);
  4067  0DF1  3006               	movlw	(06h)
  4068  0DF2  120A  158A  21AA   	fcall	_lcd_goto
              120A  158A         
  4069                           	line	507
  4070                           	
  4071  0DF7                     l2601:	
  4072                           ;PR22.c: 507: pressure = pressure_raw >> 2;
  4073  0DF7  1283               	bcf	status, 5	;RP0=0, select bank0
  4074  0DF8  1303               	bcf	status, 6	;RP1=0, select bank0
  4075  0DF9  082A               	movf	(mode3@pressure_raw),w
  4076  0DFA  00A4               	movwf	(??_mode3+0)+0
  4077  0DFB  082B               	movf	(mode3@pressure_raw+1),w
  4078  0DFC  00A5               	movwf	((??_mode3+0)+0+1)
  4079  0DFD  082C               	movf	(mode3@pressure_raw+2),w
  4080  0DFE  00A6               	movwf	((??_mode3+0)+0+2)
  4081  0DFF  082D               	movf	(mode3@pressure_raw+3),w
  4082  0E00  00A7               	movwf	((??_mode3+0)+0+3)
  4083  0E01  3002               	movlw	02h
  4084  0E02                     u2225:
  4085  0E02  1003               	clrc
  4086  0E03  0CA7               	rrf	(??_mode3+0)+3,f
  4087  0E04  0CA6               	rrf	(??_mode3+0)+2,f
  4088  0E05  0CA5               	rrf	(??_mode3+0)+1,f
  4089  0E06  0CA4               	rrf	(??_mode3+0)+0,f
  4090  0E07                     u2220:
  4091  0E07  3EFF               	addlw	-1
  4092  0E08  1D03               	skipz
  4093  0E09  2E02               	goto	u2225
  4094  0E0A  0827               	movf	3+(??_mode3+0)+0,w
  4095  0E0B  00B1               	movwf	(mode3@pressure+3)
  4096  0E0C  0826               	movf	2+(??_mode3+0)+0,w
  4097  0E0D  00B0               	movwf	(mode3@pressure+2)
  4098  0E0E  0825               	movf	1+(??_mode3+0)+0,w
  4099  0E0F  00AF               	movwf	(mode3@pressure+1)
  4100  0E10  0824               	movf	0+(??_mode3+0)+0,w
  4101  0E11  00AE               	movwf	(mode3@pressure)
  4102                           
  4103                           	line	508
  4104                           	
  4105  0E12                     l2603:	
  4106                           ;PR22.c: 508: temp = pressure / 1000;
  4107  0E12  3000               	movlw	0
  4108  0E13  00F3               	movwf	(?___lldiv+3)
  4109  0E14  3000               	movlw	0
  4110  0E15  00F2               	movwf	(?___lldiv+2)
  4111  0E16  3003               	movlw	03h
  4112  0E17  00F1               	movwf	(?___lldiv+1)
  4113  0E18  30E8               	movlw	0E8h
  4114  0E19  00F0               	movwf	(?___lldiv)
  4115                           
  4116  0E1A  0831               	movf	(mode3@pressure+3),w
  4117  0E1B  00F7               	movwf	3+(?___lldiv)+04h
  4118  0E1C  0830               	movf	(mode3@pressure+2),w
  4119  0E1D  00F6               	movwf	2+(?___lldiv)+04h
  4120  0E1E  082F               	movf	(mode3@pressure+1),w
  4121  0E1F  00F5               	movwf	1+(?___lldiv)+04h
  4122  0E20  082E               	movf	(mode3@pressure),w
  4123  0E21  00F4               	movwf	0+(?___lldiv)+04h
  4124                           
  4125  0E22  120A  158A  245E   	fcall	___lldiv
              120A  158A         
  4126  0E27  0871               	movf	1+(((0+(?___lldiv)))),w
  4127  0E28  1283               	bcf	status, 5	;RP0=0, select bank0
  4128  0E29  1303               	bcf	status, 6	;RP1=0, select bank0
  4129  0E2A  01B3               	clrf	(mode3@temp+1)
  4130  0E2B  07B3               	addwf	(mode3@temp+1)
  4131  0E2C  0870               	movf	0+(((0+(?___lldiv)))),w
  4132  0E2D  01B2               	clrf	(mode3@temp)
  4133  0E2E  07B2               	addwf	(mode3@temp)
  4134                           
  4135                           	line	509
  4136                           	
  4137  0E2F                     l2605:	
  4138                           ;PR22.c: 509: send_char('0' + (temp % 1000) / 100);
  4139  0E2F  3064               	movlw	low(064h)
  4140  0E30  00F6               	movwf	(?___lwdiv)
  4141  0E31  3000               	movlw	high(064h)
  4142  0E32  00F7               	movwf	((?___lwdiv))+1
  4143  0E33  0833               	movf	(mode3@temp+1),w
  4144  0E34  01F3               	clrf	1+(?___lwmod)+02h
  4145  0E35  07F3               	addwf	1+(?___lwmod)+02h
  4146  0E36  0832               	movf	(mode3@temp),w
  4147  0E37  01F2               	clrf	0+(?___lwmod)+02h
  4148  0E38  07F2               	addwf	0+(?___lwmod)+02h
  4149                           
  4150  0E39  30E8               	movlw	low(03E8h)
  4151  0E3A  00F0               	movwf	(?___lwmod)
  4152  0E3B  3003               	movlw	high(03E8h)
  4153  0E3C  00F1               	movwf	((?___lwmod))+1
  4154  0E3D  120A  158A  2267   	fcall	___lwmod
              120A  158A         
  4155  0E42  0871               	movf	(1+(?___lwmod)),w
  4156  0E43  01F9               	clrf	1+(?___lwdiv)+02h
  4157  0E44  07F9               	addwf	1+(?___lwdiv)+02h
  4158  0E45  0870               	movf	(0+(?___lwmod)),w
  4159  0E46  01F8               	clrf	0+(?___lwdiv)+02h
  4160  0E47  07F8               	addwf	0+(?___lwdiv)+02h
  4161                           
  4162  0E48  120A  158A  22AB   	fcall	___lwdiv
              120A  158A         
  4163  0E4D  0876               	movf	(0+(?___lwdiv)),w
  4164  0E4E  3E30               	addlw	030h
  4165  0E4F  120A  158A  21C7   	fcall	_send_char
              120A  158A         
  4166                           	line	510
  4167                           	
  4168  0E54                     l2607:	
  4169                           ;PR22.c: 510: send_char('0' + (temp % 100) / 10);
  4170  0E54  300A               	movlw	low(0Ah)
  4171  0E55  00F6               	movwf	(?___lwdiv)
  4172  0E56  3000               	movlw	high(0Ah)
  4173  0E57  00F7               	movwf	((?___lwdiv))+1
  4174  0E58  1283               	bcf	status, 5	;RP0=0, select bank0
  4175  0E59  1303               	bcf	status, 6	;RP1=0, select bank0
  4176  0E5A  0833               	movf	(mode3@temp+1),w
  4177  0E5B  01F3               	clrf	1+(?___lwmod)+02h
  4178  0E5C  07F3               	addwf	1+(?___lwmod)+02h
  4179  0E5D  0832               	movf	(mode3@temp),w
  4180  0E5E  01F2               	clrf	0+(?___lwmod)+02h
  4181  0E5F  07F2               	addwf	0+(?___lwmod)+02h
  4182                           
  4183  0E60  3064               	movlw	low(064h)
  4184  0E61  00F0               	movwf	(?___lwmod)
  4185  0E62  3000               	movlw	high(064h)
  4186  0E63  00F1               	movwf	((?___lwmod))+1
  4187  0E64  120A  158A  2267   	fcall	___lwmod
              120A  158A         
  4188  0E69  0871               	movf	(1+(?___lwmod)),w
  4189  0E6A  01F9               	clrf	1+(?___lwdiv)+02h
  4190  0E6B  07F9               	addwf	1+(?___lwdiv)+02h
  4191  0E6C  0870               	movf	(0+(?___lwmod)),w
  4192  0E6D  01F8               	clrf	0+(?___lwdiv)+02h
  4193  0E6E  07F8               	addwf	0+(?___lwdiv)+02h
  4194                           
  4195  0E6F  120A  158A  22AB   	fcall	___lwdiv
              120A  158A         
  4196  0E74  0876               	movf	(0+(?___lwdiv)),w
  4197  0E75  3E30               	addlw	030h
  4198  0E76  120A  158A  21C7   	fcall	_send_char
              120A  158A         
  4199                           	line	511
  4200                           	
  4201  0E7B                     l2609:	
  4202                           ;PR22.c: 511: send_char('0' + (temp % 10));
  4203  0E7B  300A               	movlw	low(0Ah)
  4204  0E7C  00F0               	movwf	(?___lwmod)
  4205  0E7D  3000               	movlw	high(0Ah)
  4206  0E7E  00F1               	movwf	((?___lwmod))+1
  4207  0E7F  1283               	bcf	status, 5	;RP0=0, select bank0
  4208  0E80  1303               	bcf	status, 6	;RP1=0, select bank0
  4209  0E81  0833               	movf	(mode3@temp+1),w
  4210  0E82  01F3               	clrf	1+(?___lwmod)+02h
  4211  0E83  07F3               	addwf	1+(?___lwmod)+02h
  4212  0E84  0832               	movf	(mode3@temp),w
  4213  0E85  01F2               	clrf	0+(?___lwmod)+02h
  4214  0E86  07F2               	addwf	0+(?___lwmod)+02h
  4215                           
  4216  0E87  120A  158A  2267   	fcall	___lwmod
              120A  158A         
  4217  0E8C  0870               	movf	(0+(?___lwmod)),w
  4218  0E8D  3E30               	addlw	030h
  4219  0E8E  120A  158A  21C7   	fcall	_send_char
              120A  158A         
  4220                           	line	512
  4221                           	
  4222  0E93                     l2611:	
  4223                           ;PR22.c: 512: send_char('.');
  4224  0E93  302E               	movlw	(02Eh)
  4225  0E94  120A  158A  21C7   	fcall	_send_char
              120A  158A         
  4226                           	line	513
  4227                           	
  4228  0E99                     l2613:	
  4229                           ;PR22.c: 513: temp = pressure % 1000;
  4230  0E99  3000               	movlw	0
  4231  0E9A  00F3               	movwf	(?___llmod+3)
  4232  0E9B  3000               	movlw	0
  4233  0E9C  00F2               	movwf	(?___llmod+2)
  4234  0E9D  3003               	movlw	03h
  4235  0E9E  00F1               	movwf	(?___llmod+1)
  4236  0E9F  30E8               	movlw	0E8h
  4237  0EA0  00F0               	movwf	(?___llmod)
  4238                           
  4239  0EA1  1283               	bcf	status, 5	;RP0=0, select bank0
  4240  0EA2  1303               	bcf	status, 6	;RP1=0, select bank0
  4241  0EA3  0831               	movf	(mode3@pressure+3),w
  4242  0EA4  00F7               	movwf	3+(?___llmod)+04h
  4243  0EA5  0830               	movf	(mode3@pressure+2),w
  4244  0EA6  00F6               	movwf	2+(?___llmod)+04h
  4245  0EA7  082F               	movf	(mode3@pressure+1),w
  4246  0EA8  00F5               	movwf	1+(?___llmod)+04h
  4247  0EA9  082E               	movf	(mode3@pressure),w
  4248  0EAA  00F4               	movwf	0+(?___llmod)+04h
  4249                           
  4250  0EAB  120A  158A  239C   	fcall	___llmod
              120A  158A         
  4251  0EB0  0871               	movf	1+(((0+(?___llmod)))),w
  4252  0EB1  1283               	bcf	status, 5	;RP0=0, select bank0
  4253  0EB2  1303               	bcf	status, 6	;RP1=0, select bank0
  4254  0EB3  01B3               	clrf	(mode3@temp+1)
  4255  0EB4  07B3               	addwf	(mode3@temp+1)
  4256  0EB5  0870               	movf	0+(((0+(?___llmod)))),w
  4257  0EB6  01B2               	clrf	(mode3@temp)
  4258  0EB7  07B2               	addwf	(mode3@temp)
  4259                           
  4260                           	line	514
  4261                           	
  4262  0EB8                     l2615:	
  4263                           ;PR22.c: 514: send_char('0' + temp / 100);
  4264  0EB8  3064               	movlw	low(064h)
  4265  0EB9  00F6               	movwf	(?___lwdiv)
  4266  0EBA  3000               	movlw	high(064h)
  4267  0EBB  00F7               	movwf	((?___lwdiv))+1
  4268  0EBC  0833               	movf	(mode3@temp+1),w
  4269  0EBD  01F9               	clrf	1+(?___lwdiv)+02h
  4270  0EBE  07F9               	addwf	1+(?___lwdiv)+02h
  4271  0EBF  0832               	movf	(mode3@temp),w
  4272  0EC0  01F8               	clrf	0+(?___lwdiv)+02h
  4273  0EC1  07F8               	addwf	0+(?___lwdiv)+02h
  4274                           
  4275  0EC2  120A  158A  22AB   	fcall	___lwdiv
              120A  158A         
  4276  0EC7  0876               	movf	(0+(?___lwdiv)),w
  4277  0EC8  3E30               	addlw	030h
  4278  0EC9  120A  158A  21C7   	fcall	_send_char
              120A  158A         
  4279                           	line	515
  4280                           	
  4281  0ECE                     l2617:	
  4282                           ;PR22.c: 515: send_char('0' + (temp % 100) / 10);
  4283  0ECE  300A               	movlw	low(0Ah)
  4284  0ECF  00F6               	movwf	(?___lwdiv)
  4285  0ED0  3000               	movlw	high(0Ah)
  4286  0ED1  00F7               	movwf	((?___lwdiv))+1
  4287  0ED2  1283               	bcf	status, 5	;RP0=0, select bank0
  4288  0ED3  1303               	bcf	status, 6	;RP1=0, select bank0
  4289  0ED4  0833               	movf	(mode3@temp+1),w
  4290  0ED5  01F3               	clrf	1+(?___lwmod)+02h
  4291  0ED6  07F3               	addwf	1+(?___lwmod)+02h
  4292  0ED7  0832               	movf	(mode3@temp),w
  4293  0ED8  01F2               	clrf	0+(?___lwmod)+02h
  4294  0ED9  07F2               	addwf	0+(?___lwmod)+02h
  4295                           
  4296  0EDA  3064               	movlw	low(064h)
  4297  0EDB  00F0               	movwf	(?___lwmod)
  4298  0EDC  3000               	movlw	high(064h)
  4299  0EDD  00F1               	movwf	((?___lwmod))+1
  4300  0EDE  120A  158A  2267   	fcall	___lwmod
              120A  158A         
  4301  0EE3  0871               	movf	(1+(?___lwmod)),w
  4302  0EE4  01F9               	clrf	1+(?___lwdiv)+02h
  4303  0EE5  07F9               	addwf	1+(?___lwdiv)+02h
  4304  0EE6  0870               	movf	(0+(?___lwmod)),w
  4305  0EE7  01F8               	clrf	0+(?___lwdiv)+02h
  4306  0EE8  07F8               	addwf	0+(?___lwdiv)+02h
  4307                           
  4308  0EE9  120A  158A  22AB   	fcall	___lwdiv
              120A  158A         
  4309  0EEE  0876               	movf	(0+(?___lwdiv)),w
  4310  0EEF  3E30               	addlw	030h
  4311  0EF0  120A  158A  21C7   	fcall	_send_char
              120A  158A         
  4312                           	line	516
  4313                           	
  4314  0EF5                     l2619:	
  4315                           ;PR22.c: 516: send_char('0' + (temp % 10));
  4316  0EF5  300A               	movlw	low(0Ah)
  4317  0EF6  00F0               	movwf	(?___lwmod)
  4318  0EF7  3000               	movlw	high(0Ah)
  4319  0EF8  00F1               	movwf	((?___lwmod))+1
  4320  0EF9  1283               	bcf	status, 5	;RP0=0, select bank0
  4321  0EFA  1303               	bcf	status, 6	;RP1=0, select bank0
  4322  0EFB  0833               	movf	(mode3@temp+1),w
  4323  0EFC  01F3               	clrf	1+(?___lwmod)+02h
  4324  0EFD  07F3               	addwf	1+(?___lwmod)+02h
  4325  0EFE  0832               	movf	(mode3@temp),w
  4326  0EFF  01F2               	clrf	0+(?___lwmod)+02h
  4327  0F00  07F2               	addwf	0+(?___lwmod)+02h
  4328                           
  4329  0F01  120A  158A  2267   	fcall	___lwmod
              120A  158A         
  4330  0F06  0870               	movf	(0+(?___lwmod)),w
  4331  0F07  3E30               	addlw	030h
  4332  0F08  120A  158A  21C7   	fcall	_send_char
              120A  158A         
  4333                           	line	517
  4334                           	
  4335  0F0D                     l2621:	
  4336                           ;PR22.c: 517: send_string("kPa");
  4337  0F0D  30D8               	movlw	((STR_27-__stringbase))&0ffh
  4338  0F0E  120A  158A  2211   	fcall	_send_string
              120A  158A         
  4339                           	line	520
  4340                           	
  4341  0F13                     l2623:	
  4342                           ;PR22.c: 520: lcd_goto(26);
  4343  0F13  301A               	movlw	(01Ah)
  4344  0F14  120A  158A  21AA   	fcall	_lcd_goto
              120A  158A         
  4345                           	line	521
  4346                           	
  4347  0F19                     l2625:	
  4348                           ;PR22.c: 521: temperature = temperature_raw >> 1;
  4349  0F19  1283               	bcf	status, 5	;RP0=0, select bank0
  4350  0F1A  1303               	bcf	status, 6	;RP1=0, select bank0
  4351  0F1B  0829               	movf	(mode3@temperature_raw+1),w
  4352  0F1C  00A5               	movwf	(??_mode3+0)+0+1
  4353  0F1D  0828               	movf	(mode3@temperature_raw),w
  4354  0F1E  00A4               	movwf	(??_mode3+0)+0
  4355  0F1F  3001               	movlw	01h
  4356  0F20                     u2235:
  4357  0F20  1003               	clrc
  4358  0F21  0CA5               	rrf	(??_mode3+0)+1,f
  4359  0F22  0CA4               	rrf	(??_mode3+0)+0,f
  4360  0F23  3EFF               	addlw	-1
  4361  0F24  1D03               	skipz
  4362  0F25  2F20               	goto	u2235
  4363  0F26  0824               	movf	0+(??_mode3+0)+0,w
  4364  0F27  00B4               	movwf	(mode3@temperature)
  4365  0F28  0825               	movf	1+(??_mode3+0)+0,w
  4366  0F29  00B5               	movwf	(mode3@temperature+1)
  4367                           	line	523
  4368                           	
  4369  0F2A                     l2627:	
  4370                           ;PR22.c: 523: if(temperature & 0x1000)
  4371  0F2A  1E35               	btfss	(mode3@temperature+1),(12)&7
  4372  0F2B  2F2D               	goto	u2241
  4373  0F2C  2F2E               	goto	u2240
  4374  0F2D                     u2241:
  4375  0F2D  2F3A               	goto	l2633
  4376  0F2E                     u2240:
  4377                           	line	525
  4378                           	
  4379  0F2E                     l2629:	
  4380                           ;PR22.c: 524: {
  4381                           ;PR22.c: 525: temperature = (~temperature) + 1;
  4382  0F2E  09B4               	comf	(mode3@temperature),f
  4383  0F2F  09B5               	comf	(mode3@temperature+1),f
  4384  0F30  0AB4               	incf	(mode3@temperature),f
  4385  0F31  1903               	skipnz
  4386  0F32  0AB5               	incf	(mode3@temperature+1),f
  4387                           	line	526
  4388                           	
  4389  0F33                     l2631:	
  4390                           ;PR22.c: 526: send_char('-');
  4391  0F33  302D               	movlw	(02Dh)
  4392  0F34  120A  158A  21C7   	fcall	_send_char
              120A  158A         
  4393                           	line	527
  4394                           ;PR22.c: 527: }
  4395  0F39  2F40               	goto	l191
  4396                           	line	528
  4397                           	
  4398  0F3A                     l190:	
  4399                           	line	529
  4400                           	
  4401  0F3A                     l2633:	
  4402                           ;PR22.c: 528: else
  4403                           ;PR22.c: 529: send_char('+');
  4404  0F3A  302B               	movlw	(02Bh)
  4405  0F3B  120A  158A  21C7   	fcall	_send_char
              120A  158A         
  4406                           	
  4407  0F40                     l191:	
  4408                           	line	532
  4409                           ;PR22.c: 532: send_char('0' + temperature / 1000);
  4410  0F40  30E8               	movlw	low(03E8h)
  4411  0F41  00F6               	movwf	(?___lwdiv)
  4412  0F42  3003               	movlw	high(03E8h)
  4413  0F43  00F7               	movwf	((?___lwdiv))+1
  4414  0F44  1283               	bcf	status, 5	;RP0=0, select bank0
  4415  0F45  1303               	bcf	status, 6	;RP1=0, select bank0
  4416  0F46  0835               	movf	(mode3@temperature+1),w
  4417  0F47  01F9               	clrf	1+(?___lwdiv)+02h
  4418  0F48  07F9               	addwf	1+(?___lwdiv)+02h
  4419  0F49  0834               	movf	(mode3@temperature),w
  4420  0F4A  01F8               	clrf	0+(?___lwdiv)+02h
  4421  0F4B  07F8               	addwf	0+(?___lwdiv)+02h
  4422                           
  4423  0F4C  120A  158A  22AB   	fcall	___lwdiv
              120A  158A         
  4424  0F51  0876               	movf	(0+(?___lwdiv)),w
  4425  0F52  3E30               	addlw	030h
  4426  0F53  120A  158A  21C7   	fcall	_send_char
              120A  158A         
  4427                           	line	533
  4428                           ;PR22.c: 533: send_char('0' + (temperature % 1000) / 100);
  4429  0F58  3064               	movlw	low(064h)
  4430  0F59  00F6               	movwf	(?___lwdiv)
  4431  0F5A  3000               	movlw	high(064h)
  4432  0F5B  00F7               	movwf	((?___lwdiv))+1
  4433  0F5C  1283               	bcf	status, 5	;RP0=0, select bank0
  4434  0F5D  1303               	bcf	status, 6	;RP1=0, select bank0
  4435  0F5E  0835               	movf	(mode3@temperature+1),w
  4436  0F5F  01F3               	clrf	1+(?___lwmod)+02h
  4437  0F60  07F3               	addwf	1+(?___lwmod)+02h
  4438  0F61  0834               	movf	(mode3@temperature),w
  4439  0F62  01F2               	clrf	0+(?___lwmod)+02h
  4440  0F63  07F2               	addwf	0+(?___lwmod)+02h
  4441                           
  4442  0F64  30E8               	movlw	low(03E8h)
  4443  0F65  00F0               	movwf	(?___lwmod)
  4444  0F66  3003               	movlw	high(03E8h)
  4445  0F67  00F1               	movwf	((?___lwmod))+1
  4446  0F68  120A  158A  2267   	fcall	___lwmod
              120A  158A         
  4447  0F6D  0871               	movf	(1+(?___lwmod)),w
  4448  0F6E  01F9               	clrf	1+(?___lwdiv)+02h
  4449  0F6F  07F9               	addwf	1+(?___lwdiv)+02h
  4450  0F70  0870               	movf	(0+(?___lwmod)),w
  4451  0F71  01F8               	clrf	0+(?___lwdiv)+02h
  4452  0F72  07F8               	addwf	0+(?___lwdiv)+02h
  4453                           
  4454  0F73  120A  158A  22AB   	fcall	___lwdiv
              120A  158A         
  4455  0F78  0876               	movf	(0+(?___lwdiv)),w
  4456  0F79  3E30               	addlw	030h
  4457  0F7A  120A  158A  21C7   	fcall	_send_char
              120A  158A         
  4458                           	line	534
  4459                           ;PR22.c: 534: send_char('0' + (temperature % 100) / 10);
  4460  0F7F  300A               	movlw	low(0Ah)
  4461  0F80  00F6               	movwf	(?___lwdiv)
  4462  0F81  3000               	movlw	high(0Ah)
  4463  0F82  00F7               	movwf	((?___lwdiv))+1
  4464  0F83  1283               	bcf	status, 5	;RP0=0, select bank0
  4465  0F84  1303               	bcf	status, 6	;RP1=0, select bank0
  4466  0F85  0835               	movf	(mode3@temperature+1),w
  4467  0F86  01F3               	clrf	1+(?___lwmod)+02h
  4468  0F87  07F3               	addwf	1+(?___lwmod)+02h
  4469  0F88  0834               	movf	(mode3@temperature),w
  4470  0F89  01F2               	clrf	0+(?___lwmod)+02h
  4471  0F8A  07F2               	addwf	0+(?___lwmod)+02h
  4472                           
  4473  0F8B  3064               	movlw	low(064h)
  4474  0F8C  00F0               	movwf	(?___lwmod)
  4475  0F8D  3000               	movlw	high(064h)
  4476  0F8E  00F1               	movwf	((?___lwmod))+1
  4477  0F8F  120A  158A  2267   	fcall	___lwmod
              120A  158A         
  4478  0F94  0871               	movf	(1+(?___lwmod)),w
  4479  0F95  01F9               	clrf	1+(?___lwdiv)+02h
  4480  0F96  07F9               	addwf	1+(?___lwdiv)+02h
  4481  0F97  0870               	movf	(0+(?___lwmod)),w
  4482  0F98  01F8               	clrf	0+(?___lwdiv)+02h
  4483  0F99  07F8               	addwf	0+(?___lwdiv)+02h
  4484                           
  4485  0F9A  120A  158A  22AB   	fcall	___lwdiv
              120A  158A         
  4486  0F9F  0876               	movf	(0+(?___lwdiv)),w
  4487  0FA0  3E30               	addlw	030h
  4488  0FA1  120A  158A  21C7   	fcall	_send_char
              120A  158A         
  4489                           	line	535
  4490                           ;PR22.c: 535: send_char('.');
  4491  0FA6  302E               	movlw	(02Eh)
  4492  0FA7  120A  158A  21C7   	fcall	_send_char
              120A  158A         
  4493                           	line	536
  4494                           ;PR22.c: 536: send_char('0' + temperature % 10);
  4495  0FAC  300A               	movlw	low(0Ah)
  4496  0FAD  00F0               	movwf	(?___lwmod)
  4497  0FAE  3000               	movlw	high(0Ah)
  4498  0FAF  00F1               	movwf	((?___lwmod))+1
  4499  0FB0  1283               	bcf	status, 5	;RP0=0, select bank0
  4500  0FB1  1303               	bcf	status, 6	;RP1=0, select bank0
  4501  0FB2  0835               	movf	(mode3@temperature+1),w
  4502  0FB3  01F3               	clrf	1+(?___lwmod)+02h
  4503  0FB4  07F3               	addwf	1+(?___lwmod)+02h
  4504  0FB5  0834               	movf	(mode3@temperature),w
  4505  0FB6  01F2               	clrf	0+(?___lwmod)+02h
  4506  0FB7  07F2               	addwf	0+(?___lwmod)+02h
  4507                           
  4508  0FB8  120A  158A  2267   	fcall	___lwmod
              120A  158A         
  4509  0FBD  0870               	movf	(0+(?___lwmod)),w
  4510  0FBE  3E30               	addlw	030h
  4511  0FBF  120A  158A  21C7   	fcall	_send_char
              120A  158A         
  4512                           	line	537
  4513                           ;PR22.c: 537: send_char('C');
  4514  0FC4  3043               	movlw	(043h)
  4515  0FC5  120A  158A  21C7   	fcall	_send_char
              120A  158A         
  4516  0FCA  2FCB               	goto	l2635
  4517                           	line	538
  4518                           	
  4519  0FCB                     l186:	
  4520                           	line	488
  4521                           	
  4522  0FCB                     l2635:	
  4523  0FCB  1283               	bcf	status, 5	;RP0=0, select bank0
  4524  0FCC  1303               	bcf	status, 6	;RP1=0, select bank0
  4525  0FCD  1905               	btfsc	(42/8),(42)&7	;volatile
  4526  0FCE  2FD0               	goto	u2251
  4527  0FCF  2FD1               	goto	u2250
  4528  0FD0                     u2251:
  4529  0FD0  2D71               	goto	l2581
  4530  0FD1                     u2250:
  4531  0FD1  2FD2               	goto	l2637
  4532                           	
  4533  0FD2                     l192:	
  4534                           	line	540
  4535                           	
  4536  0FD2                     l2637:	
  4537                           ;PR22.c: 538: }
  4538                           ;PR22.c: 540: delay(10000);
  4539  0FD2  3000               	movlw	0
  4540  0FD3  00F3               	movwf	(?_delay+3)
  4541  0FD4  3000               	movlw	0
  4542  0FD5  00F2               	movwf	(?_delay+2)
  4543  0FD6  3027               	movlw	027h
  4544  0FD7  00F1               	movwf	(?_delay+1)
  4545  0FD8  3010               	movlw	010h
  4546  0FD9  00F0               	movwf	(?_delay)
  4547                           
  4548  0FDA  120A  158A  2237   	fcall	_delay
              120A  158A         
  4549                           	line	541
  4550                           ;PR22.c: 541: while(!RA2);
  4551  0FDF  2FE0               	goto	l193
  4552                           	
  4553  0FE0                     l194:	
  4554                           	
  4555  0FE0                     l193:	
  4556  0FE0  1283               	bcf	status, 5	;RP0=0, select bank0
  4557  0FE1  1303               	bcf	status, 6	;RP1=0, select bank0
  4558  0FE2  1D05               	btfss	(42/8),(42)&7	;volatile
  4559  0FE3  2FE5               	goto	u2261
  4560  0FE4  2FE6               	goto	u2260
  4561  0FE5                     u2261:
  4562  0FE5  2FE0               	goto	l193
  4563  0FE6                     u2260:
  4564  0FE6  2FE7               	goto	l2639
  4565                           	
  4566  0FE7                     l195:	
  4567                           	line	542
  4568                           	
  4569  0FE7                     l2639:	
  4570                           ;PR22.c: 542: spi_baro(0x03, 0, 0);
  4571  0FE7  01A0               	clrf	(?_spi_baro)
  4572  0FE8  3000               	movlw	low(0)
  4573  0FE9  00A1               	movwf	0+(?_spi_baro)+01h
  4574  0FEA  3000               	movlw	high(0)
  4575  0FEB  00A2               	movwf	(0+(?_spi_baro)+01h)+1
  4576  0FEC  3003               	movlw	(03h)
  4577  0FED  120A  158A  22F9   	fcall	_spi_baro
              120A  158A         
  4578                           	line	543
  4579                           ;PR22.c: 543: delay(10000);
  4580  0FF2  3000               	movlw	0
  4581  0FF3  00F3               	movwf	(?_delay+3)
  4582  0FF4  3000               	movlw	0
  4583  0FF5  00F2               	movwf	(?_delay+2)
  4584  0FF6  3027               	movlw	027h
  4585  0FF7  00F1               	movwf	(?_delay+1)
  4586  0FF8  3010               	movlw	010h
  4587  0FF9  00F0               	movwf	(?_delay)
  4588                           
  4589  0FFA  120A  158A  2237   	fcall	_delay
              120A  158A         
  4590                           	line	544
  4591                           	
  4592  0FFF                     l196:	
  4593  0FFF  0008               	return
  4594                           	opt stack 0
  4595                           GLOBAL	__end_of_mode3
  4596  1000                     	__end_of_mode3:
  4597                           	signat	_mode3,88
  4598                           	global	_lcd_clr
  4599                           
  4600 ;; *************** function _lcd_clr *****************
  4601 ;; Defined at:
  4602 ;;		line 585 in file "PR22.c"
  4603 ;; Parameters:    Size  Location     Type
  4604 ;;		None
  4605 ;; Auto vars:     Size  Location     Type
  4606 ;;		None
  4607 ;; Return value:  Size  Location     Type
  4608 ;;		None               void
  4609 ;; Registers used:
  4610 ;;		wreg, status,2, status,0, pclath, cstack
  4611 ;; Tracked objects:
  4612 ;;		On entry : 0/0
  4613 ;;		On exit  : 0/0
  4614 ;;		Unchanged: 0/0
  4615 ;; Data sizes:     COMMON   BANK0   BANK1   BANK3   BANK2
  4616 ;;      Params:         0       0       0       0       0
  4617 ;;      Locals:         0       0       0       0       0
  4618 ;;      Temps:          0       0       0       0       0
  4619 ;;      Totals:         0       0       0       0       0
  4620 ;;Total ram usage:        0 bytes
  4621 ;; Hardware stack levels used:    1
  4622 ;; Hardware stack levels required when called:    2
  4623 ;; This function calls:
  4624 ;;		_send_config
  4625 ;;		_delay
  4626 ;; This function is called by:
  4627 ;;		_main
  4628 ;;		_mode1
  4629 ;;		_mode2
  4630 ;;		_mode3
  4631 ;; This function uses a non-reentrant model
  4632 ;;
  4633                           psect	text352,local,class=CODE,delta=2,merge=1
  4634                           global __ptext352
  4635  0996                     __ptext352:
  4636                           psect	text352
  4637                           	file	"PR22.c"
  4638                           	line	585
  4639                           	global	__size_of_lcd_clr
  4640  0014                     	__size_of_lcd_clr	equ	__end_of_lcd_clr-_lcd_clr
  4641                           	
  4642  0996                     _lcd_clr:	
  4643                           	opt	stack 4
  4644                           ; Regs used in _lcd_clr: [wreg+status,2+status,0+pclath+cstack]
  4645                           	line	586
  4646                           	
  4647  0996                     l2289:	
  4648                           ;PR22.c: 586: send_config(0x01);
  4649  0996  3001               	movlw	(01h)
  4650  0997  120A  158A  21EC   	fcall	_send_config
              120A  158A         
  4651                           	line	587
  4652                           ;PR22.c: 587: delay(600);
  4653  099C  3000               	movlw	0
  4654  099D  00F3               	movwf	(?_delay+3)
  4655  099E  3000               	movlw	0
  4656  099F  00F2               	movwf	(?_delay+2)
  4657  09A0  3002               	movlw	02h
  4658  09A1  00F1               	movwf	(?_delay+1)
  4659  09A2  3058               	movlw	058h
  4660  09A3  00F0               	movwf	(?_delay)
  4661                           
  4662  09A4  120A  158A  2237   	fcall	_delay
              120A  158A         
  4663                           	line	588
  4664                           	
  4665  09A9                     l215:	
  4666  09A9  0008               	return
  4667                           	opt stack 0
  4668                           GLOBAL	__end_of_lcd_clr
  4669  09AA                     	__end_of_lcd_clr:
  4670                           	signat	_lcd_clr,88
  4671                           	global	_lcd_goto
  4672                           
  4673 ;; *************** function _lcd_goto *****************
  4674 ;; Defined at:
  4675 ;;		line 572 in file "PR22.c"
  4676 ;; Parameters:    Size  Location     Type
  4677 ;;  data            1    wreg     unsigned char 
  4678 ;; Auto vars:     Size  Location     Type
  4679 ;;  data            1   10[COMMON] unsigned char 
  4680 ;; Return value:  Size  Location     Type
  4681 ;;		None               void
  4682 ;; Registers used:
  4683 ;;		wreg, status,2, status,0, pclath, cstack
  4684 ;; Tracked objects:
  4685 ;;		On entry : 0/0
  4686 ;;		On exit  : 0/0
  4687 ;;		Unchanged: 0/0
  4688 ;; Data sizes:     COMMON   BANK0   BANK1   BANK3   BANK2
  4689 ;;      Params:         0       0       0       0       0
  4690 ;;      Locals:         1       0       0       0       0
  4691 ;;      Temps:          1       0       0       0       0
  4692 ;;      Totals:         2       0       0       0       0
  4693 ;;Total ram usage:        2 bytes
  4694 ;; Hardware stack levels used:    1
  4695 ;; Hardware stack levels required when called:    2
  4696 ;; This function calls:
  4697 ;;		_send_config
  4698 ;; This function is called by:
  4699 ;;		_main
  4700 ;;		_mode1
  4701 ;;		_mode2
  4702 ;;		_mode3
  4703 ;; This function uses a non-reentrant model
  4704 ;;
  4705                           psect	text353,local,class=CODE,delta=2,merge=1
  4706                           global __ptext353
  4707  09AA                     __ptext353:
  4708                           psect	text353
  4709                           	file	"PR22.c"
  4710                           	line	572
  4711                           	global	__size_of_lcd_goto
  4712  001D                     	__size_of_lcd_goto	equ	__end_of_lcd_goto-_lcd_goto
  4713                           	
  4714  09AA                     _lcd_goto:	
  4715                           	opt	stack 4
  4716                           ; Regs used in _lcd_goto: [wreg+status,2+status,0+pclath+cstack]
  4717                           ;lcd_goto@data stored from wreg
  4718  09AA  00FA               	movwf	(lcd_goto@data)
  4719                           	line	573
  4720                           	
  4721  09AB                     l2291:	
  4722                           ;PR22.c: 573: if(data<16)
  4723  09AB  3010               	movlw	(010h)
  4724  09AC  027A               	subwf	(lcd_goto@data),w
  4725  09AD  1803               	skipnc
  4726  09AE  29B0               	goto	u1821
  4727  09AF  29B1               	goto	u1820
  4728  09B0                     u1821:
  4729  09B0  29B9               	goto	l2295
  4730  09B1                     u1820:
  4731                           	line	575
  4732                           	
  4733  09B1                     l2293:	
  4734                           ;PR22.c: 574: {
  4735                           ;PR22.c: 575: send_config(0x80+data);
  4736  09B1  087A               	movf	(lcd_goto@data),w
  4737  09B2  3E80               	addlw	080h
  4738  09B3  120A  158A  21EC   	fcall	_send_config
              120A  158A         
  4739                           	line	576
  4740                           ;PR22.c: 576: }
  4741  09B8  29C6               	goto	l212
  4742                           	line	577
  4743                           	
  4744  09B9                     l210:	
  4745                           	line	579
  4746                           	
  4747  09B9                     l2295:	
  4748                           ;PR22.c: 577: else
  4749                           ;PR22.c: 578: {
  4750                           ;PR22.c: 579: data=data-20;
  4751  09B9  087A               	movf	(lcd_goto@data),w
  4752  09BA  3EEC               	addlw	0ECh
  4753  09BB  00F9               	movwf	(??_lcd_goto+0)+0
  4754  09BC  0879               	movf	(??_lcd_goto+0)+0,w
  4755  09BD  00FA               	movwf	(lcd_goto@data)
  4756                           	line	580
  4757                           	
  4758  09BE                     l2297:	
  4759                           ;PR22.c: 580: send_config(0xc0+data);
  4760  09BE  087A               	movf	(lcd_goto@data),w
  4761  09BF  3EC0               	addlw	0C0h
  4762  09C0  120A  158A  21EC   	fcall	_send_config
              120A  158A         
  4763  09C5  29C6               	goto	l212
  4764                           	line	581
  4765                           	
  4766  09C6                     l211:	
  4767                           	line	582
  4768                           	
  4769  09C6                     l212:	
  4770  09C6  0008               	return
  4771                           	opt stack 0
  4772                           GLOBAL	__end_of_lcd_goto
  4773  09C7                     	__end_of_lcd_goto:
  4774                           	signat	_lcd_goto,4216
  4775                           	global	_send_config
  4776                           
  4777 ;; *************** function _send_config *****************
  4778 ;; Defined at:
  4779 ;;		line 552 in file "PR22.c"
  4780 ;; Parameters:    Size  Location     Type
  4781 ;;  data            1    wreg     unsigned char 
  4782 ;; Auto vars:     Size  Location     Type
  4783 ;;  data            1    8[COMMON] unsigned char 
  4784 ;; Return value:  Size  Location     Type
  4785 ;;		None               void
  4786 ;; Registers used:
  4787 ;;		wreg, status,2, status,0, pclath, cstack
  4788 ;; Tracked objects:
  4789 ;;		On entry : 0/0
  4790 ;;		On exit  : 0/0
  4791 ;;		Unchanged: 0/0
  4792 ;; Data sizes:     COMMON   BANK0   BANK1   BANK3   BANK2
  4793 ;;      Params:         0       0       0       0       0
  4794 ;;      Locals:         1       0       0       0       0
  4795 ;;      Temps:          0       0       0       0       0
  4796 ;;      Totals:         1       0       0       0       0
  4797 ;;Total ram usage:        1 bytes
  4798 ;; Hardware stack levels used:    1
  4799 ;; Hardware stack levels required when called:    1
  4800 ;; This function calls:
  4801 ;;		_delay
  4802 ;; This function is called by:
  4803 ;;		_main
  4804 ;;		_lcd_goto
  4805 ;;		_lcd_clr
  4806 ;; This function uses a non-reentrant model
  4807 ;;
  4808                           psect	text354,local,class=CODE,delta=2,merge=1
  4809                           global __ptext354
  4810  09EC                     __ptext354:
  4811                           psect	text354
  4812                           	file	"PR22.c"
  4813                           	line	552
  4814                           	global	__size_of_send_config
  4815  0025                     	__size_of_send_config	equ	__end_of_send_config-_send_config
  4816                           	
  4817  09EC                     _send_config:	
  4818                           	opt	stack 4
  4819                           ; Regs used in _send_config: [wreg+status,2+status,0+pclath+cstack]
  4820                           ;send_config@data stored from wreg
  4821  09EC  00F8               	movwf	(send_config@data)
  4822                           	line	553
  4823                           	
  4824  09ED                     l2169:	
  4825                           ;PR22.c: 553: RC0=0;
  4826  09ED  1283               	bcf	status, 5	;RP0=0, select bank0
  4827  09EE  1303               	bcf	status, 6	;RP1=0, select bank0
  4828  09EF  1007               	bcf	(56/8),(56)&7	;volatile
  4829                           	line	554
  4830                           	
  4831  09F0                     l2171:	
  4832                           ;PR22.c: 554: PORTB=data;
  4833  09F0  0878               	movf	(send_config@data),w
  4834  09F1  0086               	movwf	(6)	;volatile
  4835                           	line	555
  4836                           	
  4837  09F2                     l2173:	
  4838                           ;PR22.c: 555: RA5=1;
  4839  09F2  1685               	bsf	(45/8),(45)&7	;volatile
  4840                           	line	556
  4841                           	
  4842  09F3                     l2175:	
  4843                           ;PR22.c: 556: delay(50);
  4844  09F3  3000               	movlw	0
  4845  09F4  00F3               	movwf	(?_delay+3)
  4846  09F5  3000               	movlw	0
  4847  09F6  00F2               	movwf	(?_delay+2)
  4848  09F7  3000               	movlw	0
  4849  09F8  00F1               	movwf	(?_delay+1)
  4850  09F9  3032               	movlw	032h
  4851  09FA  00F0               	movwf	(?_delay)
  4852                           
  4853  09FB  120A  158A  2237   	fcall	_delay
              120A  158A         
  4854                           	line	557
  4855                           	
  4856  0A00                     l2177:	
  4857                           ;PR22.c: 557: RA5=0;
  4858  0A00  1283               	bcf	status, 5	;RP0=0, select bank0
  4859  0A01  1303               	bcf	status, 6	;RP1=0, select bank0
  4860  0A02  1285               	bcf	(45/8),(45)&7	;volatile
  4861                           	line	558
  4862                           	
  4863  0A03                     l2179:	
  4864                           ;PR22.c: 558: delay(50);
  4865  0A03  3000               	movlw	0
  4866  0A04  00F3               	movwf	(?_delay+3)
  4867  0A05  3000               	movlw	0
  4868  0A06  00F2               	movwf	(?_delay+2)
  4869  0A07  3000               	movlw	0
  4870  0A08  00F1               	movwf	(?_delay+1)
  4871  0A09  3032               	movlw	032h
  4872  0A0A  00F0               	movwf	(?_delay)
  4873                           
  4874  0A0B  120A  158A  2237   	fcall	_delay
              120A  158A         
  4875                           	line	559
  4876                           	
  4877  0A10                     l204:	
  4878  0A10  0008               	return
  4879                           	opt stack 0
  4880                           GLOBAL	__end_of_send_config
  4881  0A11                     	__end_of_send_config:
  4882                           	signat	_send_config,4216
  4883                           	global	_send_string
  4884                           
  4885 ;; *************** function _send_string *****************
  4886 ;; Defined at:
  4887 ;;		line 591 in file "PR22.c"
  4888 ;; Parameters:    Size  Location     Type
  4889 ;;  s               1    wreg     PTR const unsigned char 
  4890 ;;		 -> STR_27(4), STR_26(6), STR_25(6), STR_24(5), 
  4891 ;;		 -> STR_23(10), STR_22(6), STR_21(6), STR_20(17), 
  4892 ;;		 -> STR_19(17), STR_18(5), STR_17(5), STR_16(5), 
  4893 ;;		 -> STR_15(15), STR_14(5), STR_13(9), STR_12(16), 
  4894 ;;		 -> STR_11(16), STR_10(16), STR_9(16), STR_8(3), 
  4895 ;;		 -> STR_7(8), STR_6(8), STR_5(8), STR_4(3), 
  4896 ;;		 -> STR_3(8), STR_2(5), STR_1(13), 
  4897 ;; Auto vars:     Size  Location     Type
  4898 ;;  s               1   10[COMMON] PTR const unsigned char 
  4899 ;;		 -> STR_27(4), STR_26(6), STR_25(6), STR_24(5), 
  4900 ;;		 -> STR_23(10), STR_22(6), STR_21(6), STR_20(17), 
  4901 ;;		 -> STR_19(17), STR_18(5), STR_17(5), STR_16(5), 
  4902 ;;		 -> STR_15(15), STR_14(5), STR_13(9), STR_12(16), 
  4903 ;;		 -> STR_11(16), STR_10(16), STR_9(16), STR_8(3), 
  4904 ;;		 -> STR_7(8), STR_6(8), STR_5(8), STR_4(3), 
  4905 ;;		 -> STR_3(8), STR_2(5), STR_1(13), 
  4906 ;; Return value:  Size  Location     Type
  4907 ;;		None               void
  4908 ;; Registers used:
  4909 ;;		wreg, fsr0l, fsr0h, status,2, status,0, pclath, cstack
  4910 ;; Tracked objects:
  4911 ;;		On entry : 0/0
  4912 ;;		On exit  : 0/0
  4913 ;;		Unchanged: 0/0
  4914 ;; Data sizes:     COMMON   BANK0   BANK1   BANK3   BANK2
  4915 ;;      Params:         0       0       0       0       0
  4916 ;;      Locals:         1       0       0       0       0
  4917 ;;      Temps:          1       0       0       0       0
  4918 ;;      Totals:         2       0       0       0       0
  4919 ;;Total ram usage:        2 bytes
  4920 ;; Hardware stack levels used:    1
  4921 ;; Hardware stack levels required when called:    2
  4922 ;; This function calls:
  4923 ;;		_send_char
  4924 ;; This function is called by:
  4925 ;;		_main
  4926 ;;		_mode1
  4927 ;;		_mode2
  4928 ;;		_mode3
  4929 ;; This function uses a non-reentrant model
  4930 ;;
  4931                           psect	text355,local,class=CODE,delta=2,merge=1
  4932                           global __ptext355
  4933  0A11                     __ptext355:
  4934                           psect	text355
  4935                           	file	"PR22.c"
  4936                           	line	591
  4937                           	global	__size_of_send_string
  4938  0026                     	__size_of_send_string	equ	__end_of_send_string-_send_string
  4939                           	
  4940  0A11                     _send_string:	
  4941                           	opt	stack 4
  4942                           ; Regs used in _send_string: [wreg-fsr0h+status,2+status,0+pclath+cstack]
  4943                           ;send_string@s stored from wreg
  4944  0A11  00FA               	movwf	(send_string@s)
  4945                           	line	592
  4946                           	
  4947  0A12                     l2299:	
  4948                           ;PR22.c: 592: while (s && *s)send_char (*s++);
  4949  0A12  2A24               	goto	l2305
  4950                           	
  4951  0A13                     l219:	
  4952                           	
  4953  0A13                     l2301:	
  4954  0A13  087A               	movf	(send_string@s),w
  4955  0A14  0084               	movwf	fsr0
  4956  0A15  120A  158A  2000   	fcall	stringdir
              120A  158A         
  4957  0A1A  120A  158A  21C7   	fcall	_send_char
              120A  158A         
  4958                           	
  4959  0A1F                     l2303:	
  4960  0A1F  3001               	movlw	(01h)
  4961  0A20  00F9               	movwf	(??_send_string+0)+0
  4962  0A21  0879               	movf	(??_send_string+0)+0,w
  4963  0A22  07FA               	addwf	(send_string@s),f
  4964  0A23  2A24               	goto	l2305
  4965                           	
  4966  0A24                     l218:	
  4967                           	
  4968  0A24                     l2305:	
  4969  0A24  087A               	movf	(send_string@s),w
  4970  0A25  1D03               	skipz
  4971  0A26  2A28               	goto	u1830
  4972  0A27  2A36               	goto	l223
  4973  0A28                     u1830:
  4974                           	
  4975  0A28                     l2307:	
  4976  0A28  087A               	movf	(send_string@s),w
  4977  0A29  0084               	movwf	fsr0
  4978  0A2A  120A  158A  2000   	fcall	stringdir
              120A  158A         
  4979  0A2F  3800               	iorlw	0
  4980  0A30  1D03               	skipz
  4981  0A31  2A33               	goto	u1841
  4982  0A32  2A34               	goto	u1840
  4983  0A33                     u1841:
  4984  0A33  2A13               	goto	l2301
  4985  0A34                     u1840:
  4986  0A34  2A36               	goto	l223
  4987                           	
  4988  0A35                     l221:	
  4989  0A35  2A36               	goto	l223
  4990                           	
  4991  0A36                     l222:	
  4992                           	line	593
  4993                           	
  4994  0A36                     l223:	
  4995  0A36  0008               	return
  4996                           	opt stack 0
  4997                           GLOBAL	__end_of_send_string
  4998  0A37                     	__end_of_send_string:
  4999                           	signat	_send_string,4216
  5000                           	global	_i2c_start
  5001                           
  5002 ;; *************** function _i2c_start *****************
  5003 ;; Defined at:
  5004 ;;		line 596 in file "PR22.c"
  5005 ;; Parameters:    Size  Location     Type
  5006 ;;  address         1    wreg     unsigned char 
  5007 ;;  size            1    0[COMMON] unsigned char 
  5008 ;;  operation       2    1[COMMON] unsigned int 
  5009 ;; Auto vars:     Size  Location     Type
  5010 ;;  address         1    5[COMMON] unsigned char 
  5011 ;;  i               1    6[COMMON] unsigned char 
  5012 ;; Return value:  Size  Location     Type
  5013 ;;		None               void
  5014 ;; Registers used:
  5015 ;;		wreg, fsr0l, fsr0h, status,2, status,0
  5016 ;; Tracked objects:
  5017 ;;		On entry : 0/0
  5018 ;;		On exit  : 0/0
  5019 ;;		Unchanged: 0/0
  5020 ;; Data sizes:     COMMON   BANK0   BANK1   BANK3   BANK2
  5021 ;;      Params:         3       0       0       0       0
  5022 ;;      Locals:         2       0       0       0       0
  5023 ;;      Temps:          2       0       0       0       0
  5024 ;;      Totals:         7       0       0       0       0
  5025 ;;Total ram usage:        7 bytes
  5026 ;; Hardware stack levels used:    1
  5027 ;; This function calls:
  5028 ;;		Nothing
  5029 ;; This function is called by:
  5030 ;;		_mode1
  5031 ;;		_mode2
  5032 ;; This function uses a non-reentrant model
  5033 ;;
  5034                           psect	text356,local,class=CODE,delta=2,merge=1
  5035                           global __ptext356
  5036  0004                     __ptext356:
  5037                           psect	text356
  5038                           	file	"PR22.c"
  5039                           	line	596
  5040                           	global	__size_of_i2c_start
  5041  008E                     	__size_of_i2c_start	equ	__end_of_i2c_start-_i2c_start
  5042                           	
  5043  0004                     _i2c_start:	
  5044                           	opt	stack 6
  5045                           ; Regs used in _i2c_start: [wreg-fsr0h+status,2+status,0]
  5046                           ;i2c_start@address stored from wreg
  5047                           	line	599
  5048  0004  00F5               	movwf	(i2c_start@address)
  5049                           	
  5050  0005                     l2041:	
  5051                           ;PR22.c: 597: unsigned char i;
  5052                           ;PR22.c: 599: SEN = 1;
  5053  0005  1683               	bsf	status, 5	;RP0=1, select bank1
  5054  0006  1303               	bcf	status, 6	;RP1=0, select bank1
  5055  0007  1411               	bsf	(1160/8)^080h,(1160)&7	;volatile
  5056                           	line	600
  5057                           ;PR22.c: 600: while(!SSPIF);
  5058  0008  2809               	goto	l226
  5059                           	
  5060  0009                     l227:	
  5061                           	
  5062  0009                     l226:	
  5063  0009  1283               	bcf	status, 5	;RP0=0, select bank0
  5064  000A  1D8C               	btfss	(99/8),(99)&7	;volatile
  5065  000B  280D               	goto	u1201
  5066  000C  280E               	goto	u1200
  5067  000D                     u1201:
  5068  000D  2809               	goto	l226
  5069  000E                     u1200:
  5070                           	
  5071  000E                     l228:	
  5072                           	line	601
  5073                           ;PR22.c: 601: SSPIF = 0;
  5074  000E  118C               	bcf	(99/8),(99)&7	;volatile
  5075                           	line	602
  5076                           	
  5077  000F                     l2043:	
  5078                           ;PR22.c: 602: SSPBUF = address + operation;
  5079  000F  0871               	movf	(i2c_start@operation),w
  5080  0010  0775               	addwf	(i2c_start@address),w
  5081  0011  0093               	movwf	(19)	;volatile
  5082                           	line	603
  5083                           ;PR22.c: 603: while(!SSPIF);
  5084  0012  2813               	goto	l229
  5085                           	
  5086  0013                     l230:	
  5087                           	
  5088  0013                     l229:	
  5089  0013  1D8C               	btfss	(99/8),(99)&7	;volatile
  5090  0014  2816               	goto	u1211
  5091  0015  2817               	goto	u1210
  5092  0016                     u1211:
  5093  0016  2813               	goto	l229
  5094  0017                     u1210:
  5095                           	
  5096  0017                     l231:	
  5097                           	line	604
  5098                           ;PR22.c: 604: SSPIF = 0;
  5099  0017  118C               	bcf	(99/8),(99)&7	;volatile
  5100                           	line	605
  5101                           	
  5102  0018                     l2045:	
  5103                           ;PR22.c: 605: if(operation == 0)
  5104  0018  0872               	movf	((i2c_start@operation+1)),w
  5105  0019  0471               	iorwf	((i2c_start@operation)),w
  5106  001A  1D03               	skipz
  5107  001B  281D               	goto	u1221
  5108  001C  281E               	goto	u1220
  5109  001D                     u1221:
  5110  001D  2842               	goto	l2055
  5111  001E                     u1220:
  5112                           	line	607
  5113                           	
  5114  001E                     l2047:	
  5115                           ;PR22.c: 606: {
  5116                           ;PR22.c: 607: for(i = 0; i < size; i++)
  5117  001E  01F6               	clrf	(i2c_start@i)
  5118  001F  2831               	goto	l2053
  5119                           	line	608
  5120                           	
  5121  0020                     l234:	
  5122                           	line	609
  5123                           	
  5124  0020                     l2049:	
  5125                           ;PR22.c: 608: {
  5126                           ;PR22.c: 609: SSPBUF = i2c_master_data[i];
  5127  0020  0876               	movf	(i2c_start@i),w
  5128  0021  3E37               	addlw	_i2c_master_data&0ffh
  5129  0022  0084               	movwf	fsr0
  5130  0023  1383               	bcf	status, 7	;select IRP bank0
  5131  0024  0800               	movf	indf,w
  5132  0025  0093               	movwf	(19)	;volatile
  5133                           	line	610
  5134                           ;PR22.c: 610: while(!SSPIF);
  5135  0026  2827               	goto	l235
  5136                           	
  5137  0027                     l236:	
  5138                           	
  5139  0027                     l235:	
  5140  0027  1D8C               	btfss	(99/8),(99)&7	;volatile
  5141  0028  282A               	goto	u1231
  5142  0029  282B               	goto	u1230
  5143  002A                     u1231:
  5144  002A  2827               	goto	l235
  5145  002B                     u1230:
  5146                           	
  5147  002B                     l237:	
  5148                           	line	611
  5149                           ;PR22.c: 611: SSPIF = 0;
  5150  002B  118C               	bcf	(99/8),(99)&7	;volatile
  5151                           	line	607
  5152                           	
  5153  002C                     l2051:	
  5154  002C  3001               	movlw	(01h)
  5155  002D  00F3               	movwf	(??_i2c_start+0)+0
  5156  002E  0873               	movf	(??_i2c_start+0)+0,w
  5157  002F  07F6               	addwf	(i2c_start@i),f
  5158  0030  2831               	goto	l2053
  5159                           	
  5160  0031                     l233:	
  5161                           	
  5162  0031                     l2053:	
  5163  0031  0870               	movf	(i2c_start@size),w
  5164  0032  0276               	subwf	(i2c_start@i),w
  5165  0033  1C03               	skipc
  5166  0034  2836               	goto	u1241
  5167  0035  2837               	goto	u1240
  5168  0036                     u1241:
  5169  0036  2820               	goto	l2049
  5170  0037                     u1240:
  5171                           	
  5172  0037                     l238:	
  5173                           	line	613
  5174                           ;PR22.c: 612: }
  5175                           ;PR22.c: 613: PEN = 1;
  5176  0037  1683               	bsf	status, 5	;RP0=1, select bank1
  5177  0038  1303               	bcf	status, 6	;RP1=0, select bank1
  5178  0039  1511               	bsf	(1162/8)^080h,(1162)&7	;volatile
  5179                           	line	614
  5180                           ;PR22.c: 614: while(!SSPIF);
  5181  003A  283B               	goto	l239
  5182                           	
  5183  003B                     l240:	
  5184                           	
  5185  003B                     l239:	
  5186  003B  1283               	bcf	status, 5	;RP0=0, select bank0
  5187  003C  1D8C               	btfss	(99/8),(99)&7	;volatile
  5188  003D  283F               	goto	u1251
  5189  003E  2840               	goto	u1250
  5190  003F                     u1251:
  5191  003F  283B               	goto	l239
  5192  0040                     u1250:
  5193                           	
  5194  0040                     l241:	
  5195                           	line	615
  5196                           ;PR22.c: 615: SSPIF = 0;
  5197  0040  118C               	bcf	(99/8),(99)&7	;volatile
  5198                           	line	616
  5199                           ;PR22.c: 616: }
  5200  0041  2891               	goto	l258
  5201                           	line	617
  5202                           	
  5203  0042                     l232:	
  5204                           	
  5205  0042                     l2055:	
  5206                           ;PR22.c: 617: else if(operation == 1)
  5207  0042  3001               	movlw	01h
  5208  0043  0671               	xorwf	(i2c_start@operation),w
  5209  0044  0472               	iorwf	(i2c_start@operation+1),w
  5210  0045  1D03               	skipz
  5211  0046  2848               	goto	u1261
  5212  0047  2849               	goto	u1260
  5213  0048                     u1261:
  5214  0048  2891               	goto	l258
  5215  0049                     u1260:
  5216                           	line	619
  5217                           	
  5218  0049                     l2057:	
  5219                           ;PR22.c: 618: {
  5220                           ;PR22.c: 619: for(i = 0; i < size; i++)
  5221  0049  01F6               	clrf	(i2c_start@i)
  5222  004A  287F               	goto	l2067
  5223                           	line	620
  5224                           	
  5225  004B                     l245:	
  5226                           	line	621
  5227                           ;PR22.c: 620: {
  5228                           ;PR22.c: 621: RCEN = 1;
  5229  004B  1683               	bsf	status, 5	;RP0=1, select bank1
  5230  004C  1303               	bcf	status, 6	;RP1=0, select bank1
  5231  004D  1591               	bsf	(1163/8)^080h,(1163)&7	;volatile
  5232                           	line	622
  5233                           ;PR22.c: 622: while(!SSPIF);
  5234  004E  284F               	goto	l246
  5235                           	
  5236  004F                     l247:	
  5237                           	
  5238  004F                     l246:	
  5239  004F  1283               	bcf	status, 5	;RP0=0, select bank0
  5240  0050  1D8C               	btfss	(99/8),(99)&7	;volatile
  5241  0051  2853               	goto	u1271
  5242  0052  2854               	goto	u1270
  5243  0053                     u1271:
  5244  0053  284F               	goto	l246
  5245  0054                     u1270:
  5246                           	
  5247  0054                     l248:	
  5248                           	line	623
  5249                           ;PR22.c: 623: SSPIF = 0;
  5250  0054  118C               	bcf	(99/8),(99)&7	;volatile
  5251                           	line	624
  5252                           	
  5253  0055                     l2059:	
  5254                           ;PR22.c: 624: i2c_master_rcvb[i] = SSPBUF;
  5255  0055  0813               	movf	(19),w	;volatile
  5256  0056  00F3               	movwf	(??_i2c_start+0)+0
  5257  0057  0876               	movf	(i2c_start@i),w
  5258  0058  3E3E               	addlw	_i2c_master_rcvb&0ffh
  5259  0059  0084               	movwf	fsr0
  5260  005A  0873               	movf	(??_i2c_start+0)+0,w
  5261  005B  1383               	bcf	status, 7	;select IRP bank0
  5262  005C  0080               	movwf	indf
  5263                           	line	625
  5264                           	
  5265  005D                     l2061:	
  5266                           ;PR22.c: 625: if(i == (size - 1))
  5267  005D  0870               	movf	(i2c_start@size),w
  5268  005E  3EFF               	addlw	low(-1)
  5269  005F  00F3               	movwf	(??_i2c_start+0)+0
  5270  0060  30FF               	movlw	high(-1)
  5271  0061  1803               	skipnc
  5272  0062  3000               	movlw	(high(-1)+1)&0ffh
  5273  0063  00F4               	movwf	((??_i2c_start+0)+0)+1
  5274  0064  0876               	movf	(i2c_start@i),w
  5275  0065  0673               	xorwf	0+(??_i2c_start+0)+0,w
  5276  0066  0474               	iorwf	1+(??_i2c_start+0)+0,w
  5277  0067  1D03               	skipz
  5278  0068  286A               	goto	u1281
  5279  0069  286B               	goto	u1280
  5280  006A                     u1281:
  5281  006A  286F               	goto	l249
  5282  006B                     u1280:
  5283                           	line	626
  5284                           	
  5285  006B                     l2063:	
  5286                           ;PR22.c: 626: ACKDT = 1;
  5287  006B  1683               	bsf	status, 5	;RP0=1, select bank1
  5288  006C  1303               	bcf	status, 6	;RP1=0, select bank1
  5289  006D  1691               	bsf	(1165/8)^080h,(1165)&7	;volatile
  5290  006E  2872               	goto	l250
  5291                           	line	627
  5292                           	
  5293  006F                     l249:	
  5294                           	line	628
  5295                           ;PR22.c: 627: else
  5296                           ;PR22.c: 628: ACKDT = 0;
  5297  006F  1683               	bsf	status, 5	;RP0=1, select bank1
  5298  0070  1303               	bcf	status, 6	;RP1=0, select bank1
  5299  0071  1291               	bcf	(1165/8)^080h,(1165)&7	;volatile
  5300                           	
  5301  0072                     l250:	
  5302                           	line	629
  5303                           ;PR22.c: 629: ACKEN = 1;
  5304  0072  1611               	bsf	(1164/8)^080h,(1164)&7	;volatile
  5305                           	line	630
  5306                           ;PR22.c: 630: while(!SSPIF);
  5307  0073  2874               	goto	l251
  5308                           	
  5309  0074                     l252:	
  5310                           	
  5311  0074                     l251:	
  5312  0074  1283               	bcf	status, 5	;RP0=0, select bank0
  5313  0075  1D8C               	btfss	(99/8),(99)&7	;volatile
  5314  0076  2878               	goto	u1291
  5315  0077  2879               	goto	u1290
  5316  0078                     u1291:
  5317  0078  2874               	goto	l251
  5318  0079                     u1290:
  5319                           	
  5320  0079                     l253:	
  5321                           	line	631
  5322                           ;PR22.c: 631: SSPIF = 0;
  5323  0079  118C               	bcf	(99/8),(99)&7	;volatile
  5324                           	line	619
  5325                           	
  5326  007A                     l2065:	
  5327  007A  3001               	movlw	(01h)
  5328  007B  00F3               	movwf	(??_i2c_start+0)+0
  5329  007C  0873               	movf	(??_i2c_start+0)+0,w
  5330  007D  07F6               	addwf	(i2c_start@i),f
  5331  007E  287F               	goto	l2067
  5332                           	
  5333  007F                     l244:	
  5334                           	
  5335  007F                     l2067:	
  5336  007F  0870               	movf	(i2c_start@size),w
  5337  0080  0276               	subwf	(i2c_start@i),w
  5338  0081  1C03               	skipc
  5339  0082  2884               	goto	u1301
  5340  0083  2885               	goto	u1300
  5341  0084                     u1301:
  5342  0084  284B               	goto	l245
  5343  0085                     u1300:
  5344                           	
  5345  0085                     l254:	
  5346                           	line	633
  5347                           ;PR22.c: 632: }
  5348                           ;PR22.c: 633: PEN = 1;
  5349  0085  1683               	bsf	status, 5	;RP0=1, select bank1
  5350  0086  1303               	bcf	status, 6	;RP1=0, select bank1
  5351  0087  1511               	bsf	(1162/8)^080h,(1162)&7	;volatile
  5352                           	line	634
  5353                           ;PR22.c: 634: while(!SSPIF);
  5354  0088  2889               	goto	l255
  5355                           	
  5356  0089                     l256:	
  5357                           	
  5358  0089                     l255:	
  5359  0089  1283               	bcf	status, 5	;RP0=0, select bank0
  5360  008A  1D8C               	btfss	(99/8),(99)&7	;volatile
  5361  008B  288D               	goto	u1311
  5362  008C  288E               	goto	u1310
  5363  008D                     u1311:
  5364  008D  2889               	goto	l255
  5365  008E                     u1310:
  5366                           	
  5367  008E                     l257:	
  5368                           	line	635
  5369                           ;PR22.c: 635: SSPIF = 0;
  5370  008E  118C               	bcf	(99/8),(99)&7	;volatile
  5371  008F  2891               	goto	l258
  5372                           	line	636
  5373                           	
  5374  0090                     l243:	
  5375  0090  2891               	goto	l258
  5376                           	line	637
  5377                           	
  5378  0091                     l242:	
  5379                           	
  5380  0091                     l258:	
  5381  0091  0008               	return
  5382                           	opt stack 0
  5383                           GLOBAL	__end_of_i2c_start
  5384  0092                     	__end_of_i2c_start:
  5385                           	signat	_i2c_start,12408
  5386                           	global	_send_char
  5387                           
  5388 ;; *************** function _send_char *****************
  5389 ;; Defined at:
  5390 ;;		line 562 in file "PR22.c"
  5391 ;; Parameters:    Size  Location     Type
  5392 ;;  data            1    wreg     unsigned char 
  5393 ;; Auto vars:     Size  Location     Type
  5394 ;;  data            1    8[COMMON] unsigned char 
  5395 ;; Return value:  Size  Location     Type
  5396 ;;		None               void
  5397 ;; Registers used:
  5398 ;;		wreg, status,2, status,0, pclath, cstack
  5399 ;; Tracked objects:
  5400 ;;		On entry : 0/0
  5401 ;;		On exit  : 0/0
  5402 ;;		Unchanged: 0/0
  5403 ;; Data sizes:     COMMON   BANK0   BANK1   BANK3   BANK2
  5404 ;;      Params:         0       0       0       0       0
  5405 ;;      Locals:         1       0       0       0       0
  5406 ;;      Temps:          0       0       0       0       0
  5407 ;;      Totals:         1       0       0       0       0
  5408 ;;Total ram usage:        1 bytes
  5409 ;; Hardware stack levels used:    1
  5410 ;; Hardware stack levels required when called:    1
  5411 ;; This function calls:
  5412 ;;		_delay
  5413 ;; This function is called by:
  5414 ;;		_mode1
  5415 ;;		_mode2
  5416 ;;		_mode3
  5417 ;;		_send_string
  5418 ;; This function uses a non-reentrant model
  5419 ;;
  5420                           psect	text357,local,class=CODE,delta=2,merge=1
  5421                           global __ptext357
  5422  09C7                     __ptext357:
  5423                           psect	text357
  5424                           	file	"PR22.c"
  5425                           	line	562
  5426                           	global	__size_of_send_char
  5427  0025                     	__size_of_send_char	equ	__end_of_send_char-_send_char
  5428                           	
  5429  09C7                     _send_char:	
  5430                           	opt	stack 5
  5431                           ; Regs used in _send_char: [wreg+status,2+status,0+pclath+cstack]
  5432                           ;send_char@data stored from wreg
  5433  09C7  00F8               	movwf	(send_char@data)
  5434                           	line	563
  5435                           	
  5436  09C8                     l2181:	
  5437                           ;PR22.c: 563: RC0=1;
  5438  09C8  1283               	bcf	status, 5	;RP0=0, select bank0
  5439  09C9  1303               	bcf	status, 6	;RP1=0, select bank0
  5440  09CA  1407               	bsf	(56/8),(56)&7	;volatile
  5441                           	line	564
  5442                           	
  5443  09CB                     l2183:	
  5444                           ;PR22.c: 564: PORTB=data;
  5445  09CB  0878               	movf	(send_char@data),w
  5446  09CC  0086               	movwf	(6)	;volatile
  5447                           	line	565
  5448                           	
  5449  09CD                     l2185:	
  5450                           ;PR22.c: 565: RA5=1;
  5451  09CD  1685               	bsf	(45/8),(45)&7	;volatile
  5452                           	line	566
  5453                           	
  5454  09CE                     l2187:	
  5455                           ;PR22.c: 566: delay(10);
  5456  09CE  3000               	movlw	0
  5457  09CF  00F3               	movwf	(?_delay+3)
  5458  09D0  3000               	movlw	0
  5459  09D1  00F2               	movwf	(?_delay+2)
  5460  09D2  3000               	movlw	0
  5461  09D3  00F1               	movwf	(?_delay+1)
  5462  09D4  300A               	movlw	0Ah
  5463  09D5  00F0               	movwf	(?_delay)
  5464                           
  5465  09D6  120A  158A  2237   	fcall	_delay
              120A  158A         
  5466                           	line	567
  5467                           	
  5468  09DB                     l2189:	
  5469                           ;PR22.c: 567: RA5=0;
  5470  09DB  1283               	bcf	status, 5	;RP0=0, select bank0
  5471  09DC  1303               	bcf	status, 6	;RP1=0, select bank0
  5472  09DD  1285               	bcf	(45/8),(45)&7	;volatile
  5473                           	line	568
  5474                           	
  5475  09DE                     l2191:	
  5476                           ;PR22.c: 568: delay(10);
  5477  09DE  3000               	movlw	0
  5478  09DF  00F3               	movwf	(?_delay+3)
  5479  09E0  3000               	movlw	0
  5480  09E1  00F2               	movwf	(?_delay+2)
  5481  09E2  3000               	movlw	0
  5482  09E3  00F1               	movwf	(?_delay+1)
  5483  09E4  300A               	movlw	0Ah
  5484  09E5  00F0               	movwf	(?_delay)
  5485                           
  5486  09E6  120A  158A  2237   	fcall	_delay
              120A  158A         
  5487                           	line	569
  5488                           	
  5489  09EB                     l207:	
  5490  09EB  0008               	return
  5491                           	opt stack 0
  5492                           GLOBAL	__end_of_send_char
  5493  09EC                     	__end_of_send_char:
  5494                           	signat	_send_char,4216
  5495                           	global	_spi_baro
  5496                           
  5497 ;; *************** function _spi_baro *****************
  5498 ;; Defined at:
  5499 ;;		line 640 in file "PR22.c"
  5500 ;; Parameters:    Size  Location     Type
  5501 ;;  register_add    1    wreg     unsigned char 
  5502 ;;  data            1    0[BANK0 ] unsigned char 
  5503 ;;  operation       2    1[BANK0 ] unsigned int 
  5504 ;; Auto vars:     Size  Location     Type
  5505 ;;  register_add    1    3[BANK0 ] unsigned char 
  5506 ;; Return value:  Size  Location     Type
  5507 ;;		None               void
  5508 ;; Registers used:
  5509 ;;		wreg, status,2, status,0, pclath, cstack
  5510 ;; Tracked objects:
  5511 ;;		On entry : 0/0
  5512 ;;		On exit  : 0/0
  5513 ;;		Unchanged: 0/0
  5514 ;; Data sizes:     COMMON   BANK0   BANK1   BANK3   BANK2
  5515 ;;      Params:         0       3       0       0       0
  5516 ;;      Locals:         0       1       0       0       0
  5517 ;;      Temps:          2       0       0       0       0
  5518 ;;      Totals:         2       4       0       0       0
  5519 ;;Total ram usage:        6 bytes
  5520 ;; Hardware stack levels used:    1
  5521 ;; Hardware stack levels required when called:    2
  5522 ;; This function calls:
  5523 ;;		_spi_start
  5524 ;; This function is called by:
  5525 ;;		_mode3
  5526 ;; This function uses a non-reentrant model
  5527 ;;
  5528                           psect	text358,local,class=CODE,delta=2,merge=1
  5529                           global __ptext358
  5530  0AF9                     __ptext358:
  5531                           psect	text358
  5532                           	file	"PR22.c"
  5533                           	line	640
  5534                           	global	__size_of_spi_baro
  5535  0051                     	__size_of_spi_baro	equ	__end_of_spi_baro-_spi_baro
  5536                           	
  5537  0AF9                     _spi_baro:	
  5538                           	opt	stack 4
  5539                           ; Regs used in _spi_baro: [wreg+status,2+status,0+pclath+cstack]
  5540                           ;spi_baro@register_address stored from wreg
  5541  0AF9  1283               	bcf	status, 5	;RP0=0, select bank0
  5542  0AFA  1303               	bcf	status, 6	;RP1=0, select bank0
  5543  0AFB  00A3               	movwf	(spi_baro@register_address)
  5544                           	line	641
  5545                           	
  5546  0AFC                     l2309:	
  5547                           ;PR22.c: 641: RA3 = 0;
  5548  0AFC  1185               	bcf	(43/8),(43)&7	;volatile
  5549                           	line	642
  5550                           	
  5551  0AFD                     l2311:	
  5552                           ;PR22.c: 642: spi_start(((register_address << 1) + !operation) << 1);
  5553  0AFD  0823               	movf	(spi_baro@register_address),w
  5554  0AFE  00FC               	movwf	(??_spi_baro+0)+0
  5555  0AFF  3001               	movlw	01h
  5556  0B00                     u1855:
  5557  0B00  1003               	clrc
  5558  0B01  0DFC               	rlf	(??_spi_baro+0)+0,f
  5559  0B02  3EFF               	addlw	-1
  5560  0B03  1D03               	skipz
  5561  0B04  2B00               	goto	u1855
  5562  0B05  0822               	movf	(spi_baro@operation+1),w
  5563  0B06  0421               	iorwf	(spi_baro@operation),w
  5564  0B07  3000               	movlw	0
  5565  0B08  1903               	skipnz
  5566  0B09  3001               	movlw	1
  5567  0B0A  077C               	addwf	0+(??_spi_baro+0)+0,w
  5568  0B0B  00FD               	movwf	(??_spi_baro+1)+0
  5569  0B0C  077D               	addwf	(??_spi_baro+1)+0,w
  5570  0B0D  120A  158A  234A   	fcall	_spi_start
              120A  158A         
  5571                           	line	644
  5572                           	
  5573  0B12                     l2313:	
  5574                           ;PR22.c: 644: if(operation == 0)
  5575  0B12  1283               	bcf	status, 5	;RP0=0, select bank0
  5576  0B13  1303               	bcf	status, 6	;RP1=0, select bank0
  5577  0B14  0822               	movf	((spi_baro@operation+1)),w
  5578  0B15  0421               	iorwf	((spi_baro@operation)),w
  5579  0B16  1D03               	skipz
  5580  0B17  2B19               	goto	u1861
  5581  0B18  2B1A               	goto	u1860
  5582  0B19                     u1861:
  5583  0B19  2B21               	goto	l2317
  5584  0B1A                     u1860:
  5585                           	line	645
  5586                           	
  5587  0B1A                     l2315:	
  5588                           ;PR22.c: 645: spi_start(data);
  5589  0B1A  0820               	movf	(spi_baro@data),w
  5590  0B1B  120A  158A  234A   	fcall	_spi_start
              120A  158A         
  5591  0B20  2B46               	goto	l2325
  5592                           	line	646
  5593                           	
  5594  0B21                     l261:	
  5595                           	line	649
  5596                           	
  5597  0B21                     l2317:	
  5598                           ;PR22.c: 646: else
  5599                           ;PR22.c: 647: {
  5600                           ;PR22.c: 649: spi_baro_rcvb[0] = spi_start(0);
  5601  0B21  3000               	movlw	(0)
  5602  0B22  120A  158A  234A   	fcall	_spi_start
              120A  158A         
  5603  0B27  00FC               	movwf	(??_spi_baro+0)+0
  5604  0B28  087C               	movf	(??_spi_baro+0)+0,w
  5605  0B29  1283               	bcf	status, 5	;RP0=0, select bank0
  5606  0B2A  1303               	bcf	status, 6	;RP1=0, select bank0
  5607  0B2B  00C6               	movwf	(_spi_baro_rcvb)
  5608                           	line	651
  5609                           	
  5610  0B2C                     l2319:	
  5611                           ;PR22.c: 651: if((register_address == 0x20) || (register_address == 0x21))
  5612  0B2C  0823               	movf	(spi_baro@register_address),w
  5613  0B2D  3A20               	xorlw	020h
  5614  0B2E  1903               	skipnz
  5615  0B2F  2B31               	goto	u1871
  5616  0B30  2B32               	goto	u1870
  5617  0B31                     u1871:
  5618  0B31  2B39               	goto	l2323
  5619  0B32                     u1870:
  5620                           	
  5621  0B32                     l2321:	
  5622  0B32  0823               	movf	(spi_baro@register_address),w
  5623  0B33  3A21               	xorlw	021h
  5624  0B34  1D03               	skipz
  5625  0B35  2B37               	goto	u1881
  5626  0B36  2B38               	goto	u1880
  5627  0B37                     u1881:
  5628  0B37  2B46               	goto	l2325
  5629  0B38                     u1880:
  5630  0B38  2B39               	goto	l2323
  5631                           	
  5632  0B39                     l265:	
  5633                           	line	653
  5634                           	
  5635  0B39                     l2323:	
  5636                           ;PR22.c: 653: spi_baro_rcvb[1] = spi_start(0);
  5637  0B39  3000               	movlw	(0)
  5638  0B3A  120A  158A  234A   	fcall	_spi_start
              120A  158A         
  5639  0B3F  00FC               	movwf	(??_spi_baro+0)+0
  5640  0B40  087C               	movf	(??_spi_baro+0)+0,w
  5641  0B41  1283               	bcf	status, 5	;RP0=0, select bank0
  5642  0B42  1303               	bcf	status, 6	;RP1=0, select bank0
  5643  0B43  00C7               	movwf	0+(_spi_baro_rcvb)+01h
  5644  0B44  2B46               	goto	l2325
  5645                           	
  5646  0B45                     l263:	
  5647  0B45  2B46               	goto	l2325
  5648                           	line	654
  5649                           	
  5650  0B46                     l262:	
  5651                           	line	655
  5652                           	
  5653  0B46                     l2325:	
  5654                           ;PR22.c: 654: }
  5655                           ;PR22.c: 655: RA3 = 1;
  5656  0B46  1283               	bcf	status, 5	;RP0=0, select bank0
  5657  0B47  1303               	bcf	status, 6	;RP1=0, select bank0
  5658  0B48  1585               	bsf	(43/8),(43)&7	;volatile
  5659                           	line	656
  5660                           	
  5661  0B49                     l266:	
  5662  0B49  0008               	return
  5663                           	opt stack 0
  5664                           GLOBAL	__end_of_spi_baro
  5665  0B4A                     	__end_of_spi_baro:
  5666                           	signat	_spi_baro,12408
  5667                           	global	_spi_start
  5668                           
  5669 ;; *************** function _spi_start *****************
  5670 ;; Defined at:
  5671 ;;		line 659 in file "PR22.c"
  5672 ;; Parameters:    Size  Location     Type
  5673 ;;  data            1    wreg     unsigned char 
  5674 ;; Auto vars:     Size  Location     Type
  5675 ;;  data            1    9[COMMON] unsigned char 
  5676 ;;  i               1   11[COMMON] unsigned char 
  5677 ;;  rcvb            1   10[COMMON] unsigned char 
  5678 ;; Return value:  Size  Location     Type
  5679 ;;                  1    wreg      unsigned char 
  5680 ;; Registers used:
  5681 ;;		wreg, status,2, status,0, pclath, cstack
  5682 ;; Tracked objects:
  5683 ;;		On entry : 0/0
  5684 ;;		On exit  : 0/0
  5685 ;;		Unchanged: 0/0
  5686 ;; Data sizes:     COMMON   BANK0   BANK1   BANK3   BANK2
  5687 ;;      Params:         0       0       0       0       0
  5688 ;;      Locals:         3       0       0       0       0
  5689 ;;      Temps:          1       0       0       0       0
  5690 ;;      Totals:         4       0       0       0       0
  5691 ;;Total ram usage:        4 bytes
  5692 ;; Hardware stack levels used:    1
  5693 ;; Hardware stack levels required when called:    1
  5694 ;; This function calls:
  5695 ;;		_delay
  5696 ;; This function is called by:
  5697 ;;		_spi_baro
  5698 ;; This function uses a non-reentrant model
  5699 ;;
  5700                           psect	text359,local,class=CODE,delta=2,merge=1
  5701                           global __ptext359
  5702  0B4A                     __ptext359:
  5703                           psect	text359
  5704                           	file	"PR22.c"
  5705                           	line	659
  5706                           	global	__size_of_spi_start
  5707  0052                     	__size_of_spi_start	equ	__end_of_spi_start-_spi_start
  5708                           	
  5709  0B4A                     _spi_start:	
  5710                           	opt	stack 4
  5711                           ; Regs used in _spi_start: [wreg+status,2+status,0+pclath+cstack]
  5712                           ;spi_start@data stored from wreg
  5713  0B4A  00F9               	movwf	(spi_start@data)
  5714                           	line	660
  5715                           	
  5716  0B4B                     l2193:	
  5717                           ;PR22.c: 660: unsigned char rcvb = 0;
  5718  0B4B  01FA               	clrf	(spi_start@rcvb)
  5719                           	line	663
  5720                           ;PR22.c: 661: unsigned char i;
  5721                           ;PR22.c: 663: for(i = 0; i < 8; i ++)
  5722  0B4C  01FB               	clrf	(spi_start@i)
  5723                           	
  5724  0B4D                     l2195:	
  5725  0B4D  3008               	movlw	(08h)
  5726  0B4E  027B               	subwf	(spi_start@i),w
  5727  0B4F  1C03               	skipc
  5728  0B50  2B52               	goto	u1601
  5729  0B51  2B53               	goto	u1600
  5730  0B52                     u1601:
  5731  0B52  2B55               	goto	l269
  5732  0B53                     u1600:
  5733  0B53  2B99               	goto	l2219
  5734                           	
  5735  0B54                     l2197:	
  5736  0B54  2B99               	goto	l2219
  5737                           	line	664
  5738                           	
  5739  0B55                     l269:	
  5740                           	line	665
  5741                           ;PR22.c: 664: {
  5742                           ;PR22.c: 665: RC6 = 0;
  5743  0B55  1283               	bcf	status, 5	;RP0=0, select bank0
  5744  0B56  1303               	bcf	status, 6	;RP1=0, select bank0
  5745  0B57  1307               	bcf	(62/8),(62)&7	;volatile
  5746                           	line	666
  5747                           	
  5748  0B58                     l2199:	
  5749                           ;PR22.c: 666: delay(100);
  5750  0B58  3000               	movlw	0
  5751  0B59  00F3               	movwf	(?_delay+3)
  5752  0B5A  3000               	movlw	0
  5753  0B5B  00F2               	movwf	(?_delay+2)
  5754  0B5C  3000               	movlw	0
  5755  0B5D  00F1               	movwf	(?_delay+1)
  5756  0B5E  3064               	movlw	064h
  5757  0B5F  00F0               	movwf	(?_delay)
  5758                           
  5759  0B60  120A  158A  2237   	fcall	_delay
              120A  158A         
  5760                           	line	667
  5761                           	
  5762  0B65                     l2201:	
  5763                           ;PR22.c: 667: RC7 = (data & 0x80)? 1: 0;
  5764  0B65  1BF9               	btfsc	(spi_start@data),(7)&7
  5765  0B66  2B68               	goto	u1611
  5766  0B67  2B6C               	goto	u1610
  5767                           	
  5768  0B68                     u1611:
  5769  0B68  1283               	bcf	status, 5	;RP0=0, select bank0
  5770  0B69  1303               	bcf	status, 6	;RP1=0, select bank0
  5771  0B6A  1787               	bsf	(63/8),(63)&7	;volatile
  5772  0B6B  2B6F               	goto	u1624
  5773  0B6C                     u1610:
  5774  0B6C  1283               	bcf	status, 5	;RP0=0, select bank0
  5775  0B6D  1303               	bcf	status, 6	;RP1=0, select bank0
  5776  0B6E  1387               	bcf	(63/8),(63)&7	;volatile
  5777  0B6F                     u1624:
  5778                           	line	668
  5779                           	
  5780  0B6F                     l2203:	
  5781                           ;PR22.c: 668: rcvb += RC5;
  5782  0B6F  3000               	movlw	0
  5783  0B70  1A87               	btfsc	(61/8),(61)&7	;volatile
  5784  0B71  3001               	movlw	1
  5785  0B72  00F8               	movwf	(??_spi_start+0)+0
  5786  0B73  0878               	movf	(??_spi_start+0)+0,w
  5787  0B74  07FA               	addwf	(spi_start@rcvb),f
  5788                           	line	669
  5789                           	
  5790  0B75                     l2205:	
  5791                           ;PR22.c: 669: data <<= 1;
  5792  0B75  1003               	clrc
  5793  0B76  0DF9               	rlf	(spi_start@data),f
  5794                           
  5795                           	line	670
  5796                           	
  5797  0B77                     l2207:	
  5798                           ;PR22.c: 670: if(i < 7)
  5799  0B77  3007               	movlw	(07h)
  5800  0B78  027B               	subwf	(spi_start@i),w
  5801  0B79  1803               	skipnc
  5802  0B7A  2B7C               	goto	u1631
  5803  0B7B  2B7D               	goto	u1630
  5804  0B7C                     u1631:
  5805  0B7C  2B80               	goto	l2211
  5806  0B7D                     u1630:
  5807                           	line	671
  5808                           	
  5809  0B7D                     l2209:	
  5810                           ;PR22.c: 671: rcvb <<= 1;
  5811  0B7D  1003               	clrc
  5812  0B7E  0DFA               	rlf	(spi_start@rcvb),f
  5813                           
  5814  0B7F  2B80               	goto	l2211
  5815                           	
  5816  0B80                     l271:	
  5817                           	line	672
  5818                           	
  5819  0B80                     l2211:	
  5820                           ;PR22.c: 672: RC6 = 1;
  5821  0B80  1707               	bsf	(62/8),(62)&7	;volatile
  5822                           	line	673
  5823                           	
  5824  0B81                     l2213:	
  5825                           ;PR22.c: 673: delay(100);
  5826  0B81  3000               	movlw	0
  5827  0B82  00F3               	movwf	(?_delay+3)
  5828  0B83  3000               	movlw	0
  5829  0B84  00F2               	movwf	(?_delay+2)
  5830  0B85  3000               	movlw	0
  5831  0B86  00F1               	movwf	(?_delay+1)
  5832  0B87  3064               	movlw	064h
  5833  0B88  00F0               	movwf	(?_delay)
  5834                           
  5835  0B89  120A  158A  2237   	fcall	_delay
              120A  158A         
  5836                           	line	663
  5837                           	
  5838  0B8E                     l2215:	
  5839  0B8E  3001               	movlw	(01h)
  5840  0B8F  00F8               	movwf	(??_spi_start+0)+0
  5841  0B90  0878               	movf	(??_spi_start+0)+0,w
  5842  0B91  07FB               	addwf	(spi_start@i),f
  5843                           	
  5844  0B92                     l2217:	
  5845  0B92  3008               	movlw	(08h)
  5846  0B93  027B               	subwf	(spi_start@i),w
  5847  0B94  1C03               	skipc
  5848  0B95  2B97               	goto	u1641
  5849  0B96  2B98               	goto	u1640
  5850  0B97                     u1641:
  5851  0B97  2B55               	goto	l269
  5852  0B98                     u1640:
  5853  0B98  2B99               	goto	l2219
  5854                           	
  5855  0B99                     l270:	
  5856                           	line	675
  5857                           	
  5858  0B99                     l2219:	
  5859                           ;PR22.c: 674: }
  5860                           ;PR22.c: 675: return rcvb;
  5861  0B99  087A               	movf	(spi_start@rcvb),w
  5862  0B9A  2B9B               	goto	l272
  5863                           	
  5864  0B9B                     l2221:	
  5865                           	line	676
  5866                           	
  5867  0B9B                     l272:	
  5868  0B9B  0008               	return
  5869                           	opt stack 0
  5870                           GLOBAL	__end_of_spi_start
  5871  0B9C                     	__end_of_spi_start:
  5872                           	signat	_spi_start,4217
  5873                           	global	_delay
  5874                           
  5875 ;; *************** function _delay *****************
  5876 ;; Defined at:
  5877 ;;		line 547 in file "PR22.c"
  5878 ;; Parameters:    Size  Location     Type
  5879 ;;  data            4    0[COMMON] unsigned long 
  5880 ;; Auto vars:     Size  Location     Type
  5881 ;;		None
  5882 ;; Return value:  Size  Location     Type
  5883 ;;		None               void
  5884 ;; Registers used:
  5885 ;;		wreg
  5886 ;; Tracked objects:
  5887 ;;		On entry : 0/0
  5888 ;;		On exit  : 0/0
  5889 ;;		Unchanged: 0/0
  5890 ;; Data sizes:     COMMON   BANK0   BANK1   BANK3   BANK2
  5891 ;;      Params:         4       0       0       0       0
  5892 ;;      Locals:         0       0       0       0       0
  5893 ;;      Temps:          4       0       0       0       0
  5894 ;;      Totals:         8       0       0       0       0
  5895 ;;Total ram usage:        8 bytes
  5896 ;; Hardware stack levels used:    1
  5897 ;; This function calls:
  5898 ;;		Nothing
  5899 ;; This function is called by:
  5900 ;;		_main
  5901 ;;		_mode1
  5902 ;;		_mode2
  5903 ;;		_mode3
  5904 ;;		_send_config
  5905 ;;		_send_char
  5906 ;;		_lcd_clr
  5907 ;;		_spi_start
  5908 ;; This function uses a non-reentrant model
  5909 ;;
  5910                           psect	text360,local,class=CODE,delta=2,merge=1
  5911                           global __ptext360
  5912  0A37                     __ptext360:
  5913                           psect	text360
  5914                           	file	"PR22.c"
  5915                           	line	547
  5916                           	global	__size_of_delay
  5917  0030                     	__size_of_delay	equ	__end_of_delay-_delay
  5918                           	
  5919  0A37                     _delay:	
  5920                           	opt	stack 6
  5921                           ; Regs used in _delay: [wreg]
  5922                           	line	548
  5923                           	
  5924  0A37                     l2035:	
  5925                           ;PR22.c: 548: for( ;data>0;data--);
  5926  0A37  0873               	movf	(delay@data+3),w
  5927  0A38  0472               	iorwf	(delay@data+2),w
  5928  0A39  0471               	iorwf	(delay@data+1),w
  5929  0A3A  0470               	iorwf	(delay@data),w
  5930  0A3B  1D03               	skipz
  5931  0A3C  2A3E               	goto	u1171
  5932  0A3D  2A3F               	goto	u1170
  5933  0A3E                     u1171:
  5934  0A3E  2A41               	goto	l2039
  5935  0A3F                     u1170:
  5936  0A3F  2A66               	goto	l201
  5937                           	
  5938  0A40                     l2037:	
  5939  0A40  2A66               	goto	l201
  5940                           	
  5941  0A41                     l199:	
  5942                           	
  5943  0A41                     l2039:	
  5944  0A41  3001               	movlw	01h
  5945  0A42  00F4               	movwf	((??_delay+0)+0)
  5946  0A43  3000               	movlw	0
  5947  0A44  00F5               	movwf	((??_delay+0)+0+1)
  5948  0A45  3000               	movlw	0
  5949  0A46  00F6               	movwf	((??_delay+0)+0+2)
  5950  0A47  3000               	movlw	0
  5951  0A48  00F7               	movwf	((??_delay+0)+0+3)
  5952  0A49  0874               	movf	0+(??_delay+0)+0,w
  5953  0A4A  02F0               	subwf	(delay@data),f
  5954  0A4B  0875               	movf	1+(??_delay+0)+0,w
  5955  0A4C  1C03               	skipc
  5956  0A4D  0F75               	incfsz	1+(??_delay+0)+0,w
  5957  0A4E  2A50               	goto	u1185
  5958  0A4F  2A51               	goto	u1186
  5959  0A50                     u1185:
  5960  0A50  02F1               	subwf	(delay@data+1),f
  5961  0A51                     u1186:
  5962  0A51  0876               	movf	2+(??_delay+0)+0,w
  5963  0A52  1C03               	skipc
  5964  0A53  0F76               	incfsz	2+(??_delay+0)+0,w
  5965  0A54  2A56               	goto	u1187
  5966  0A55  2A57               	goto	u1188
  5967  0A56                     u1187:
  5968  0A56  02F2               	subwf	(delay@data+2),f
  5969  0A57                     u1188:
  5970  0A57  0877               	movf	3+(??_delay+0)+0,w
  5971  0A58  1C03               	skipc
  5972  0A59  0F77               	incfsz	3+(??_delay+0)+0,w
  5973  0A5A  2A5C               	goto	u1189
  5974  0A5B  2A5D               	goto	u1180
  5975  0A5C                     u1189:
  5976  0A5C  02F3               	subwf	(delay@data+3),f
  5977  0A5D                     u1180:
  5978                           
  5979  0A5D  0873               	movf	(delay@data+3),w
  5980  0A5E  0472               	iorwf	(delay@data+2),w
  5981  0A5F  0471               	iorwf	(delay@data+1),w
  5982  0A60  0470               	iorwf	(delay@data),w
  5983  0A61  1D03               	skipz
  5984  0A62  2A64               	goto	u1191
  5985  0A63  2A65               	goto	u1190
  5986  0A64                     u1191:
  5987  0A64  2A41               	goto	l2039
  5988  0A65                     u1190:
  5989  0A65  2A66               	goto	l201
  5990                           	
  5991  0A66                     l200:	
  5992                           	line	549
  5993                           	
  5994  0A66                     l201:	
  5995  0A66  0008               	return
  5996                           	opt stack 0
  5997                           GLOBAL	__end_of_delay
  5998  0A67                     	__end_of_delay:
  5999                           	signat	_delay,4216
  6000                           	global	___lwdiv
  6001                           
  6002 ;; *************** function ___lwdiv *****************
  6003 ;; Defined at:
  6004 ;;		line 5 in file "C:\Program Files (x86)\Microchip\xc8\v1.00\sources\lwdiv.c"
  6005 ;; Parameters:    Size  Location     Type
  6006 ;;  divisor         2    6[COMMON] unsigned int 
  6007 ;;  dividend        2    8[COMMON] unsigned int 
  6008 ;; Auto vars:     Size  Location     Type
  6009 ;;  quotient        2   11[COMMON] unsigned int 
  6010 ;;  counter         1   13[COMMON] unsigned char 
  6011 ;; Return value:  Size  Location     Type
  6012 ;;                  2    6[COMMON] unsigned int 
  6013 ;; Registers used:
  6014 ;;		wreg, status,2, status,0
  6015 ;; Tracked objects:
  6016 ;;		On entry : 0/0
  6017 ;;		On exit  : 0/0
  6018 ;;		Unchanged: 0/0
  6019 ;; Data sizes:     COMMON   BANK0   BANK1   BANK3   BANK2
  6020 ;;      Params:         4       0       0       0       0
  6021 ;;      Locals:         3       0       0       0       0
  6022 ;;      Temps:          1       0       0       0       0
  6023 ;;      Totals:         8       0       0       0       0
  6024 ;;Total ram usage:        8 bytes
  6025 ;; Hardware stack levels used:    1
  6026 ;; This function calls:
  6027 ;;		Nothing
  6028 ;; This function is called by:
  6029 ;;		_mode1
  6030 ;;		_mode2
  6031 ;;		_mode3
  6032 ;; This function uses a non-reentrant model
  6033 ;;
  6034                           psect	text361,local,class=CODE,delta=2,merge=1
  6035                           global __ptext361
  6036  0AAB                     __ptext361:
  6037                           psect	text361
  6038                           	file	"C:\Program Files (x86)\Microchip\xc8\v1.00\sources\lwdiv.c"
  6039                           	line	5
  6040                           	global	__size_of___lwdiv
  6041  004E                     	__size_of___lwdiv	equ	__end_of___lwdiv-___lwdiv
  6042                           	
  6043  0AAB                     ___lwdiv:	
  6044                           	opt	stack 6
  6045                           ; Regs used in ___lwdiv: [wreg+status,2+status,0]
  6046                           	line	9
  6047                           	
  6048  0AAB                     l2223:	
  6049  0AAB  01FB               	clrf	(___lwdiv@quotient)
  6050  0AAC  01FC               	clrf	(___lwdiv@quotient+1)
  6051                           	line	10
  6052                           	
  6053  0AAD                     l2225:	
  6054  0AAD  0877               	movf	(___lwdiv@divisor+1),w
  6055  0AAE  0476               	iorwf	(___lwdiv@divisor),w
  6056  0AAF  1903               	skipnz
  6057  0AB0  2AB2               	goto	u1651
  6058  0AB1  2AB3               	goto	u1650
  6059  0AB2                     u1651:
  6060  0AB2  2AF1               	goto	l2245
  6061  0AB3                     u1650:
  6062                           	line	11
  6063                           	
  6064  0AB3                     l2227:	
  6065  0AB3  01FD               	clrf	(___lwdiv@counter)
  6066  0AB4  1403               	bsf	status,0
  6067  0AB5  0DFD               	rlf	(___lwdiv@counter),f
  6068                           	line	12
  6069  0AB6  2AC3               	goto	l2233
  6070                           	
  6071  0AB7                     l369:	
  6072                           	line	13
  6073                           	
  6074  0AB7                     l2229:	
  6075  0AB7  3001               	movlw	01h
  6076                           	
  6077  0AB8                     u1665:
  6078  0AB8  1003               	clrc
  6079  0AB9  0DF6               	rlf	(___lwdiv@divisor),f
  6080  0ABA  0DF7               	rlf	(___lwdiv@divisor+1),f
  6081  0ABB  3EFF               	addlw	-1
  6082  0ABC  1D03               	skipz
  6083  0ABD  2AB8               	goto	u1665
  6084                           	line	14
  6085                           	
  6086  0ABE                     l2231:	
  6087  0ABE  3001               	movlw	(01h)
  6088  0ABF  00FA               	movwf	(??___lwdiv+0)+0
  6089  0AC0  087A               	movf	(??___lwdiv+0)+0,w
  6090  0AC1  07FD               	addwf	(___lwdiv@counter),f
  6091  0AC2  2AC3               	goto	l2233
  6092                           	line	15
  6093                           	
  6094  0AC3                     l368:	
  6095                           	line	12
  6096                           	
  6097  0AC3                     l2233:	
  6098  0AC3  1FF7               	btfss	(___lwdiv@divisor+1),(15)&7
  6099  0AC4  2AC6               	goto	u1671
  6100  0AC5  2AC7               	goto	u1670
  6101  0AC6                     u1671:
  6102  0AC6  2AB7               	goto	l2229
  6103  0AC7                     u1670:
  6104  0AC7  2AC9               	goto	l2235
  6105                           	
  6106  0AC8                     l370:	
  6107  0AC8  2AC9               	goto	l2235
  6108                           	line	16
  6109                           	
  6110  0AC9                     l371:	
  6111                           	line	17
  6112                           	
  6113  0AC9                     l2235:	
  6114  0AC9  3001               	movlw	01h
  6115                           	
  6116  0ACA                     u1685:
  6117  0ACA  1003               	clrc
  6118  0ACB  0DFB               	rlf	(___lwdiv@quotient),f
  6119  0ACC  0DFC               	rlf	(___lwdiv@quotient+1),f
  6120  0ACD  3EFF               	addlw	-1
  6121  0ACE  1D03               	skipz
  6122  0ACF  2ACA               	goto	u1685
  6123                           	line	18
  6124  0AD0  0877               	movf	(___lwdiv@divisor+1),w
  6125  0AD1  0279               	subwf	(___lwdiv@dividend+1),w
  6126  0AD2  1D03               	skipz
  6127  0AD3  2AD6               	goto	u1695
  6128  0AD4  0876               	movf	(___lwdiv@divisor),w
  6129  0AD5  0278               	subwf	(___lwdiv@dividend),w
  6130  0AD6                     u1695:
  6131  0AD6  1C03               	skipc
  6132  0AD7  2AD9               	goto	u1691
  6133  0AD8  2ADA               	goto	u1690
  6134  0AD9                     u1691:
  6135  0AD9  2AE2               	goto	l2241
  6136  0ADA                     u1690:
  6137                           	line	19
  6138                           	
  6139  0ADA                     l2237:	
  6140  0ADA  0876               	movf	(___lwdiv@divisor),w
  6141  0ADB  02F8               	subwf	(___lwdiv@dividend),f
  6142  0ADC  0877               	movf	(___lwdiv@divisor+1),w
  6143  0ADD  1C03               	skipc
  6144  0ADE  03F9               	decf	(___lwdiv@dividend+1),f
  6145  0ADF  02F9               	subwf	(___lwdiv@dividend+1),f
  6146                           	line	20
  6147                           	
  6148  0AE0                     l2239:	
  6149  0AE0  147B               	bsf	(___lwdiv@quotient)+(0/8),(0)&7
  6150  0AE1  2AE2               	goto	l2241
  6151                           	line	21
  6152                           	
  6153  0AE2                     l372:	
  6154                           	line	22
  6155                           	
  6156  0AE2                     l2241:	
  6157  0AE2  3001               	movlw	01h
  6158                           	
  6159  0AE3                     u1705:
  6160  0AE3  1003               	clrc
  6161  0AE4  0CF7               	rrf	(___lwdiv@divisor+1),f
  6162  0AE5  0CF6               	rrf	(___lwdiv@divisor),f
  6163  0AE6  3EFF               	addlw	-1
  6164  0AE7  1D03               	skipz
  6165  0AE8  2AE3               	goto	u1705
  6166                           	line	23
  6167                           	
  6168  0AE9                     l2243:	
  6169  0AE9  3001               	movlw	low(01h)
  6170  0AEA  02FD               	subwf	(___lwdiv@counter),f
  6171  0AEB  1D03               	btfss	status,2
  6172  0AEC  2AEE               	goto	u1711
  6173  0AED  2AEF               	goto	u1710
  6174  0AEE                     u1711:
  6175  0AEE  2AC9               	goto	l2235
  6176  0AEF                     u1710:
  6177  0AEF  2AF1               	goto	l2245
  6178                           	
  6179  0AF0                     l373:	
  6180  0AF0  2AF1               	goto	l2245
  6181                           	line	24
  6182                           	
  6183  0AF1                     l367:	
  6184                           	line	25
  6185                           	
  6186  0AF1                     l2245:	
  6187  0AF1  087C               	movf	(___lwdiv@quotient+1),w
  6188  0AF2  01F7               	clrf	(?___lwdiv+1)
  6189  0AF3  07F7               	addwf	(?___lwdiv+1)
  6190  0AF4  087B               	movf	(___lwdiv@quotient),w
  6191  0AF5  01F6               	clrf	(?___lwdiv)
  6192  0AF6  07F6               	addwf	(?___lwdiv)
  6193                           
  6194  0AF7  2AF8               	goto	l374
  6195                           	
  6196  0AF8                     l2247:	
  6197                           	line	26
  6198                           	
  6199  0AF8                     l374:	
  6200  0AF8  0008               	return
  6201                           	opt stack 0
  6202                           GLOBAL	__end_of___lwdiv
  6203  0AF9                     	__end_of___lwdiv:
  6204                           	signat	___lwdiv,8314
  6205                           	global	___lwmod
  6206                           
  6207 ;; *************** function ___lwmod *****************
  6208 ;; Defined at:
  6209 ;;		line 5 in file "C:\Program Files (x86)\Microchip\xc8\v1.00\sources\lwmod.c"
  6210 ;; Parameters:    Size  Location     Type
  6211 ;;  divisor         2    0[COMMON] unsigned int 
  6212 ;;  dividend        2    2[COMMON] unsigned int 
  6213 ;; Auto vars:     Size  Location     Type
  6214 ;;  counter         1    5[COMMON] unsigned char 
  6215 ;; Return value:  Size  Location     Type
  6216 ;;                  2    0[COMMON] unsigned int 
  6217 ;; Registers used:
  6218 ;;		wreg, status,2, status,0
  6219 ;; Tracked objects:
  6220 ;;		On entry : 0/0
  6221 ;;		On exit  : 0/0
  6222 ;;		Unchanged: 0/0
  6223 ;; Data sizes:     COMMON   BANK0   BANK1   BANK3   BANK2
  6224 ;;      Params:         4       0       0       0       0
  6225 ;;      Locals:         1       0       0       0       0
  6226 ;;      Temps:          1       0       0       0       0
  6227 ;;      Totals:         6       0       0       0       0
  6228 ;;Total ram usage:        6 bytes
  6229 ;; Hardware stack levels used:    1
  6230 ;; This function calls:
  6231 ;;		Nothing
  6232 ;; This function is called by:
  6233 ;;		_mode1
  6234 ;;		_mode2
  6235 ;;		_mode3
  6236 ;; This function uses a non-reentrant model
  6237 ;;
  6238                           psect	text362,local,class=CODE,delta=2,merge=1
  6239                           global __ptext362
  6240  0A67                     __ptext362:
  6241                           psect	text362
  6242                           	file	"C:\Program Files (x86)\Microchip\xc8\v1.00\sources\lwmod.c"
  6243                           	line	5
  6244                           	global	__size_of___lwmod
  6245  0044                     	__size_of___lwmod	equ	__end_of___lwmod-___lwmod
  6246                           	
  6247  0A67                     ___lwmod:	
  6248                           	opt	stack 6
  6249                           ; Regs used in ___lwmod: [wreg+status,2+status,0]
  6250                           	line	8
  6251                           	
  6252  0A67                     l2069:	
  6253  0A67  0871               	movf	(___lwmod@divisor+1),w
  6254  0A68  0470               	iorwf	(___lwmod@divisor),w
  6255  0A69  1903               	skipnz
  6256  0A6A  2A6C               	goto	u1321
  6257  0A6B  2A6D               	goto	u1320
  6258  0A6C                     u1321:
  6259  0A6C  2AA3               	goto	l2087
  6260  0A6D                     u1320:
  6261                           	line	9
  6262                           	
  6263  0A6D                     l2071:	
  6264  0A6D  01F5               	clrf	(___lwmod@counter)
  6265  0A6E  1403               	bsf	status,0
  6266  0A6F  0DF5               	rlf	(___lwmod@counter),f
  6267                           	line	10
  6268  0A70  2A7D               	goto	l2077
  6269                           	
  6270  0A71                     l379:	
  6271                           	line	11
  6272                           	
  6273  0A71                     l2073:	
  6274  0A71  3001               	movlw	01h
  6275                           	
  6276  0A72                     u1335:
  6277  0A72  1003               	clrc
  6278  0A73  0DF0               	rlf	(___lwmod@divisor),f
  6279  0A74  0DF1               	rlf	(___lwmod@divisor+1),f
  6280  0A75  3EFF               	addlw	-1
  6281  0A76  1D03               	skipz
  6282  0A77  2A72               	goto	u1335
  6283                           	line	12
  6284                           	
  6285  0A78                     l2075:	
  6286  0A78  3001               	movlw	(01h)
  6287  0A79  00F4               	movwf	(??___lwmod+0)+0
  6288  0A7A  0874               	movf	(??___lwmod+0)+0,w
  6289  0A7B  07F5               	addwf	(___lwmod@counter),f
  6290  0A7C  2A7D               	goto	l2077
  6291                           	line	13
  6292                           	
  6293  0A7D                     l378:	
  6294                           	line	10
  6295                           	
  6296  0A7D                     l2077:	
  6297  0A7D  1FF1               	btfss	(___lwmod@divisor+1),(15)&7
  6298  0A7E  2A80               	goto	u1341
  6299  0A7F  2A81               	goto	u1340
  6300  0A80                     u1341:
  6301  0A80  2A71               	goto	l2073
  6302  0A81                     u1340:
  6303  0A81  2A83               	goto	l2079
  6304                           	
  6305  0A82                     l380:	
  6306  0A82  2A83               	goto	l2079
  6307                           	line	14
  6308                           	
  6309  0A83                     l381:	
  6310                           	line	15
  6311                           	
  6312  0A83                     l2079:	
  6313  0A83  0871               	movf	(___lwmod@divisor+1),w
  6314  0A84  0273               	subwf	(___lwmod@dividend+1),w
  6315  0A85  1D03               	skipz
  6316  0A86  2A89               	goto	u1355
  6317  0A87  0870               	movf	(___lwmod@divisor),w
  6318  0A88  0272               	subwf	(___lwmod@dividend),w
  6319  0A89                     u1355:
  6320  0A89  1C03               	skipc
  6321  0A8A  2A8C               	goto	u1351
  6322  0A8B  2A8D               	goto	u1350
  6323  0A8C                     u1351:
  6324  0A8C  2A94               	goto	l2083
  6325  0A8D                     u1350:
  6326                           	line	16
  6327                           	
  6328  0A8D                     l2081:	
  6329  0A8D  0870               	movf	(___lwmod@divisor),w
  6330  0A8E  02F2               	subwf	(___lwmod@dividend),f
  6331  0A8F  0871               	movf	(___lwmod@divisor+1),w
  6332  0A90  1C03               	skipc
  6333  0A91  03F3               	decf	(___lwmod@dividend+1),f
  6334  0A92  02F3               	subwf	(___lwmod@dividend+1),f
  6335  0A93  2A94               	goto	l2083
  6336                           	
  6337  0A94                     l382:	
  6338                           	line	17
  6339                           	
  6340  0A94                     l2083:	
  6341  0A94  3001               	movlw	01h
  6342                           	
  6343  0A95                     u1365:
  6344  0A95  1003               	clrc
  6345  0A96  0CF1               	rrf	(___lwmod@divisor+1),f
  6346  0A97  0CF0               	rrf	(___lwmod@divisor),f
  6347  0A98  3EFF               	addlw	-1
  6348  0A99  1D03               	skipz
  6349  0A9A  2A95               	goto	u1365
  6350                           	line	18
  6351                           	
  6352  0A9B                     l2085:	
  6353  0A9B  3001               	movlw	low(01h)
  6354  0A9C  02F5               	subwf	(___lwmod@counter),f
  6355  0A9D  1D03               	btfss	status,2
  6356  0A9E  2AA0               	goto	u1371
  6357  0A9F  2AA1               	goto	u1370
  6358  0AA0                     u1371:
  6359  0AA0  2A83               	goto	l2079
  6360  0AA1                     u1370:
  6361  0AA1  2AA3               	goto	l2087
  6362                           	
  6363  0AA2                     l383:	
  6364  0AA2  2AA3               	goto	l2087
  6365                           	line	19
  6366                           	
  6367  0AA3                     l377:	
  6368                           	line	20
  6369                           	
  6370  0AA3                     l2087:	
  6371  0AA3  0873               	movf	(___lwmod@dividend+1),w
  6372  0AA4  01F1               	clrf	(?___lwmod+1)
  6373  0AA5  07F1               	addwf	(?___lwmod+1)
  6374  0AA6  0872               	movf	(___lwmod@dividend),w
  6375  0AA7  01F0               	clrf	(?___lwmod)
  6376  0AA8  07F0               	addwf	(?___lwmod)
  6377                           
  6378  0AA9  2AAA               	goto	l384
  6379                           	
  6380  0AAA                     l2089:	
  6381                           	line	21
  6382                           	
  6383  0AAA                     l384:	
  6384  0AAA  0008               	return
  6385                           	opt stack 0
  6386                           GLOBAL	__end_of___lwmod
  6387  0AAB                     	__end_of___lwmod:
  6388                           	signat	___lwmod,8314
  6389                           	global	___awdiv
  6390                           
  6391 ;; *************** function ___awdiv *****************
  6392 ;; Defined at:
  6393 ;;		line 5 in file "C:\Program Files (x86)\Microchip\xc8\v1.00\sources\awdiv.c"
  6394 ;; Parameters:    Size  Location     Type
  6395 ;;  divisor         2    7[COMMON] int 
  6396 ;;  dividend        2    9[COMMON] int 
  6397 ;; Auto vars:     Size  Location     Type
  6398 ;;  quotient        2    2[BANK0 ] int 
  6399 ;;  sign            1    1[BANK0 ] unsigned char 
  6400 ;;  counter         1    0[BANK0 ] unsigned char 
  6401 ;; Return value:  Size  Location     Type
  6402 ;;                  2    7[COMMON] int 
  6403 ;; Registers used:
  6404 ;;		wreg, status,2, status,0
  6405 ;; Tracked objects:
  6406 ;;		On entry : 0/0
  6407 ;;		On exit  : 0/0
  6408 ;;		Unchanged: 0/0
  6409 ;; Data sizes:     COMMON   BANK0   BANK1   BANK3   BANK2
  6410 ;;      Params:         4       0       0       0       0
  6411 ;;      Locals:         0       4       0       0       0
  6412 ;;      Temps:          1       0       0       0       0
  6413 ;;      Totals:         5       4       0       0       0
  6414 ;;Total ram usage:        9 bytes
  6415 ;; Hardware stack levels used:    1
  6416 ;; This function calls:
  6417 ;;		Nothing
  6418 ;; This function is called by:
  6419 ;;		_mode2
  6420 ;; This function uses a non-reentrant model
  6421 ;;
  6422                           psect	text363,local,class=CODE,delta=2,merge=1
  6423                           global __ptext363
  6424  0CCC                     __ptext363:
  6425                           psect	text363
  6426                           	file	"C:\Program Files (x86)\Microchip\xc8\v1.00\sources\awdiv.c"
  6427                           	line	5
  6428                           	global	__size_of___awdiv
  6429  0076                     	__size_of___awdiv	equ	__end_of___awdiv-___awdiv
  6430                           	
  6431  0CCC                     ___awdiv:	
  6432                           	opt	stack 6
  6433                           ; Regs used in ___awdiv: [wreg+status,2+status,0]
  6434                           	line	9
  6435                           	
  6436  0CCC                     l2249:	
  6437  0CCC  1283               	bcf	status, 5	;RP0=0, select bank0
  6438  0CCD  1303               	bcf	status, 6	;RP1=0, select bank0
  6439  0CCE  01A1               	clrf	(___awdiv@sign)
  6440                           	line	10
  6441  0CCF  1FF8               	btfss	(___awdiv@divisor+1),7
  6442  0CD0  2CD2               	goto	u1721
  6443  0CD1  2CD3               	goto	u1720
  6444  0CD2                     u1721:
  6445  0CD2  2CDC               	goto	l2253
  6446  0CD3                     u1720:
  6447                           	line	11
  6448                           	
  6449  0CD3                     l2251:	
  6450  0CD3  09F7               	comf	(___awdiv@divisor),f
  6451  0CD4  09F8               	comf	(___awdiv@divisor+1),f
  6452  0CD5  0AF7               	incf	(___awdiv@divisor),f
  6453  0CD6  1903               	skipnz
  6454  0CD7  0AF8               	incf	(___awdiv@divisor+1),f
  6455                           	line	12
  6456  0CD8  01A1               	clrf	(___awdiv@sign)
  6457  0CD9  1403               	bsf	status,0
  6458  0CDA  0DA1               	rlf	(___awdiv@sign),f
  6459  0CDB  2CDC               	goto	l2253
  6460                           	line	13
  6461                           	
  6462  0CDC                     l501:	
  6463                           	line	14
  6464                           	
  6465  0CDC                     l2253:	
  6466  0CDC  1FFA               	btfss	(___awdiv@dividend+1),7
  6467  0CDD  2CDF               	goto	u1731
  6468  0CDE  2CE0               	goto	u1730
  6469  0CDF                     u1731:
  6470  0CDF  2CEA               	goto	l2259
  6471  0CE0                     u1730:
  6472                           	line	15
  6473                           	
  6474  0CE0                     l2255:	
  6475  0CE0  09F9               	comf	(___awdiv@dividend),f
  6476  0CE1  09FA               	comf	(___awdiv@dividend+1),f
  6477  0CE2  0AF9               	incf	(___awdiv@dividend),f
  6478  0CE3  1903               	skipnz
  6479  0CE4  0AFA               	incf	(___awdiv@dividend+1),f
  6480                           	line	16
  6481                           	
  6482  0CE5                     l2257:	
  6483  0CE5  3001               	movlw	(01h)
  6484  0CE6  00FB               	movwf	(??___awdiv+0)+0
  6485  0CE7  087B               	movf	(??___awdiv+0)+0,w
  6486  0CE8  06A1               	xorwf	(___awdiv@sign),f
  6487  0CE9  2CEA               	goto	l2259
  6488                           	line	17
  6489                           	
  6490  0CEA                     l502:	
  6491                           	line	18
  6492                           	
  6493  0CEA                     l2259:	
  6494  0CEA  01A2               	clrf	(___awdiv@quotient)
  6495  0CEB  01A3               	clrf	(___awdiv@quotient+1)
  6496                           	line	19
  6497                           	
  6498  0CEC                     l2261:	
  6499  0CEC  0878               	movf	(___awdiv@divisor+1),w
  6500  0CED  0477               	iorwf	(___awdiv@divisor),w
  6501  0CEE  1903               	skipnz
  6502  0CEF  2CF1               	goto	u1741
  6503  0CF0  2CF2               	goto	u1740
  6504  0CF1                     u1741:
  6505  0CF1  2D30               	goto	l2281
  6506  0CF2                     u1740:
  6507                           	line	20
  6508                           	
  6509  0CF2                     l2263:	
  6510  0CF2  01A0               	clrf	(___awdiv@counter)
  6511  0CF3  1403               	bsf	status,0
  6512  0CF4  0DA0               	rlf	(___awdiv@counter),f
  6513                           	line	21
  6514  0CF5  2D02               	goto	l2269
  6515                           	
  6516  0CF6                     l505:	
  6517                           	line	22
  6518                           	
  6519  0CF6                     l2265:	
  6520  0CF6  3001               	movlw	01h
  6521                           	
  6522  0CF7                     u1755:
  6523  0CF7  1003               	clrc
  6524  0CF8  0DF7               	rlf	(___awdiv@divisor),f
  6525  0CF9  0DF8               	rlf	(___awdiv@divisor+1),f
  6526  0CFA  3EFF               	addlw	-1
  6527  0CFB  1D03               	skipz
  6528  0CFC  2CF7               	goto	u1755
  6529                           	line	23
  6530                           	
  6531  0CFD                     l2267:	
  6532  0CFD  3001               	movlw	(01h)
  6533  0CFE  00FB               	movwf	(??___awdiv+0)+0
  6534  0CFF  087B               	movf	(??___awdiv+0)+0,w
  6535  0D00  07A0               	addwf	(___awdiv@counter),f
  6536  0D01  2D02               	goto	l2269
  6537                           	line	24
  6538                           	
  6539  0D02                     l504:	
  6540                           	line	21
  6541                           	
  6542  0D02                     l2269:	
  6543  0D02  1FF8               	btfss	(___awdiv@divisor+1),(15)&7
  6544  0D03  2D05               	goto	u1761
  6545  0D04  2D06               	goto	u1760
  6546  0D05                     u1761:
  6547  0D05  2CF6               	goto	l2265
  6548  0D06                     u1760:
  6549  0D06  2D08               	goto	l2271
  6550                           	
  6551  0D07                     l506:	
  6552  0D07  2D08               	goto	l2271
  6553                           	line	25
  6554                           	
  6555  0D08                     l507:	
  6556                           	line	26
  6557                           	
  6558  0D08                     l2271:	
  6559  0D08  3001               	movlw	01h
  6560                           	
  6561  0D09                     u1775:
  6562  0D09  1003               	clrc
  6563  0D0A  0DA2               	rlf	(___awdiv@quotient),f
  6564  0D0B  0DA3               	rlf	(___awdiv@quotient+1),f
  6565  0D0C  3EFF               	addlw	-1
  6566  0D0D  1D03               	skipz
  6567  0D0E  2D09               	goto	u1775
  6568                           	line	27
  6569  0D0F  0878               	movf	(___awdiv@divisor+1),w
  6570  0D10  027A               	subwf	(___awdiv@dividend+1),w
  6571  0D11  1D03               	skipz
  6572  0D12  2D15               	goto	u1785
  6573  0D13  0877               	movf	(___awdiv@divisor),w
  6574  0D14  0279               	subwf	(___awdiv@dividend),w
  6575  0D15                     u1785:
  6576  0D15  1C03               	skipc
  6577  0D16  2D18               	goto	u1781
  6578  0D17  2D19               	goto	u1780
  6579  0D18                     u1781:
  6580  0D18  2D21               	goto	l2277
  6581  0D19                     u1780:
  6582                           	line	28
  6583                           	
  6584  0D19                     l2273:	
  6585  0D19  0877               	movf	(___awdiv@divisor),w
  6586  0D1A  02F9               	subwf	(___awdiv@dividend),f
  6587  0D1B  0878               	movf	(___awdiv@divisor+1),w
  6588  0D1C  1C03               	skipc
  6589  0D1D  03FA               	decf	(___awdiv@dividend+1),f
  6590  0D1E  02FA               	subwf	(___awdiv@dividend+1),f
  6591                           	line	29
  6592                           	
  6593  0D1F                     l2275:	
  6594  0D1F  1422               	bsf	(___awdiv@quotient)+(0/8),(0)&7
  6595  0D20  2D21               	goto	l2277
  6596                           	line	30
  6597                           	
  6598  0D21                     l508:	
  6599                           	line	31
  6600                           	
  6601  0D21                     l2277:	
  6602  0D21  3001               	movlw	01h
  6603                           	
  6604  0D22                     u1795:
  6605  0D22  1003               	clrc
  6606  0D23  0CF8               	rrf	(___awdiv@divisor+1),f
  6607  0D24  0CF7               	rrf	(___awdiv@divisor),f
  6608  0D25  3EFF               	addlw	-1
  6609  0D26  1D03               	skipz
  6610  0D27  2D22               	goto	u1795
  6611                           	line	32
  6612                           	
  6613  0D28                     l2279:	
  6614  0D28  3001               	movlw	low(01h)
  6615  0D29  02A0               	subwf	(___awdiv@counter),f
  6616  0D2A  1D03               	btfss	status,2
  6617  0D2B  2D2D               	goto	u1801
  6618  0D2C  2D2E               	goto	u1800
  6619  0D2D                     u1801:
  6620  0D2D  2D08               	goto	l2271
  6621  0D2E                     u1800:
  6622  0D2E  2D30               	goto	l2281
  6623                           	
  6624  0D2F                     l509:	
  6625  0D2F  2D30               	goto	l2281
  6626                           	line	33
  6627                           	
  6628  0D30                     l503:	
  6629                           	line	34
  6630                           	
  6631  0D30                     l2281:	
  6632  0D30  0821               	movf	(___awdiv@sign),w
  6633  0D31  1D03               	skipz
  6634  0D32  2D34               	goto	u1810
  6635  0D33  2D3A               	goto	l2285
  6636  0D34                     u1810:
  6637                           	line	35
  6638                           	
  6639  0D34                     l2283:	
  6640  0D34  09A2               	comf	(___awdiv@quotient),f
  6641  0D35  09A3               	comf	(___awdiv@quotient+1),f
  6642  0D36  0AA2               	incf	(___awdiv@quotient),f
  6643  0D37  1903               	skipnz
  6644  0D38  0AA3               	incf	(___awdiv@quotient+1),f
  6645  0D39  2D3A               	goto	l2285
  6646                           	
  6647  0D3A                     l510:	
  6648                           	line	36
  6649                           	
  6650  0D3A                     l2285:	
  6651  0D3A  0823               	movf	(___awdiv@quotient+1),w
  6652  0D3B  01F8               	clrf	(?___awdiv+1)
  6653  0D3C  07F8               	addwf	(?___awdiv+1)
  6654  0D3D  0822               	movf	(___awdiv@quotient),w
  6655  0D3E  01F7               	clrf	(?___awdiv)
  6656  0D3F  07F7               	addwf	(?___awdiv)
  6657                           
  6658  0D40  2D41               	goto	l511
  6659                           	
  6660  0D41                     l2287:	
  6661                           	line	37
  6662                           	
  6663  0D41                     l511:	
  6664  0D41  0008               	return
  6665                           	opt stack 0
  6666                           GLOBAL	__end_of___awdiv
  6667  0D42                     	__end_of___awdiv:
  6668                           	signat	___awdiv,8314
  6669                           	global	___llmod
  6670                           
  6671 ;; *************** function ___llmod *****************
  6672 ;; Defined at:
  6673 ;;		line 5 in file "C:\Program Files (x86)\Microchip\xc8\v1.00\sources\llmod.c"
  6674 ;; Parameters:    Size  Location     Type
  6675 ;;  divisor         4    0[COMMON] unsigned long 
  6676 ;;  dividend        4    4[COMMON] unsigned long 
  6677 ;; Auto vars:     Size  Location     Type
  6678 ;;  counter         1    9[COMMON] unsigned char 
  6679 ;; Return value:  Size  Location     Type
  6680 ;;                  4    0[COMMON] unsigned long 
  6681 ;; Registers used:
  6682 ;;		wreg, status,2, status,0
  6683 ;; Tracked objects:
  6684 ;;		On entry : 0/0
  6685 ;;		On exit  : 0/0
  6686 ;;		Unchanged: 0/0
  6687 ;; Data sizes:     COMMON   BANK0   BANK1   BANK3   BANK2
  6688 ;;      Params:         8       0       0       0       0
  6689 ;;      Locals:         1       0       0       0       0
  6690 ;;      Temps:          1       0       0       0       0
  6691 ;;      Totals:        10       0       0       0       0
  6692 ;;Total ram usage:       10 bytes
  6693 ;; Hardware stack levels used:    1
  6694 ;; This function calls:
  6695 ;;		Nothing
  6696 ;; This function is called by:
  6697 ;;		_mode3
  6698 ;; This function uses a non-reentrant model
  6699 ;;
  6700                           psect	text364,local,class=CODE,delta=2,merge=1
  6701                           global __ptext364
  6702  0B9C                     __ptext364:
  6703                           psect	text364
  6704                           	file	"C:\Program Files (x86)\Microchip\xc8\v1.00\sources\llmod.c"
  6705                           	line	5
  6706                           	global	__size_of___llmod
  6707  005C                     	__size_of___llmod	equ	__end_of___llmod-___llmod
  6708                           	
  6709  0B9C                     ___llmod:	
  6710                           	opt	stack 6
  6711                           ; Regs used in ___llmod: [wreg+status,2+status,0]
  6712                           	line	8
  6713                           	
  6714  0B9C                     l2091:	
  6715  0B9C  0873               	movf	(___llmod@divisor+3),w
  6716  0B9D  0472               	iorwf	(___llmod@divisor+2),w
  6717  0B9E  0471               	iorwf	(___llmod@divisor+1),w
  6718  0B9F  0470               	iorwf	(___llmod@divisor),w
  6719  0BA0  1903               	skipnz
  6720  0BA1  2BA3               	goto	u1381
  6721  0BA2  2BA4               	goto	u1380
  6722  0BA3                     u1381:
  6723  0BA3  2BEE               	goto	l2107
  6724  0BA4                     u1380:
  6725                           	line	9
  6726                           	
  6727  0BA4                     l2093:	
  6728  0BA4  01F9               	clrf	(___llmod@counter)
  6729  0BA5  1403               	bsf	status,0
  6730  0BA6  0DF9               	rlf	(___llmod@counter),f
  6731                           	line	10
  6732  0BA7  2BB6               	goto	l2097
  6733                           	
  6734  0BA8                     l516:	
  6735                           	line	11
  6736                           	
  6737  0BA8                     l2095:	
  6738  0BA8  3001               	movlw	01h
  6739  0BA9  00F8               	movwf	(??___llmod+0)+0
  6740  0BAA                     u1395:
  6741  0BAA  1003               	clrc
  6742  0BAB  0DF0               	rlf	(___llmod@divisor),f
  6743  0BAC  0DF1               	rlf	(___llmod@divisor+1),f
  6744  0BAD  0DF2               	rlf	(___llmod@divisor+2),f
  6745  0BAE  0DF3               	rlf	(___llmod@divisor+3),f
  6746  0BAF  0BF8               	decfsz	(??___llmod+0)+0
  6747  0BB0  2BAA               	goto	u1395
  6748                           	line	12
  6749  0BB1  3001               	movlw	(01h)
  6750  0BB2  00F8               	movwf	(??___llmod+0)+0
  6751  0BB3  0878               	movf	(??___llmod+0)+0,w
  6752  0BB4  07F9               	addwf	(___llmod@counter),f
  6753  0BB5  2BB6               	goto	l2097
  6754                           	line	13
  6755                           	
  6756  0BB6                     l515:	
  6757                           	line	10
  6758                           	
  6759  0BB6                     l2097:	
  6760  0BB6  1FF3               	btfss	(___llmod@divisor+3),(31)&7
  6761  0BB7  2BB9               	goto	u1401
  6762  0BB8  2BBA               	goto	u1400
  6763  0BB9                     u1401:
  6764  0BB9  2BA8               	goto	l2095
  6765  0BBA                     u1400:
  6766  0BBA  2BBC               	goto	l2099
  6767                           	
  6768  0BBB                     l517:	
  6769  0BBB  2BBC               	goto	l2099
  6770                           	line	14
  6771                           	
  6772  0BBC                     l518:	
  6773                           	line	15
  6774                           	
  6775  0BBC                     l2099:	
  6776  0BBC  0873               	movf	(___llmod@divisor+3),w
  6777  0BBD  0277               	subwf	(___llmod@dividend+3),w
  6778  0BBE  1D03               	skipz
  6779  0BBF  2BCA               	goto	u1415
  6780  0BC0  0872               	movf	(___llmod@divisor+2),w
  6781  0BC1  0276               	subwf	(___llmod@dividend+2),w
  6782  0BC2  1D03               	skipz
  6783  0BC3  2BCA               	goto	u1415
  6784  0BC4  0871               	movf	(___llmod@divisor+1),w
  6785  0BC5  0275               	subwf	(___llmod@dividend+1),w
  6786  0BC6  1D03               	skipz
  6787  0BC7  2BCA               	goto	u1415
  6788  0BC8  0870               	movf	(___llmod@divisor),w
  6789  0BC9  0274               	subwf	(___llmod@dividend),w
  6790  0BCA                     u1415:
  6791  0BCA  1C03               	skipc
  6792  0BCB  2BCD               	goto	u1411
  6793  0BCC  2BCE               	goto	u1410
  6794  0BCD                     u1411:
  6795  0BCD  2BDD               	goto	l2103
  6796  0BCE                     u1410:
  6797                           	line	16
  6798                           	
  6799  0BCE                     l2101:	
  6800  0BCE  0870               	movf	(___llmod@divisor),w
  6801  0BCF  02F4               	subwf	(___llmod@dividend),f
  6802  0BD0  0871               	movf	(___llmod@divisor+1),w
  6803  0BD1  1C03               	skipc
  6804  0BD2  0F71               	incfsz	(___llmod@divisor+1),w
  6805  0BD3  02F5               	subwf	(___llmod@dividend+1),f
  6806  0BD4  0872               	movf	(___llmod@divisor+2),w
  6807  0BD5  1C03               	skipc
  6808  0BD6  0F72               	incfsz	(___llmod@divisor+2),w
  6809  0BD7  02F6               	subwf	(___llmod@dividend+2),f
  6810  0BD8  0873               	movf	(___llmod@divisor+3),w
  6811  0BD9  1C03               	skipc
  6812  0BDA  0F73               	incfsz	(___llmod@divisor+3),w
  6813  0BDB  02F7               	subwf	(___llmod@dividend+3),f
  6814  0BDC  2BDD               	goto	l2103
  6815                           	
  6816  0BDD                     l519:	
  6817                           	line	17
  6818                           	
  6819  0BDD                     l2103:	
  6820  0BDD  3001               	movlw	01h
  6821  0BDE                     u1425:
  6822  0BDE  1003               	clrc
  6823  0BDF  0CF3               	rrf	(___llmod@divisor+3),f
  6824  0BE0  0CF2               	rrf	(___llmod@divisor+2),f
  6825  0BE1  0CF1               	rrf	(___llmod@divisor+1),f
  6826  0BE2  0CF0               	rrf	(___llmod@divisor),f
  6827  0BE3  3EFF               	addlw	-1
  6828  0BE4  1D03               	skipz
  6829  0BE5  2BDE               	goto	u1425
  6830                           
  6831                           	line	18
  6832                           	
  6833  0BE6                     l2105:	
  6834  0BE6  3001               	movlw	low(01h)
  6835  0BE7  02F9               	subwf	(___llmod@counter),f
  6836  0BE8  1D03               	btfss	status,2
  6837  0BE9  2BEB               	goto	u1431
  6838  0BEA  2BEC               	goto	u1430
  6839  0BEB                     u1431:
  6840  0BEB  2BBC               	goto	l2099
  6841  0BEC                     u1430:
  6842  0BEC  2BEE               	goto	l2107
  6843                           	
  6844  0BED                     l520:	
  6845  0BED  2BEE               	goto	l2107
  6846                           	line	19
  6847                           	
  6848  0BEE                     l514:	
  6849                           	line	20
  6850                           	
  6851  0BEE                     l2107:	
  6852  0BEE  0877               	movf	(___llmod@dividend+3),w
  6853  0BEF  00F3               	movwf	(?___llmod+3)
  6854  0BF0  0876               	movf	(___llmod@dividend+2),w
  6855  0BF1  00F2               	movwf	(?___llmod+2)
  6856  0BF2  0875               	movf	(___llmod@dividend+1),w
  6857  0BF3  00F1               	movwf	(?___llmod+1)
  6858  0BF4  0874               	movf	(___llmod@dividend),w
  6859  0BF5  00F0               	movwf	(?___llmod)
  6860                           
  6861  0BF6  2BF7               	goto	l521
  6862                           	
  6863  0BF7                     l2109:	
  6864                           	line	21
  6865                           	
  6866  0BF7                     l521:	
  6867  0BF7  0008               	return
  6868                           	opt stack 0
  6869                           GLOBAL	__end_of___llmod
  6870  0BF8                     	__end_of___llmod:
  6871                           	signat	___llmod,8316
  6872                           	global	___lldiv
  6873                           
  6874 ;; *************** function ___lldiv *****************
  6875 ;; Defined at:
  6876 ;;		line 5 in file "C:\Program Files (x86)\Microchip\xc8\v1.00\sources\lldiv.c"
  6877 ;; Parameters:    Size  Location     Type
  6878 ;;  divisor         4    0[COMMON] unsigned long 
  6879 ;;  dividend        4    4[COMMON] unsigned long 
  6880 ;; Auto vars:     Size  Location     Type
  6881 ;;  quotient        4    9[COMMON] unsigned long 
  6882 ;;  counter         1   13[COMMON] unsigned char 
  6883 ;; Return value:  Size  Location     Type
  6884 ;;                  4    0[COMMON] unsigned long 
  6885 ;; Registers used:
  6886 ;;		wreg, status,2, status,0
  6887 ;; Tracked objects:
  6888 ;;		On entry : 0/0
  6889 ;;		On exit  : 0/0
  6890 ;;		Unchanged: 0/0
  6891 ;; Data sizes:     COMMON   BANK0   BANK1   BANK3   BANK2
  6892 ;;      Params:         8       0       0       0       0
  6893 ;;      Locals:         5       0       0       0       0
  6894 ;;      Temps:          1       0       0       0       0
  6895 ;;      Totals:        14       0       0       0       0
  6896 ;;Total ram usage:       14 bytes
  6897 ;; Hardware stack levels used:    1
  6898 ;; This function calls:
  6899 ;;		Nothing
  6900 ;; This function is called by:
  6901 ;;		_mode3
  6902 ;; This function uses a non-reentrant model
  6903 ;;
  6904                           psect	text365,local,class=CODE,delta=2,merge=1
  6905                           global __ptext365
  6906  0C5E                     __ptext365:
  6907                           psect	text365
  6908                           	file	"C:\Program Files (x86)\Microchip\xc8\v1.00\sources\lldiv.c"
  6909                           	line	5
  6910                           	global	__size_of___lldiv
  6911  006E                     	__size_of___lldiv	equ	__end_of___lldiv-___lldiv
  6912                           	
  6913  0C5E                     ___lldiv:	
  6914                           	opt	stack 6
  6915                           ; Regs used in ___lldiv: [wreg+status,2+status,0]
  6916                           	line	9
  6917                           	
  6918  0C5E                     l2111:	
  6919  0C5E  3000               	movlw	0
  6920  0C5F  00FC               	movwf	(___lldiv@quotient+3)
  6921  0C60  3000               	movlw	0
  6922  0C61  00FB               	movwf	(___lldiv@quotient+2)
  6923  0C62  3000               	movlw	0
  6924  0C63  00FA               	movwf	(___lldiv@quotient+1)
  6925  0C64  3000               	movlw	0
  6926  0C65  00F9               	movwf	(___lldiv@quotient)
  6927                           
  6928                           	line	10
  6929  0C66  0873               	movf	(___lldiv@divisor+3),w
  6930  0C67  0472               	iorwf	(___lldiv@divisor+2),w
  6931  0C68  0471               	iorwf	(___lldiv@divisor+1),w
  6932  0C69  0470               	iorwf	(___lldiv@divisor),w
  6933  0C6A  1903               	skipnz
  6934  0C6B  2C6D               	goto	u1441
  6935  0C6C  2C6E               	goto	u1440
  6936  0C6D                     u1441:
  6937  0C6D  2CC2               	goto	l2131
  6938  0C6E                     u1440:
  6939                           	line	11
  6940                           	
  6941  0C6E                     l2113:	
  6942  0C6E  01FD               	clrf	(___lldiv@counter)
  6943  0C6F  1403               	bsf	status,0
  6944  0C70  0DFD               	rlf	(___lldiv@counter),f
  6945                           	line	12
  6946  0C71  2C80               	goto	l2117
  6947                           	
  6948  0C72                     l535:	
  6949                           	line	13
  6950                           	
  6951  0C72                     l2115:	
  6952  0C72  3001               	movlw	01h
  6953  0C73  00F8               	movwf	(??___lldiv+0)+0
  6954  0C74                     u1455:
  6955  0C74  1003               	clrc
  6956  0C75  0DF0               	rlf	(___lldiv@divisor),f
  6957  0C76  0DF1               	rlf	(___lldiv@divisor+1),f
  6958  0C77  0DF2               	rlf	(___lldiv@divisor+2),f
  6959  0C78  0DF3               	rlf	(___lldiv@divisor+3),f
  6960  0C79  0BF8               	decfsz	(??___lldiv+0)+0
  6961  0C7A  2C74               	goto	u1455
  6962                           	line	14
  6963  0C7B  3001               	movlw	(01h)
  6964  0C7C  00F8               	movwf	(??___lldiv+0)+0
  6965  0C7D  0878               	movf	(??___lldiv+0)+0,w
  6966  0C7E  07FD               	addwf	(___lldiv@counter),f
  6967  0C7F  2C80               	goto	l2117
  6968                           	line	15
  6969                           	
  6970  0C80                     l534:	
  6971                           	line	12
  6972                           	
  6973  0C80                     l2117:	
  6974  0C80  1FF3               	btfss	(___lldiv@divisor+3),(31)&7
  6975  0C81  2C83               	goto	u1461
  6976  0C82  2C84               	goto	u1460
  6977  0C83                     u1461:
  6978  0C83  2C72               	goto	l2115
  6979  0C84                     u1460:
  6980  0C84  2C86               	goto	l2119
  6981                           	
  6982  0C85                     l536:	
  6983  0C85  2C86               	goto	l2119
  6984                           	line	16
  6985                           	
  6986  0C86                     l537:	
  6987                           	line	17
  6988                           	
  6989  0C86                     l2119:	
  6990  0C86  3001               	movlw	01h
  6991  0C87  00F8               	movwf	(??___lldiv+0)+0
  6992  0C88                     u1475:
  6993  0C88  1003               	clrc
  6994  0C89  0DF9               	rlf	(___lldiv@quotient),f
  6995  0C8A  0DFA               	rlf	(___lldiv@quotient+1),f
  6996  0C8B  0DFB               	rlf	(___lldiv@quotient+2),f
  6997  0C8C  0DFC               	rlf	(___lldiv@quotient+3),f
  6998  0C8D  0BF8               	decfsz	(??___lldiv+0)+0
  6999  0C8E  2C88               	goto	u1475
  7000                           	line	18
  7001                           	
  7002  0C8F                     l2121:	
  7003  0C8F  0873               	movf	(___lldiv@divisor+3),w
  7004  0C90  0277               	subwf	(___lldiv@dividend+3),w
  7005  0C91  1D03               	skipz
  7006  0C92  2C9D               	goto	u1485
  7007  0C93  0872               	movf	(___lldiv@divisor+2),w
  7008  0C94  0276               	subwf	(___lldiv@dividend+2),w
  7009  0C95  1D03               	skipz
  7010  0C96  2C9D               	goto	u1485
  7011  0C97  0871               	movf	(___lldiv@divisor+1),w
  7012  0C98  0275               	subwf	(___lldiv@dividend+1),w
  7013  0C99  1D03               	skipz
  7014  0C9A  2C9D               	goto	u1485
  7015  0C9B  0870               	movf	(___lldiv@divisor),w
  7016  0C9C  0274               	subwf	(___lldiv@dividend),w
  7017  0C9D                     u1485:
  7018  0C9D  1C03               	skipc
  7019  0C9E  2CA0               	goto	u1481
  7020  0C9F  2CA1               	goto	u1480
  7021  0CA0                     u1481:
  7022  0CA0  2CB1               	goto	l2127
  7023  0CA1                     u1480:
  7024                           	line	19
  7025                           	
  7026  0CA1                     l2123:	
  7027  0CA1  0870               	movf	(___lldiv@divisor),w
  7028  0CA2  02F4               	subwf	(___lldiv@dividend),f
  7029  0CA3  0871               	movf	(___lldiv@divisor+1),w
  7030  0CA4  1C03               	skipc
  7031  0CA5  0F71               	incfsz	(___lldiv@divisor+1),w
  7032  0CA6  02F5               	subwf	(___lldiv@dividend+1),f
  7033  0CA7  0872               	movf	(___lldiv@divisor+2),w
  7034  0CA8  1C03               	skipc
  7035  0CA9  0F72               	incfsz	(___lldiv@divisor+2),w
  7036  0CAA  02F6               	subwf	(___lldiv@dividend+2),f
  7037  0CAB  0873               	movf	(___lldiv@divisor+3),w
  7038  0CAC  1C03               	skipc
  7039  0CAD  0F73               	incfsz	(___lldiv@divisor+3),w
  7040  0CAE  02F7               	subwf	(___lldiv@dividend+3),f
  7041                           	line	20
  7042                           	
  7043  0CAF                     l2125:	
  7044  0CAF  1479               	bsf	(___lldiv@quotient)+(0/8),(0)&7
  7045  0CB0  2CB1               	goto	l2127
  7046                           	line	21
  7047                           	
  7048  0CB1                     l538:	
  7049                           	line	22
  7050                           	
  7051  0CB1                     l2127:	
  7052  0CB1  3001               	movlw	01h
  7053  0CB2                     u1495:
  7054  0CB2  1003               	clrc
  7055  0CB3  0CF3               	rrf	(___lldiv@divisor+3),f
  7056  0CB4  0CF2               	rrf	(___lldiv@divisor+2),f
  7057  0CB5  0CF1               	rrf	(___lldiv@divisor+1),f
  7058  0CB6  0CF0               	rrf	(___lldiv@divisor),f
  7059  0CB7  3EFF               	addlw	-1
  7060  0CB8  1D03               	skipz
  7061  0CB9  2CB2               	goto	u1495
  7062                           
  7063                           	line	23
  7064                           	
  7065  0CBA                     l2129:	
  7066  0CBA  3001               	movlw	low(01h)
  7067  0CBB  02FD               	subwf	(___lldiv@counter),f
  7068  0CBC  1D03               	btfss	status,2
  7069  0CBD  2CBF               	goto	u1501
  7070  0CBE  2CC0               	goto	u1500
  7071  0CBF                     u1501:
  7072  0CBF  2C86               	goto	l2119
  7073  0CC0                     u1500:
  7074  0CC0  2CC2               	goto	l2131
  7075                           	
  7076  0CC1                     l539:	
  7077  0CC1  2CC2               	goto	l2131
  7078                           	line	24
  7079                           	
  7080  0CC2                     l533:	
  7081                           	line	25
  7082                           	
  7083  0CC2                     l2131:	
  7084  0CC2  087C               	movf	(___lldiv@quotient+3),w
  7085  0CC3  00F3               	movwf	(?___lldiv+3)
  7086  0CC4  087B               	movf	(___lldiv@quotient+2),w
  7087  0CC5  00F2               	movwf	(?___lldiv+2)
  7088  0CC6  087A               	movf	(___lldiv@quotient+1),w
  7089  0CC7  00F1               	movwf	(?___lldiv+1)
  7090  0CC8  0879               	movf	(___lldiv@quotient),w
  7091  0CC9  00F0               	movwf	(?___lldiv)
  7092                           
  7093  0CCA  2CCB               	goto	l540
  7094                           	
  7095  0CCB                     l2133:	
  7096                           	line	26
  7097                           	
  7098  0CCB                     l540:	
  7099  0CCB  0008               	return
  7100                           	opt stack 0
  7101                           GLOBAL	__end_of___lldiv
  7102  0CCC                     	__end_of___lldiv:
  7103                           	signat	___lldiv,8316
  7104                           	global	___awmod
  7105                           
  7106 ;; *************** function ___awmod *****************
  7107 ;; Defined at:
  7108 ;;		line 5 in file "C:\Program Files (x86)\Microchip\xc8\v1.00\sources\awmod.c"
  7109 ;; Parameters:    Size  Location     Type
  7110 ;;  divisor         2    0[COMMON] int 
  7111 ;;  dividend        2    2[COMMON] int 
  7112 ;; Auto vars:     Size  Location     Type
  7113 ;;  sign            1    6[COMMON] unsigned char 
  7114 ;;  counter         1    5[COMMON] unsigned char 
  7115 ;; Return value:  Size  Location     Type
  7116 ;;                  2    0[COMMON] int 
  7117 ;; Registers used:
  7118 ;;		wreg, status,2, status,0
  7119 ;; Tracked objects:
  7120 ;;		On entry : 0/0
  7121 ;;		On exit  : 0/0
  7122 ;;		Unchanged: 0/0
  7123 ;; Data sizes:     COMMON   BANK0   BANK1   BANK3   BANK2
  7124 ;;      Params:         4       0       0       0       0
  7125 ;;      Locals:         2       0       0       0       0
  7126 ;;      Temps:          1       0       0       0       0
  7127 ;;      Totals:         7       0       0       0       0
  7128 ;;Total ram usage:        7 bytes
  7129 ;; Hardware stack levels used:    1
  7130 ;; This function calls:
  7131 ;;		Nothing
  7132 ;; This function is called by:
  7133 ;;		_mode2
  7134 ;; This function uses a non-reentrant model
  7135 ;;
  7136                           psect	text366,local,class=CODE,delta=2,merge=1
  7137                           global __ptext366
  7138  0BF8                     __ptext366:
  7139                           psect	text366
  7140                           	file	"C:\Program Files (x86)\Microchip\xc8\v1.00\sources\awmod.c"
  7141                           	line	5
  7142                           	global	__size_of___awmod
  7143  0066                     	__size_of___awmod	equ	__end_of___awmod-___awmod
  7144                           	
  7145  0BF8                     ___awmod:	
  7146                           	opt	stack 6
  7147                           ; Regs used in ___awmod: [wreg+status,2+status,0]
  7148                           	line	8
  7149                           	
  7150  0BF8                     l2135:	
  7151  0BF8  01F6               	clrf	(___awmod@sign)
  7152                           	line	9
  7153  0BF9  1FF3               	btfss	(___awmod@dividend+1),7
  7154  0BFA  2BFC               	goto	u1511
  7155  0BFB  2BFD               	goto	u1510
  7156  0BFC                     u1511:
  7157  0BFC  2C06               	goto	l2139
  7158  0BFD                     u1510:
  7159                           	line	10
  7160                           	
  7161  0BFD                     l2137:	
  7162  0BFD  09F2               	comf	(___awmod@dividend),f
  7163  0BFE  09F3               	comf	(___awmod@dividend+1),f
  7164  0BFF  0AF2               	incf	(___awmod@dividend),f
  7165  0C00  1903               	skipnz
  7166  0C01  0AF3               	incf	(___awmod@dividend+1),f
  7167                           	line	11
  7168  0C02  01F6               	clrf	(___awmod@sign)
  7169  0C03  1403               	bsf	status,0
  7170  0C04  0DF6               	rlf	(___awmod@sign),f
  7171  0C05  2C06               	goto	l2139
  7172                           	line	12
  7173                           	
  7174  0C06                     l569:	
  7175                           	line	13
  7176                           	
  7177  0C06                     l2139:	
  7178  0C06  1FF1               	btfss	(___awmod@divisor+1),7
  7179  0C07  2C09               	goto	u1521
  7180  0C08  2C0A               	goto	u1520
  7181  0C09                     u1521:
  7182  0C09  2C10               	goto	l2143
  7183  0C0A                     u1520:
  7184                           	line	14
  7185                           	
  7186  0C0A                     l2141:	
  7187  0C0A  09F0               	comf	(___awmod@divisor),f
  7188  0C0B  09F1               	comf	(___awmod@divisor+1),f
  7189  0C0C  0AF0               	incf	(___awmod@divisor),f
  7190  0C0D  1903               	skipnz
  7191  0C0E  0AF1               	incf	(___awmod@divisor+1),f
  7192  0C0F  2C10               	goto	l2143
  7193                           	
  7194  0C10                     l570:	
  7195                           	line	15
  7196                           	
  7197  0C10                     l2143:	
  7198  0C10  0871               	movf	(___awmod@divisor+1),w
  7199  0C11  0470               	iorwf	(___awmod@divisor),w
  7200  0C12  1903               	skipnz
  7201  0C13  2C15               	goto	u1531
  7202  0C14  2C16               	goto	u1530
  7203  0C15                     u1531:
  7204  0C15  2C4C               	goto	l2161
  7205  0C16                     u1530:
  7206                           	line	16
  7207                           	
  7208  0C16                     l2145:	
  7209  0C16  01F5               	clrf	(___awmod@counter)
  7210  0C17  1403               	bsf	status,0
  7211  0C18  0DF5               	rlf	(___awmod@counter),f
  7212                           	line	17
  7213  0C19  2C26               	goto	l2151
  7214                           	
  7215  0C1A                     l573:	
  7216                           	line	18
  7217                           	
  7218  0C1A                     l2147:	
  7219  0C1A  3001               	movlw	01h
  7220                           	
  7221  0C1B                     u1545:
  7222  0C1B  1003               	clrc
  7223  0C1C  0DF0               	rlf	(___awmod@divisor),f
  7224  0C1D  0DF1               	rlf	(___awmod@divisor+1),f
  7225  0C1E  3EFF               	addlw	-1
  7226  0C1F  1D03               	skipz
  7227  0C20  2C1B               	goto	u1545
  7228                           	line	19
  7229                           	
  7230  0C21                     l2149:	
  7231  0C21  3001               	movlw	(01h)
  7232  0C22  00F4               	movwf	(??___awmod+0)+0
  7233  0C23  0874               	movf	(??___awmod+0)+0,w
  7234  0C24  07F5               	addwf	(___awmod@counter),f
  7235  0C25  2C26               	goto	l2151
  7236                           	line	20
  7237                           	
  7238  0C26                     l572:	
  7239                           	line	17
  7240                           	
  7241  0C26                     l2151:	
  7242  0C26  1FF1               	btfss	(___awmod@divisor+1),(15)&7
  7243  0C27  2C29               	goto	u1551
  7244  0C28  2C2A               	goto	u1550
  7245  0C29                     u1551:
  7246  0C29  2C1A               	goto	l2147
  7247  0C2A                     u1550:
  7248  0C2A  2C2C               	goto	l2153
  7249                           	
  7250  0C2B                     l574:	
  7251  0C2B  2C2C               	goto	l2153
  7252                           	line	21
  7253                           	
  7254  0C2C                     l575:	
  7255                           	line	22
  7256                           	
  7257  0C2C                     l2153:	
  7258  0C2C  0871               	movf	(___awmod@divisor+1),w
  7259  0C2D  0273               	subwf	(___awmod@dividend+1),w
  7260  0C2E  1D03               	skipz
  7261  0C2F  2C32               	goto	u1565
  7262  0C30  0870               	movf	(___awmod@divisor),w
  7263  0C31  0272               	subwf	(___awmod@dividend),w
  7264  0C32                     u1565:
  7265  0C32  1C03               	skipc
  7266  0C33  2C35               	goto	u1561
  7267  0C34  2C36               	goto	u1560
  7268  0C35                     u1561:
  7269  0C35  2C3D               	goto	l2157
  7270  0C36                     u1560:
  7271                           	line	23
  7272                           	
  7273  0C36                     l2155:	
  7274  0C36  0870               	movf	(___awmod@divisor),w
  7275  0C37  02F2               	subwf	(___awmod@dividend),f
  7276  0C38  0871               	movf	(___awmod@divisor+1),w
  7277  0C39  1C03               	skipc
  7278  0C3A  03F3               	decf	(___awmod@dividend+1),f
  7279  0C3B  02F3               	subwf	(___awmod@dividend+1),f
  7280  0C3C  2C3D               	goto	l2157
  7281                           	
  7282  0C3D                     l576:	
  7283                           	line	24
  7284                           	
  7285  0C3D                     l2157:	
  7286  0C3D  3001               	movlw	01h
  7287                           	
  7288  0C3E                     u1575:
  7289  0C3E  1003               	clrc
  7290  0C3F  0CF1               	rrf	(___awmod@divisor+1),f
  7291  0C40  0CF0               	rrf	(___awmod@divisor),f
  7292  0C41  3EFF               	addlw	-1
  7293  0C42  1D03               	skipz
  7294  0C43  2C3E               	goto	u1575
  7295                           	line	25
  7296                           	
  7297  0C44                     l2159:	
  7298  0C44  3001               	movlw	low(01h)
  7299  0C45  02F5               	subwf	(___awmod@counter),f
  7300  0C46  1D03               	btfss	status,2
  7301  0C47  2C49               	goto	u1581
  7302  0C48  2C4A               	goto	u1580
  7303  0C49                     u1581:
  7304  0C49  2C2C               	goto	l2153
  7305  0C4A                     u1580:
  7306  0C4A  2C4C               	goto	l2161
  7307                           	
  7308  0C4B                     l577:	
  7309  0C4B  2C4C               	goto	l2161
  7310                           	line	26
  7311                           	
  7312  0C4C                     l571:	
  7313                           	line	27
  7314                           	
  7315  0C4C                     l2161:	
  7316  0C4C  0876               	movf	(___awmod@sign),w
  7317  0C4D  1D03               	skipz
  7318  0C4E  2C50               	goto	u1590
  7319  0C4F  2C56               	goto	l2165
  7320  0C50                     u1590:
  7321                           	line	28
  7322                           	
  7323  0C50                     l2163:	
  7324  0C50  09F2               	comf	(___awmod@dividend),f
  7325  0C51  09F3               	comf	(___awmod@dividend+1),f
  7326  0C52  0AF2               	incf	(___awmod@dividend),f
  7327  0C53  1903               	skipnz
  7328  0C54  0AF3               	incf	(___awmod@dividend+1),f
  7329  0C55  2C56               	goto	l2165
  7330                           	
  7331  0C56                     l578:	
  7332                           	line	29
  7333                           	
  7334  0C56                     l2165:	
  7335  0C56  0873               	movf	(___awmod@dividend+1),w
  7336  0C57  01F1               	clrf	(?___awmod+1)
  7337  0C58  07F1               	addwf	(?___awmod+1)
  7338  0C59  0872               	movf	(___awmod@dividend),w
  7339  0C5A  01F0               	clrf	(?___awmod)
  7340  0C5B  07F0               	addwf	(?___awmod)
  7341                           
  7342  0C5C  2C5D               	goto	l579
  7343                           	
  7344  0C5D                     l2167:	
  7345                           	line	30
  7346                           	
  7347  0C5D                     l579:	
  7348  0C5D  0008               	return
  7349                           	opt stack 0
  7350                           GLOBAL	__end_of___awmod
  7351  0C5E                     	__end_of___awmod:
  7352                           	signat	___awmod,8314
  7353                           psect	text367,local,class=CODE,delta=2,merge=1
  7354                           global __ptext367
  7355  0000                     __ptext367:
  7356                           	global	btemp
  7357  007E                     	btemp set 07Eh
  7358                           
  7359                           	DABS	1,126,2	;btemp
  7360                           	global	wtemp0
  7361  007E                     	wtemp0 set btemp


Data Sizes:
    Strings     222
    Constant    0
    Data        0
    BSS         17
    Persistent  0
    Stack       0

Auto Spaces:
    Space          Size  Autos    Used
    COMMON           14     14      14
    BANK0            80     23      40
    BANK1            80      0       0
    BANK3            96      0       0
    BANK2            96      0       0

Pointer List with Targets:

    ?___llmod	unsigned long  size(1) Largest target is 2
		 -> spi_baro_rcvb(BANK0[2]), 

    ?___lldiv	unsigned long  size(1) Largest target is 0

    ?___awdiv	int  size(1) Largest target is 0

    ?___awmod	int  size(1) Largest target is 0

    ?___lwdiv	unsigned int  size(1) Largest target is 0

    ?___lwmod	unsigned int  size(1) Largest target is 2
		 -> spi_baro_rcvb(BANK0[2]), 

    send_string@s	PTR const unsigned char  size(1) Largest target is 17
		 -> STR_27(CODE[4]), STR_26(CODE[6]), STR_25(CODE[6]), STR_24(CODE[5]), 
		 -> STR_23(CODE[10]), STR_22(CODE[6]), STR_21(CODE[6]), STR_20(CODE[17]), 
		 -> STR_19(CODE[17]), STR_18(CODE[5]), STR_17(CODE[5]), STR_16(CODE[5]), 
		 -> STR_15(CODE[15]), STR_14(CODE[5]), STR_13(CODE[9]), STR_12(CODE[16]), 
		 -> STR_11(CODE[16]), STR_10(CODE[16]), STR_9(CODE[16]), STR_8(CODE[3]), 
		 -> STR_7(CODE[8]), STR_6(CODE[8]), STR_5(CODE[8]), STR_4(CODE[3]), 
		 -> STR_3(CODE[8]), STR_2(CODE[5]), STR_1(CODE[13]), 


Critical Paths under _main in COMMON

    _mode1->___lwdiv
    _mode2->___lwdiv
    _mode3->_spi_baro
    _mode3->___lldiv
    _mode3->___lwdiv
    _lcd_clr->_send_config
    _lcd_goto->_send_config
    _send_config->_delay
    _send_string->_send_char
    _send_char->_delay
    _spi_baro->_spi_start
    _spi_start->_delay
    ___lwdiv->___lwmod
    ___awdiv->___awmod

Critical Paths under _main in BANK0

    _main->_mode3
    _mode2->___awdiv
    _mode3->_spi_baro

Critical Paths under _main in BANK1

    None.

Critical Paths under _main in BANK3

    None.

Critical Paths under _main in BANK2

    None.

Call Graph Tables:

 ---------------------------------------------------------------------------------
 (Depth) Function   	        Calls       Base Space   Used Autos Params    Refs
 ---------------------------------------------------------------------------------
 (0) _main                                                 1     1      0    5606
                                             22 BANK0      1     1      0
                        _send_config
                            _lcd_clr
                           _lcd_goto
                        _send_string
                              _delay
                              _mode1
                              _mode2
                              _mode3
 ---------------------------------------------------------------------------------
 (1) _mode1                                                5     5      0    1283
                                              0 BANK0      5     5      0
                            _lcd_clr
                           _lcd_goto
                        _send_string
                              _delay
                          _i2c_start
                            ___lwmod
                            ___lwdiv
                          _send_char
 ---------------------------------------------------------------------------------
 (1) _mode2                                               17    17      0    1999
                                              4 BANK0     17    17      0
                           _lcd_goto
                        _send_string
                          _i2c_start
                            _lcd_clr
                              _delay
                            ___lwdiv
                          _send_char
                            ___lwmod
                            ___awmod
                            ___awdiv
 ---------------------------------------------------------------------------------
 (1) _mode3                                               18    18      0    1810
                                              4 BANK0     18    18      0
                           _spi_baro
                            _lcd_clr
                           _lcd_goto
                        _send_string
                            ___lldiv
                            ___lwmod
                            ___lwdiv
                          _send_char
                            ___llmod
                              _delay
 ---------------------------------------------------------------------------------
 (2) _lcd_clr                                              0     0      0     112
                        _send_config
                              _delay
 ---------------------------------------------------------------------------------
 (2) _lcd_goto                                             2     2      0     156
                                              9 COMMON     2     2      0
                        _send_config
 ---------------------------------------------------------------------------------
 (3) _send_config                                          1     1      0      67
                                              8 COMMON     1     1      0
                              _delay
 ---------------------------------------------------------------------------------
 (2) _send_string                                          2     2      0     134
                                              9 COMMON     2     2      0
                          _send_char
 ---------------------------------------------------------------------------------
 (2) _i2c_start                                            7     4      3     268
                                              0 COMMON     7     4      3
 ---------------------------------------------------------------------------------
 (2) _send_char                                            1     1      0      67
                                              8 COMMON     1     1      0
                              _delay
 ---------------------------------------------------------------------------------
 (2) _spi_baro                                             6     3      3     293
                                             12 COMMON     2     2      0
                                              0 BANK0      4     1      3
                          _spi_start
 ---------------------------------------------------------------------------------
 (3) _spi_start                                            4     4      0     161
                                              8 COMMON     4     4      0
                              _delay
 ---------------------------------------------------------------------------------
 (2) _delay                                                8     4      4      45
                                              0 COMMON     8     4      4
 ---------------------------------------------------------------------------------
 (2) ___lwdiv                                              8     4      4     162
                                              6 COMMON     8     4      4
                            ___lwmod (ARG)
 ---------------------------------------------------------------------------------
 (2) ___lwmod                                              6     2      4     159
                                              0 COMMON     6     2      4
 ---------------------------------------------------------------------------------
 (2) ___awdiv                                              9     5      4     300
                                              7 COMMON     5     1      4
                                              0 BANK0      4     4      0
                            ___awmod (ARG)
 ---------------------------------------------------------------------------------
 (2) ___llmod                                             10     2      8     159
                                              0 COMMON    10     2      8
 ---------------------------------------------------------------------------------
 (2) ___lldiv                                             14     6      8     162
                                              0 COMMON    14     6      8
 ---------------------------------------------------------------------------------
 (2) ___awmod                                              7     3      4     296
                                              0 COMMON     7     3      4
 ---------------------------------------------------------------------------------
 Estimated maximum stack depth 3
 ---------------------------------------------------------------------------------

 Call Graph Graphs:

 _main (ROOT)
   _send_config
     _delay
   _lcd_clr
     _send_config
       _delay
     _delay
   _lcd_goto
     _send_config
       _delay
   _send_string
     _send_char
       _delay
   _delay
   _mode1
     _lcd_clr
       _send_config
         _delay
       _delay
     _lcd_goto
       _send_config
         _delay
     _send_string
       _send_char
         _delay
     _delay
     _i2c_start
     ___lwmod
     ___lwdiv
       ___lwmod (ARG)
     _send_char
       _delay
   _mode2
     _lcd_goto
       _send_config
         _delay
     _send_string
       _send_char
         _delay
     _i2c_start
     _lcd_clr
       _send_config
         _delay
       _delay
     _delay
     ___lwdiv
       ___lwmod (ARG)
     _send_char
       _delay
     ___lwmod
     ___awmod
     ___awdiv
       ___awmod (ARG)
   _mode3
     _spi_baro
       _spi_start
         _delay
     _lcd_clr
       _send_config
         _delay
       _delay
     _lcd_goto
       _send_config
         _delay
     _send_string
       _send_char
         _delay
     ___lldiv
     ___lwmod
     ___lwdiv
       ___lwmod (ARG)
     _send_char
       _delay
     ___llmod
     _delay

 Address spaces:
Name               Size   Autos  Total    Cost      Usage
BITCOMMON            E      0       0       0        0.0%
EEDATA             100      0       0       0        0.0%
NULL                 0      0       0       0        0.0%
CODE                 0      0       0       0        0.0%
COMMON               E      E       E       1      100.0%
BITSFR0              0      0       0       1        0.0%
SFR0                 0      0       0       1        0.0%
BITSFR1              0      0       0       2        0.0%
SFR1                 0      0       0       2        0.0%
STACK                0      0       4       2        0.0%
ABS                  0      0      36       3        0.0%
BITBANK0            50      0       0       4        0.0%
BITSFR3              0      0       0       4        0.0%
SFR3                 0      0       0       4        0.0%
BANK0               50     17      28       5       50.0%
BITSFR2              0      0       0       5        0.0%
SFR2                 0      0       0       5        0.0%
BITBANK1            50      0       0       6        0.0%
BANK1               50      0       0       7        0.0%
BITBANK3            60      0       0       8        0.0%
BANK3               60      0       0       9        0.0%
BITBANK2            60      0       0      10        0.0%
BANK2               60      0       0      11        0.0%
DATA                 0      0      3A      12        0.0%


HI-TECH Software PICC Macro Assembler V1.00 build 12136 
Symbol Table                                                                                   Wed Jun 27 12:57:19 2012

            spi_baro@data 0020                         pc 0002                        l97 0112  
                      l98 0187                        l99 0130              ___awdiv@sign 0021  
                      fsr 0004                       l100 013E                       l101 013D  
                     l110 018E                       l102 014F                       l111 019C  
                     l103 014E                       l200 0A66                       l120 01D3  
                     l112 019C                       l104 014D                       l201 0A66  
                     l121 01D3                       l113 01A3                       l105 016C  
                     l210 09B9                       l130 052B                       l114 01C4  
                     l106 0156                       l211 09C6                       l131 050E  
                     l115 01B1                       l107 0179                       l204 0A10  
                     l212 09C6                       l140 07DF                       l132 053B  
                     l124 04DA                       l116 01D1                       l108 015D  
                     l221 0A35                       l141 056F                       l133 0515  
                     l125 04F6                       l117 01B7                       l109 0164  
                     l230 0013                       l222 0A36                       l150 06E7  
                     l142 0687                       l134 051C                       l126 04F5  
                     l118 01BD                       l207 09EB                       l231 0017  
                     l223 0A36                       l215 09A9                       l151 06E7  
                     l143 05A2                       l135 0523                       l127 0507  
                     l119 01D2                       l232 0042                       l240 003B  
                     l160 07FE                       l136 07F0                       l152 06EE  
                     l144 068E                       l128 0506                       l241 0040  
                     l233 0031                       l161 07FF                       l153 06FC  
                     l145 069C                       l137 054F                       l129 0505  
                     l242 0091                       l250 0072                       l234 0020  
                     l226 0009                       l218 0A24                       l170 0260  
                     l154 06FC                       l146 069C                       l138 054F  
                     l243 0090                       l251 0074                       l235 0027  
                     l227 0009                       l219 0A13                       l171 0281  
                     l155 0703                       l147 06A3                       l139 0556  
                     l244 007F                       l252 0074                       l236 0027  
                     l228 000E                       l180 04AC                       l172 04CE  
                     l164 01ED                       l148 07EF                       l156 0742  
                     l501 0CDC                       l261 0B21                       l253 0079  
                     l245 004B                       l237 002B                       l229 0013  
                     l181 04BA                       l173 0289                       l165 0204  
                     l157 07DC                       l149 06B6                       l510 0D3A  
                     l502 0CEA                       l270 0B99                       l262 0B46  
                     l254 0085                       l246 004F                       l238 0037  
                     l190 0F3A                       l182 04BA                       l174 04A5  
                     l166 021D                       l158 07FF                       l511 0D41  
                     l503 0D30                       l271 0B80                       l263 0B45  
                     l255 0089                       l247 004F                       l239 003B  
                     l191 0F40                       l183 04C1                       l175 02A7  
                     l167 022C                       l159 07DD                       l520 0BED  
                     l504 0D02                       l272 0B9B                       l256 0089  
                     l248 0054                       l192 0FD2                       l176 02A8  
                     l168 0241                       l521 0BF7                       l505 0CF6  
                     l265 0B39                       l257 008E                       l249 006F  
                     l193 0FE0                       l177 02BD                       l169 0261  
                     l514 0BEE                       l506 0D07                       l370 0AC8  
                     l266 0B49                       l258 0091                       l194 0FE0  
                     l186 0FCB                       l178 03BF                       l515 0BB6  
                     l507 0D08                       l371 0AC9                       l195 0FE7  
                     l187 0D70                       l179 044A                       l540 0CCB  
                     l516 0BA8                       l508 0D21                       l380 0A82  
                     l372 0AE2                       l196 0FFF                       l188 0D71  
                     l533 0CC2                       l517 0BBB                       l509 0D2F  
                     l381 0A83                       l373 0AF0                       l269 0B55  
                     l189 0D85                       l534 0C80                       l518 0BBC  
                     l382 0A94                       l374 0AF8                       l535 0C72  
                     l519 0BDD                       l383 0AA2                       l367 0AF1  
                     l199 0A41                       l536 0C85                       l384 0AAA  
                     l368 0AC3                       l537 0C86                       l377 0AA3  
                     l369 0AB7                       l570 0C10                       l538 0CB1  
                     l378 0A7D                       l571 0C4C                       l539 0CC1  
                     l379 0A71                       l572 0C26                       l573 0C1A  
                     l574 0C2B                       l575 0C2C                       l576 0C3D  
                     l577 0C4B                       l569 0C06                       l578 0C56  
                     l579 0C5D                       _RA0 0028                       _RA1 0029  
                     _RA2 002A                       _RA3 002B                       _RC0 0038  
                     _RA5 002D                       _RC5 003D                       _RC6 003E  
                     _RC7 003F                       _PR2 0092                       _PEN 048A  
                     _SEN 0488                       fsr0 0004                       indf 0000  
            ___awmod@sign 0076           send_config@data 0078                      l2101 0BCE  
                    l2111 0C5E                      l2103 0BDD                      l2121 0C8F  
                    l2113 0C6E                      l2105 0BE6                      l2201 0B65  
                    l2041 0005                      l2123 0CA1                      l2115 0C72  
                    l2131 0CC2                      l2107 0BEE                      l2035 0A37  
                    l2211 0B80                      l2203 0B6F                      l2051 002C  
                    l2043 000F                      l2141 0C0A                      l2133 0CCB  
                    l2125 0CAF                      l2117 0C80                      l2109 0BF7  
                    l2037 0A40                      l2221 0B9B                      l2213 0B81  
                    l2205 0B75                      l2061 005D                      l2053 0031  
                    l2045 0018                      l2301 0A13                      l2151 0C26  
                    l2143 0C10                      l2135 0BF8                      l2127 0CB1  
                    l2119 0C86                      l2071 0A6D                      l2231 0ABE  
                    l2223 0AAB                      l2039 0A41                      l2215 0B8E  
                    l2207 0B77                      l2311 0AFD                      l2063 006B  
                    l2047 001E                      l2055 0042                      l2303 0A1F  
                    l2153 0C2C                      l2145 0C16                      l2161 0C4C  
                    l2137 0BFD                      l2129 0CBA                      l2081 0A8D  
                    l2073 0A71                      l2241 0AE2                      l2233 0AC3  
                    l2225 0AAD                      l2217 0B92                      l2209 0B7D  
                    l2321 0B32                      l2313 0B12                      l2065 007A  
                    l2057 0049                      l2049 0020                      l2305 0A24  
                    l2401 068E                      l2163 0C50                      l2155 0C36  
                    l2147 0C1A                      l2139 0C06                      l2091 0B9C  
                    l2251 0CD3                      l2083 0A94                      l2075 0A78  
                    l2243 0AE9                      l2235 0AC9                      l2227 0AB3  
                    l2219 0B99                      l2323 0B39                      l2315 0B1A  
                    l2059 0055                      l2067 007F                      l2307 0A28  
                    l2171 09F0                      l2411 06D3                      l2403 06A3  
                    l2331 04DA                      l2165 0C56                      l2157 0C3D  
                    l2149 0C21                      l2093 0BA4                      l2261 0CEC  
                    l2253 0CDC                      l2085 0A9B                      l2077 0A7D  
                    l2069 0A67                      l2237 0ADA                      l2229 0AB7  
                    l2245 0AF1                      l2325 0B46                      l2317 0B21  
                    l2309 0AFC                      l2181 09C8                      l2173 09F2  
                    l2501 025B                      l2421 0716                      l2413 06D9  
                    l2405 06B6                      l2341 04FA                      l2333 04E0  
                    l2167 0C5D                      l2159 0C44                      l2095 0BA8  
                    l2271 0D08                      l2263 0CF2                      l2255 0CE0  
                    l2079 0A83                      l2087 0AA3                      l2247 0AF8  
                    l2239 0AE0                      l2319 0B2C                      l2191 09DE  
                    l2183 09CB                      l2175 09F3                      l2511 0281  
                    l2503 0261                      l2431 0742                      l2423 0723  
                    l2415 06EE                      l2407 06C1                      l2351 051C  
                    l2343 0500                      l2335 04E6                      l2327 04CF  
                    l2097 0BB6                      l2273 0D19                      l2265 0CF6  
                    l2281 0D30                      l2257 0CE5                      l2249 0CCC  
                    l2089 0AAA                      l2193 0B4B                      l2185 09CD  
                    l2177 0A00                      l2169 09ED                      l2601 0DF7  
                    l2521 02B5                      l2513 0289                      l2505 026C  
                    l2441 0767                      l2433 0748                      l2425 0728  
                    l2417 0703                      l2409 06C7                      l2361 0556  
                    l2353 0523                      l2345 0507                      l2337 04EC  
                    l2329 04D4                      l2099 0BBC                      l2283 0D34  
                    l2275 0D1F                      l2267 0CFD                      l2259 0CEA  
                    l2195 0B4D                      l2187 09CE                      l2179 0A03  
                    l2291 09AB                      l2611 0E93                      l2603 0E12  
                    l2531 02FF                      l2523 02BD                      l2515 0294  
                    l2507 0272                      l2451 079C                      l2443 076D  
                    l2435 074B                      l2427 072E                      l2419 0710  
                    l2371 0587                      l2363 056F                      l2355 052A  
                    l2347 050E                      l2339 04F2                      l2285 0D3A  
                    l2277 0D21                      l2269 0D02                      l2197 0B54  
                    l2189 09DB                      l2293 09B1                      l2621 0F0D  
                    l2613 0E99                      l2605 0E2F                      l2541 0351  
                    l2533 0308                      l2525 02CB                      l2517 029A  
                    l2509 0280                      l2461 07C8                      l2453 07A9  
                    l2445 077B                      l2437 074C                      l2429 0734  
                    l2381 05C2                      l2373 0594                      l2365 0575  
                    l2349 0515                      l2357 052B                      l2701 0117  
                    l2287 0D41                      l2279 0D28                      l2199 0B58  
                    l2295 09B9                      l2631 0F33                      l2623 0F13  
                    l2615 0EB8                      l2607 0E54                      l2551 03AD  
                    l2543 036D                      l2535 0324                      l2527 02DA  
                    l2519 02A8                      l2471 01D6                      l2463 07CE  
                    l2455 07AF                      l2447 0788                      l2439 075A  
                    l2391 0634                      l2383 05D2                      l2375 05A2  
                    l2367 057B                      l2359 0541                      l2711 013A  
                    l2703 011D                      l2297 09BE                      l2289 0996  
                    l2633 0F3A                      l2625 0F19                      l2617 0ECE  
                    l2609 0E7B                      l2561 0450                      l2553 03B8  
                    l2545 0376                      l2537 033B                      l2529 02E3  
                    l2481 01ED                      l2473 01DC                      l2465 07DE  
                    l2457 07BD                      l2449 078E                      l2393 065B  
                    l2385 05D8                      l2377 05A8                      l2369 0581  
                    l2721 015D                      l2713 0142                      l2705 0123  
                    l2641 0092                      l2299 0A12                      l2627 0F2A  
                    l2619 0EF5                      l2635 0FCB                      l2571 04AC  
                    l2563 0478                      l2555 03BF                      l2547 0392  
                    l2539 0348                      l2491 022C                      l2483 01F9  
                    l2475 01E2                      l2459 07C2                      l2395 0661  
                    l2387 05E8                      l2379 05B5                      l2467 07DF  
                    l2723 0164                      l2715 0148                      l2731 0187  
                    l2707 0129                      l2651 00A7                      l2643 0095  
                    l2637 0FD2                      l2629 0F2E                      l2581 0D71  
                    l2573 04C1                      l2565 0491                      l2557 0443  
                    l2549 03A7                      l2493 0239                      l2485 01FD  
                    l2477 01E5                      l2397 0679                      l2389 060D  
                    l2469 07F0                      l2741 01BD                      l2733 018E  
                    l2725 016B                      l2717 014F                      l2709 0134  
                    l2661 00AF                      l2653 00A9                      l2645 0097  
                    l2639 0FE7                      l2591 0DA9                      l2583 0D7E  
                    l2575 0D42                      l2567 0497                      l2559 044A  
                    l2495 0241                      l2479 01EC                      l2487 0204  
                    l2399 0687                      l2743 01C3                      l2735 01A3  
                    l2719 0156                      l2727 016C                      l2671 00CB  
                    l2663 00B3                      l2655 00AC                      l2647 009C  
                    l2593 0DB4                      l2585 0D85                      l2577 0D5D  
                    l2569 04A5                      l2497 024F                      l2489 021D  
                    l2737 01B1                      l2745 01C4                      l2729 0179  
                    l2681 00DF                      l2673 00D1                      l2665 00B9  
                    l2657 00AD                      l2649 00A0                      l2595 0DD6  
                    l2587 0D90                      l2579 0D63                      l2499 0257  
                    l2739 01B7                      l2691 00F3                      l2683 00E1  
                    l2675 00D5                      l2667 00BF                      l2659 00AE  
                    l2597 0DE1                      l2589 0DA0                      l2693 00F9  
                    l2685 00E2                      l2677 00D7                      l2669 00C5  
                    l2599 0DF1                      l2695 00FF                      l2687 00E7  
                    l2679 00DB                      l2697 010C                      l2689 00ED  
                    l2699 0112                      STR_1 0877                      STR_2 08CE  
                    STR_3 08AF                      STR_4 08E1                      STR_5 08A7  
                    STR_6 0897                      STR_7 089F                      STR_8 08E1  
                    STR_9 0858                      u1200 000E                      u2000 0203  
                    u1201 000D                      u2001 0202                      u1210 0017  
                    u2010 0240                      u1211 0016                      u2011 023F  
                    u1300 0085                      u1220 001E                      u2100 0332  
                    u2020 0257                      u1301 0084                      u1221 001D  
                    u2021 0256                      u1310 008E                      u1230 002B  
                    u2030 025B                      u1311 008D                      u1231 002A  
                    u1400 0BBA                      u1320 0A6D                      u1240 0037  
                    u2040 0288                      u1401 0BB9                      u1321 0A6C  
                    u1241 0036                      u2121 035F                      u2105 032D  
                    u2041 0287                      u1410 0BCE                      u1170 0A3F  
                    u1250 0040                      u2122 0366                      u2050 02BC  
                    u1411 0BCD                      u1171 0A3E                      u1251 003F  
                    u2211 0DC8                      u2123 036D                      u2115 034A  
                    u2051 02BB                      u1500 0CC0                      u1340 0A81  
                    u1180 0A5D                      u1260 0049                      u2220 0E07  
                    u2212 0DCF                      u2300 0148                      u1501 0CBF  
                    u1341 0A80                      u1261 0048                      u2213 0DD6  
                    u2205 0DA2                      u2141 0384                      u2301 0147  
                    u1510 0BFD                      u1430 0BEC                      u1350 0A8D  
                    u1190 0A65                      u1270 0054                      u2150 03A0  
                    u2142 038B                      u2310 018D                      u1511 0BFC  
                    u1431 0BEB                      u1415 0BCA                      u1351 0A8C  
                    u1335 0A72                      u1191 0A64                      u1271 0053  
                    u2143 0392                      u2135 036F                      u2071 02F1  
                    u2311 018C                      u1520 0C0A                      u1440 0C6E  
                    u1600 0B53                      u1280 006B                      u2240 0F2E  
                    u2160 03B8                      u2072 02F8                      u2320 01A2  
                    u1521 0C09                      u1441 0C6D                      u1425 0BDE  
                    u1185 0A50                      u1601 0B52                      u1281 006A  
                    u2241 0F2D                      u2225 0E02                      u2161 03B7  
                    u2073 02FF                      u2065 02DC                      u2321 01A1  
                    u1530 0C16                      u1370 0AA1                      u1186 0A51  
                    u1610 0B6C                      u1290 0079                      u2250 0FD1  
                    u2170 04AB                      u1531 0C15                      u1371 0AA0  
                    u1355 0A89                      u1187 0A56                      u1611 0B68  
                    u1291 0078                      u2251 0FD0                      u2235 0F20  
                    u2171 04AA                      u2155 039B                      u2091 0316  
                    u1460 0C84                      u1380 0BA4                      u1188 0A57  
                    u2260 0FE6                      u2180 04C0                      u2092 031D  
                    u1461 0C83                      u1381 0BA3                      u1365 0A95  
                    u1189 0A5C                      u2261 0FE5                      u2181 04BF  
                    u2093 0324                      u2085 0301                      u1550 0C2A  
                    u1710 0AEF                      u1630 0B7D                      u2190 0D84  
                    u2270 0134                      u1551 0C29                      u1455 0C74  
                    u1711 0AEE                      u1631 0B7C                      u2191 0D83  
                    u2271 0133                      u1560 0C36                      u1480 0CA1  
                    u1800 0D2E                      u1720 0CD3                      u1640 0B98  
                    u1624 0B6F                      u2280 013A                      u1561 0C35  
                    u1545 0C1B                      u1481 0CA0                      u1801 0D2D  
                    u1721 0CD2                      u1705 0AE3                      u1641 0B97  
                    u2281 0139                      u1810 0D34                      u1730 0CE0  
                    u1650 0AB3                      u2290 0142                      u1475 0C88  
                    u1395 0BAA                      u1731 0CDF                      u1651 0AB2  
                    u2291 0141                      u1580 0C4A                      u1740 0CF2  
                    u1820 09B1                      u1900 04F2                      u1581 0C49  
                    u1565 0C32                      u1485 0C9D                      u1741 0CF1  
                    u1821 09B0                      u1901 04F1                      u1590 0C50  
                    u1670 0AC7                      u1830 0A28                      u1910 04FA  
                    u1575 0C3E                      u1495 0CB2                      u1671 0AC6  
                    u1911 04F9                      u1760 0D06                      u1840 0A34  
                    u1920 0500                      u1761 0D05                      u1665 0AB8  
                    u1841 0A33                      u1921 04FF                      u1690 0ADA  
                    u1930 0541                      u1755 0CF7                      u1691 0AD9  
                    u1931 0540                      u1780 0D19                      u1860 0B1A  
                    u1940 0555                      u1781 0D18                      u1685 0ACA  
                    u1861 0B19                      u1941 0554                      u1870 0B32  
                    u1950 068D                      u1775 0D09                      u1695 0AD6  
                    u1871 0B31                      u1855 0B00                      u1951 068C  
                    u1880 0B38                      u1960 06A2                      u1785 0D15  
                    u1881 0B37                      u1961 06A1                      u1970 06ED  
                    u1890 04EC                      u1795 0D22                      u1971 06EC  
                    u1891 04EB                      u1980 0702                      u1981 0701  
                    u1990 01EB                      u1991 01EA                      _RCEN 048B  
                    _main 0092                      _mode 0045                      btemp 007E  
            lcd_goto@data 007A                i2c_start@i 0076                      start 0000  
spi_baro@register_address 0023                     ?_main 0070                     _ACKEN 048C  
                   _ACKDT 048D           __end_of___awdiv 0D42                     STR_10 0838  
                   STR_11 0848                     STR_12 0828                     STR_20 0817  
                   STR_21 08C3                     STR_13 088E                     STR_14 08D8  
                   STR_22 08BD                     STR_23 0884                     STR_15 0868  
                   STR_16 08D8                     STR_24 08C9                     STR_17 08D3  
                   STR_25 08B7                     STR_26 08BD                     STR_18 08D3  
                   STR_27 08DD                     STR_19 0806           __end_of___awmod 0C5E  
         __end_of___lldiv 0CCC           ___awdiv@divisor 0077           __end_of___llmod 0BF8  
                   _T2CON 0012           __end_of___lwdiv 0AF9           __end_of___lwmod 0AAB  
         ___awdiv@counter 0020                     _PORTB 0006                     _TRISA 0085  
                   _TRISB 0086                     _TRISC 0087                     _SSPIF 0063  
         __end_of_lcd_clr 09AA                     _delay 0A37                     _mode1 04CF  
                   _mode2 01D6                     _mode3 0D42                     pclath 000A  
                   status 0003                     wtemp0 007E               mode1@result 0022  
            __end_of_main 01D6                    ??_main 0036         spi_baro@operation 0021  
                  ?_delay 0070              ?_send_config 0070                    _ADCON1 009F  
                  ?_mode1 0070                    ?_mode2 0070                    ?_mode3 0070  
        ___llmod@dividend 0074                    _CCPR1L 0015                    _CCPR2L 001B  
        ___awdiv@dividend 0079              ?_send_string 0070                    _SSPADD 0093  
                  _SSPCON 0014                    _SSPBUF 0013        __size_of_i2c_start 008E  
        __end_of_lcd_goto 09C7           _i2c_master_data 0037                 ??___awdiv 007B  
               ??___awmod 0074           _i2c_master_rcvb 003E                 ??___lldiv 0078  
               ??___llmod 0078                 ??___lwdiv 007A                 ??___lwmod 0074  
           spi_start@data 0079          ___awdiv@quotient 0022           ___awmod@divisor 0070  
           spi_start@rcvb 007A           ___awmod@counter 0075                 ??_lcd_clr 0079  
                  clrloop 0982                    mode2@i 0032          __end_of_spi_baro 0B4A  
            mode1@submode 0024          mode2@temperature 0031            __pcstackCOMMON 0070  
    mode2@temperature_raw 002D             __end_of_delay 0A67             __end_of_mode1 0800  
           __end_of_mode2 04CF             __end_of_mode3 1000         __end_of_i2c_start 0092  
                 ??_delay 0074                   ??_mode1 0020                   ??_mode2 0024  
                 ??_mode3 0024                __pbssBANK0 0037                __pmaintext 0092  
        mode3@temperature 0034        __size_of_send_char 0025                   _CCP1CON 0017  
                 _CCP2CON 001D      mode3@temperature_raw 0028        __size_of_spi_start 0052  
                 _SSPCON2 0091                 ?_lcd_goto 0070                   _SSPSTAT 0094  
    __size_of_send_config 0025      __size_of_send_string 0026                 ?_spi_baro 0020  
                 ___awdiv 0CCC                   ___awmod 0BF8                   ___lldiv 0C5E  
                 ___llmod 0B9C                   ___lwdiv 0AAB                   ___lwmod 0A67  
                 _lcd_clr 0996          ___awmod@dividend 0072                ??_lcd_goto 0079  
    end_of_initialization 0992         __end_of_send_char 09EC           ___lldiv@divisor 0070  
           i2c_start@size 0070           ___lldiv@counter 007D         __end_of_spi_start 0B9C  
              ??_spi_baro 007C             send_char@data 0078             mode3@pressure 002E  
     start_initialization 0989                 _i2c_start 0004           ___llmod@divisor 0070  
         ___llmod@counter 0079             __pcstackBANK0 0020                ?_i2c_start 0070  
       __size_of_lcd_goto 001D          ___lwdiv@dividend 0078                  ?___awdiv 0077  
        i2c_start@address 0075                 __ptext350 01D6                 __ptext351 0D42  
               __ptext360 0A37                 __ptext352 0996                 __ptext361 0AAB  
               __ptext353 09AA                 __ptext362 0A67                 __ptext354 09EC  
               __ptext363 0CCC                 __ptext355 0A11                  ?___awmod 0070  
               __ptext364 0B9C                 __ptext356 0004                 __ptext365 0C5E  
               __ptext357 09C7                 __ptext349 04CF                 __ptext366 0BF8  
               __ptext358 0AF9                 __ptext367 0000                 __ptext359 0B4A  
                ?___lldiv 0070                  ?___llmod 0070                  ?___lwdiv 0076  
                ?___lwmod 0070         __size_of_spi_baro 0051                 __pstrings 0800  
                ?_lcd_clr 0070             ??_send_config 0078          ___lwdiv@quotient 007B  
          __size_of_delay 0030            __size_of_mode1 0331            __size_of_mode2 02F9  
          __size_of_mode3 02BE                 delay@data 0070             ??_send_string 0079  
               _send_char 09C7         mode3@pressure_raw 002A      mode2@capacitance_raw 0029  
               _spi_start 0B4A               __stringbase 0805               ??_i2c_start 0073  
              spi_start@i 007B        i2c_start@operation 0071                 mode3@temp 0032  
     __end_of_send_config 0A11                ?_send_char 0070              send_string@s 007A  
     __end_of_send_string 0A37          __size_of___awdiv 0076          __size_of___awmod 0066  
        __size_of___lldiv 006E          __size_of___llmod 005C          __size_of___lwdiv 004E  
        __size_of___lwmod 0044                ?_spi_start 0070          __size_of_lcd_clr 0014  
         ___lwdiv@divisor 0076           ___lwdiv@counter 007D                  _lcd_goto 09AA  
           __size_of_main 0144                  clear_ram 0981                  _spi_baro 0AF9  
           _spi_baro_rcvb 0046               _send_config 09EC               _send_string 0A11  
        ___lwmod@dividend 0072          ___lldiv@dividend 0074          mode2@capacitance 0033  
             ??_send_char 0078                 stringcode 0800               ??_spi_start 0078  
        ___lldiv@quotient 0079           ___lwmod@divisor 0070           ___lwmod@counter 0075  
                stringdir 0800                  stringtab 0800  
