HI-TECH Software XC8 Compiler V1.00 ()

Linker command line:

--edf=C:\Program Files (x86)\Microchip\xc8\v1.00\dat\en_msgs.txt -cs \
  -h+dist/default/production\PR_22__R.C.M_C_B_Sensors.X.production.sym -z \
  -Q16F876A -ol.obj \
  -Mdist/default/production/PR_22__R.C.M_C_B_Sensors.X.production.map -E1 \
  -ver=XC8 -ACONST=00h-0FFhx32 -ACODE=00h-07FFhx4 -ASTRCODE=00h-01FFFh \
  -AENTRY=00h-0FFhx32 -ASTRING=00h-0FFhx32 -ACOMMON=070h-07Fh \
  -ABANK0=020h-06Fh -ABANK1=0A0h-0EFh -ABANK2=0110h-016Fh \
  -ABANK3=0190h-01EFh -ARAM=020h-06Fh,0A0h-0EFh,0110h-016Fh,0190h-01EFh \
  -AABS1=020h-07Fh,0A0h-0EFh,0110h-016Fh,0190h-01EFh -ASFR0=00h-01Fh \
  -ASFR1=080h-09Fh -ASFR2=0100h-010Fh -ASFR3=0180h-018Fh \
  -preset_vec=00h,intentry,init,end_init -ppowerup=CODE -pfunctab=CODE \
  -ACONFIG=02007h-02007h -pconfig=CONFIG -DCONFIG=2 -AIDLOC=02000h-02003h \
  -pidloc=IDLOC -DIDLOC=2 -AEEDATA=00h-0FFh/02100h -peeprom_data=EEDATA \
  -DEEDATA=2 -DCODE=2 -DSTRCODE=2 -DSTRING=2 -DCONST=2 -DENTRY=2 -k \
  C:\Users\HATAKE~1\AppData\Local\Temp\s1gjc.obj \
  dist/default/production\PR_22__R.C.M_C_B_Sensors.X.production.obj 

Object code version is 3.10

Machine type is 16F876A



                Name                               Link     Load   Length Selector   Space Scale
C:\Users\HATAKE~1\AppData\Local\Temp\s1gjc.obj
                end_init                              0        0        3        0       0
dist/default/production\PR_22__R.C.M_C_B_Sensors.X.production.obj
                config                             2007     2007        1     400E       0
                text366                             BF8      BF8       66     17F0       0
                text365                             C5E      C5E       6E     18BC       0
                text364                             B9C      B9C       5C     1738       0
                text363                             CCC      CCC       76     1998       0
                text362                             A67      A67       44     14CE       0
                text361                             AAB      AAB       4E     1556       0
                text360                             A37      A37       30     146E       0
                text359                             B4A      B4A       52     1694       0
                text358                             AF9      AF9       51     15F2       0
                text357                             9C7      9C7       25     138E       0
                text356                               4        4       8E        8       0
                text355                             A11      A11       26     1422       0
                text354                             9EC      9EC       25     13D8       0
                text353                             9AA      9AA       1D     1354       0
                text352                             996      996       14     132C       0
                text351                             D42      D42      2BE     1A84       0
                text350                             1D6      1D6      2F9      3AC       0
                text349                             4CF      4CF      331      99E       0
                maintext                             92       92      144      124       0
                cstackBANK0                          20       20       17       20       1
                cstackCOMMON                         70       70        E       70       1
                clrtext                             981      981        8     1302       0
                bssBANK0                             37       37       11       20       1
                cinit                               989      989        D     1312       0
                strings                             800      800       E4     1000       0

TOTAL           Name                               Link     Load   Length     Space
        CLASS   CONST          

        CLASS   CODE           
                end_init                              0        0        3         0
                text366                             BF8      BF8       66         0
                text365                             C5E      C5E       6E         0
                text364                             B9C      B9C       5C         0
                text363                             CCC      CCC       76         0
                text362                             A67      A67       44         0
                text361                             AAB      AAB       4E         0
                text360                             A37      A37       30         0
                text359                             B4A      B4A       52         0
                text358                             AF9      AF9       51         0
                text357                             9C7      9C7       25         0
                text356                               4        4       8E         0
                text355                             A11      A11       26         0
                text354                             9EC      9EC       25         0
                text353                             9AA      9AA       1D         0
                text352                             996      996       14         0
                text351                             D42      D42      2BE         0
                text350                             1D6      1D6      2F9         0
                text349                             4CF      4CF      331         0
                maintext                             92       92      144         0
                clrtext                             981      981        8         0
                cinit                               989      989        D         0

        CLASS   STRCODE        

        CLASS   ENTRY          

        CLASS   STRING         
                strings                             800      800       E4         0

        CLASS   COMMON         
                cstackCOMMON                         70       70        E         1

        CLASS   BANK0          
                cstackBANK0                          20       20       17         1
                bssBANK0                             37       37       11         1

        CLASS   BANK1          

        CLASS   BANK2          

        CLASS   BANK3          

        CLASS   RAM            

        CLASS   ABS1           
                abs_s1                               7E       7E        2         1

        CLASS   SFR0           

        CLASS   SFR1           

        CLASS   SFR2           

        CLASS   SFR3           

        CLASS   CONFIG         
                config                             2007     2007        1         0

        CLASS   IDLOC          

        CLASS   EEDATA         



SEGMENTS        Name                           Load    Length   Top    Selector   Space  Class     Delta

                reset_vec                      000000  000003  000003         0       0  CODE        2
                text356                        000004  00008E  000092         8       0  CODE        2
                cstackBANK0                    000020  000028  000048        20       1  BANK0       1
                cstackCOMMON                   000070  00000E  00007E        70       1  COMMON      1
                maintext                       000092  000144  0001D6       124       0  CODE        2
                text350                        0001D6  0002F9  0004CF       3AC       0  CODE        2
                text349                        0004CF  000331  000800       99E       0  CODE        2
                strings                        000800  0000E4  0008E4      1000       0  STRING      2
                clrtext                        000981  000008  000989      1302       0  CODE        2
                cinit                          000989  00000D  000996      1312       0  CODE        2
                text352                        000996  000014  0009AA      132C       0  CODE        2
                text353                        0009AA  00001D  0009C7      1354       0  CODE        2
                text357                        0009C7  000025  0009EC      138E       0  CODE        2
                text354                        0009EC  000025  000A11      13D8       0  CODE        2
                text355                        000A11  000026  000A37      1422       0  CODE        2
                text360                        000A37  000030  000A67      146E       0  CODE        2
                text362                        000A67  000044  000AAB      14CE       0  CODE        2
                text361                        000AAB  00004E  000AF9      1556       0  CODE        2
                text358                        000AF9  000051  000B4A      15F2       0  CODE        2
                text359                        000B4A  000052  000B9C      1694       0  CODE        2
                text364                        000B9C  00005C  000BF8      1738       0  CODE        2
                text366                        000BF8  000066  000C5E      17F0       0  CODE        2
                text365                        000C5E  00006E  000CCC      18BC       0  CODE        2
                text363                        000CCC  000076  000D42      1998       0  CODE        2
                text351                        000D42  0002BE  001000      1A84       0  CODE        2
                config                         002007  000001  002008      400E       0  CONFIG      2


UNUSED ADDRESS RANGES

        Name                Unused          Largest block    Delta
        BANK0            0048-006F             28           1
        BANK1            00A0-00EF             50           1
        BANK2            0110-016F             60           1
        BANK3            0190-01EF             60           1
        CODE             0003-0003              1           2
                         08E4-0980             9D
                         1000-1FFF            800
        CONST            0003-0003              1           2
                         08E4-0980             1C
                         1000-1FFF            100
        EEDATA           2100-21FF            100           2
        ENTRY            0003-0003              1           2
                         08E4-0980             1C
                         1000-1FFF            100
        IDLOC            2000-2003              4           2
        RAM              0048-006F             28           1
                         00A0-00EF             50
                         0110-016F             60
                         0190-01EF             60
        SFR0             0000-001F             20           1
        SFR1             0080-009F             20           1
        SFR2             0100-010F             10           1
        SFR3             0180-018F             10           1
        STRCODE          0003-0003              1           2
                         08E4-0980             9D
                         1000-1FFF           1000
        STRING           0003-0003              1           2
                         08E4-0980             1C
                         1000-1FFF            100

                                  Symbol Table

??___awdiv                cstackCOMMON 007B
??___awmod                cstackCOMMON 0074
??___lldiv                cstackCOMMON 0078
??___llmod                cstackCOMMON 0078
??___lwdiv                cstackCOMMON 007A
??___lwmod                cstackCOMMON 0074
??_delay                  cstackCOMMON 0074
??_i2c_start              cstackCOMMON 0073
??_lcd_clr                cstackCOMMON 0079
??_lcd_goto               cstackCOMMON 0079
??_main                   cstackBANK0  0036
??_mode1                  cstackBANK0  0020
??_mode2                  cstackBANK0  0024
??_mode3                  cstackBANK0  0024
??_send_char              cstackCOMMON 0078
??_send_config            cstackCOMMON 0078
??_send_string            cstackCOMMON 0079
??_spi_baro               cstackCOMMON 007C
??_spi_start              cstackCOMMON 0078
?___awdiv                 cstackCOMMON 0077
?___awmod                 cstackCOMMON 0070
?___lldiv                 cstackCOMMON 0070
?___llmod                 cstackCOMMON 0070
?___lwdiv                 cstackCOMMON 0076
?___lwmod                 cstackCOMMON 0070
?_delay                   cstackCOMMON 0070
?_i2c_start               cstackCOMMON 0070
?_lcd_clr                 cstackCOMMON 0070
?_lcd_goto                cstackCOMMON 0070
?_main                    cstackCOMMON 0070
?_mode1                   cstackCOMMON 0070
?_mode2                   cstackCOMMON 0070
?_mode3                   cstackCOMMON 0070
?_send_char               cstackCOMMON 0070
?_send_config             cstackCOMMON 0070
?_send_string             cstackCOMMON 0070
?_spi_baro                cstackBANK0  0020
?_spi_start               cstackCOMMON 0070
_ACKDT                    (abs)        048D
_ACKEN                    (abs)        048C
_ADCON1                   (abs)        009F
_CCP1CON                  (abs)        0017
_CCP2CON                  (abs)        001D
_CCPR1L                   (abs)        0015
_CCPR2L                   (abs)        001B
_PEN                      (abs)        048A
_PORTB                    (abs)        0006
_PR2                      (abs)        0092
_RA0                      (abs)        0028
_RA1                      (abs)        0029
_RA2                      (abs)        002A
_RA3                      (abs)        002B
_RA5                      (abs)        002D
_RC0                      (abs)        0038
_RC5                      (abs)        003D
_RC6                      (abs)        003E
_RC7                      (abs)        003F
_RCEN                     (abs)        048B
_SEN                      (abs)        0488
_SSPADD                   (abs)        0093
_SSPBUF                   (abs)        0013
_SSPCON                   (abs)        0014
_SSPCON2                  (abs)        0091
_SSPIF                    (abs)        0063
_SSPSTAT                  (abs)        0094
_T2CON                    (abs)        0012
_TRISA                    (abs)        0085
_TRISB                    (abs)        0086
_TRISC                    (abs)        0087
__Habs1                   abs1         0000
__Hbank0                  bank0        0000
__Hbank1                  bank1        0000
__Hbank2                  bank2        0000
__Hbank3                  bank3        0000
__HbssBANK0               bssBANK0     0000
__Hcinit                  cinit        0000
__Hclrtext                clrtext      0000
__Hcode                   code         0000
__Hcommon                 common       0000
__Hconfig                 config       2008
__HcstackBANK0            cstackBANK0  0000
__HcstackCOMMON           cstackCOMMON 0000
__Heeprom_data            eeprom_data  0000
__Hend_init               end_init     0003
__Hfunctab                functab      0000
__Hidloc                  idloc        0000
__Hinit                   init         0000
__Hintentry               intentry     0000
__Hmaintext               maintext     0000
__Hpowerup                powerup      0000
__Hram                    ram          0000
__Hreset_vec              reset_vec    0000
__Hsfr0                   sfr0         0000
__Hsfr1                   sfr1         0000
__Hsfr2                   sfr2         0000
__Hsfr3                   sfr3         0000
__Hstrings                strings      0000
__Htext                   text         0000
__Labs1                   abs1         0000
__Lbank0                  bank0        0000
__Lbank1                  bank1        0000
__Lbank2                  bank2        0000
__Lbank3                  bank3        0000
__LbssBANK0               bssBANK0     0000
__Lcinit                  cinit        0000
__Lclrtext                clrtext      0000
__Lcode                   code         0000
__Lcommon                 common       0000
__Lconfig                 config       2007
__LcstackBANK0            cstackBANK0  0000
__LcstackCOMMON           cstackCOMMON 0000
__Leeprom_data            eeprom_data  0000
__Lend_init               end_init     0000
__Lfunctab                functab      0000
__Lidloc                  idloc        0000
__Linit                   init         0000
__Lintentry               intentry     0000
__Lmaintext               maintext     0000
__Lpowerup                powerup      0000
__Lram                    ram          0000
__Lreset_vec              reset_vec    0000
__Lsfr0                   sfr0         0000
__Lsfr1                   sfr1         0000
__Lsfr2                   sfr2         0000
__Lsfr3                   sfr3         0000
__Lstrings                strings      0000
__Ltext                   text         0000
__S0                      (abs)        2008
__S1                      (abs)        007E
__S2                      (abs)        0000
___awdiv                  text363      0CCC
___awdiv@counter          cstackBANK0  0020
___awdiv@dividend         cstackCOMMON 0079
___awdiv@divisor          cstackCOMMON 0077
___awdiv@quotient         cstackBANK0  0022
___awdiv@sign             cstackBANK0  0021
___awmod                  text366      0BF8
___awmod@counter          cstackCOMMON 0075
___awmod@dividend         cstackCOMMON 0072
___awmod@divisor          cstackCOMMON 0070
___awmod@sign             cstackCOMMON 0076
___lldiv                  text365      0C5E
___lldiv@counter          cstackCOMMON 007D
___lldiv@dividend         cstackCOMMON 0074
___lldiv@divisor          cstackCOMMON 0070
___lldiv@quotient         cstackCOMMON 0079
___llmod                  text364      0B9C
___llmod@counter          cstackCOMMON 0079
___llmod@dividend         cstackCOMMON 0074
___llmod@divisor          cstackCOMMON 0070
___lwdiv                  text361      0AAB
___lwdiv@counter          cstackCOMMON 007D
___lwdiv@dividend         cstackCOMMON 0078
___lwdiv@divisor          cstackCOMMON 0076
___lwdiv@quotient         cstackCOMMON 007B
___lwmod                  text362      0A67
___lwmod@counter          cstackCOMMON 0075
___lwmod@dividend         cstackCOMMON 0072
___lwmod@divisor          cstackCOMMON 0070
__end_of___awdiv          text363      0D42
__end_of___awmod          text366      0C5E
__end_of___lldiv          text365      0CCC
__end_of___llmod          text364      0BF8
__end_of___lwdiv          text361      0AF9
__end_of___lwmod          text362      0AAB
__end_of_delay            text360      0A67
__end_of_i2c_start        text356      0092
__end_of_lcd_clr          text352      09AA
__end_of_lcd_goto         text353      09C7
__end_of_main             maintext     01D6
__end_of_mode1            text349      0800
__end_of_mode2            text350      04CF
__end_of_mode3            text351      1000
__end_of_send_char        text357      09EC
__end_of_send_config      text354      0A11
__end_of_send_string      text355      0A37
__end_of_spi_baro         text358      0B4A
__end_of_spi_start        text359      0B9C
__pbssBANK0               bssBANK0     0037
__pcstackBANK0            cstackBANK0  0020
__pcstackCOMMON           cstackCOMMON 0070
__pmaintext               maintext     0092
__pstrings                strings      0800
__ptext349                text349      04CF
__ptext350                text350      01D6
__ptext351                text351      0D42
__ptext352                text352      0996
__ptext353                text353      09AA
__ptext354                text354      09EC
__ptext355                text355      0A11
__ptext356                text356      0004
__ptext357                text357      09C7
__ptext358                text358      0AF9
__ptext359                text359      0B4A
__ptext360                text360      0A37
__ptext361                text361      0AAB
__ptext362                text362      0A67
__ptext363                text363      0CCC
__ptext364                text364      0B9C
__ptext365                text365      0C5E
__ptext366                text366      0BF8
__ptext367                text367      0000
__size_of___awdiv         (abs)        0000
__size_of___awmod         (abs)        0000
__size_of___lldiv         (abs)        0000
__size_of___llmod         (abs)        0000
__size_of___lwdiv         (abs)        0000
__size_of___lwmod         (abs)        0000
__size_of_delay           (abs)        0000
__size_of_i2c_start       (abs)        0000
__size_of_lcd_clr         (abs)        0000
__size_of_lcd_goto        (abs)        0000
__size_of_main            (abs)        0000
__size_of_mode1           (abs)        0000
__size_of_mode2           (abs)        0000
__size_of_mode3           (abs)        0000
__size_of_send_char       (abs)        0000
__size_of_send_config     (abs)        0000
__size_of_send_string     (abs)        0000
__size_of_spi_baro        (abs)        0000
__size_of_spi_start       (abs)        0000
_delay                    text360      0A37
_i2c_master_data          bssBANK0     0037
_i2c_master_rcvb          bssBANK0     003E
_i2c_start                text356      0004
_lcd_clr                  text352      0996
_lcd_goto                 text353      09AA
_main                     maintext     0092
_mode                     bssBANK0     0045
_mode1                    text349      04CF
_mode2                    text350      01D6
_mode3                    text351      0D42
_send_char                text357      09C7
_send_config              text354      09EC
_send_string              text355      0A11
_spi_baro                 text358      0AF9
_spi_baro_rcvb            bssBANK0     0046
_spi_start                text359      0B4A
btemp                     (abs)        007E
clear_ram                 clrtext      0981
delay@data                cstackCOMMON 0070
end_of_initialization     cinit        0992
i2c_start@address         cstackCOMMON 0075
i2c_start@i               cstackCOMMON 0076
i2c_start@operation       cstackCOMMON 0071
i2c_start@size            cstackCOMMON 0070
intlevel0                 functab      0000
intlevel1                 functab      0000
intlevel2                 functab      0000
intlevel3                 functab      0000
intlevel4                 functab      0000
intlevel5                 functab      0000
lcd_goto@data             cstackCOMMON 007A
mode1@result              cstackBANK0  0022
mode1@submode             cstackBANK0  0024
mode2@capacitance         cstackBANK0  0033
mode2@capacitance_raw     cstackBANK0  0029
mode2@i                   cstackBANK0  0032
mode2@temperature         cstackBANK0  0031
mode2@temperature_raw     cstackBANK0  002D
mode3@pressure            cstackBANK0  002E
mode3@pressure_raw        cstackBANK0  002A
mode3@temp                cstackBANK0  0032
mode3@temperature         cstackBANK0  0034
mode3@temperature_raw     cstackBANK0  0028
reset_vec                 reset_vec    0000
send_char@data            cstackCOMMON 0078
send_config@data          cstackCOMMON 0078
send_string@s             cstackCOMMON 007A
spi_baro@data             cstackBANK0  0020
spi_baro@operation        cstackBANK0  0021
spi_baro@register_address cstackBANK0  0023
spi_start@data            cstackCOMMON 0079
spi_start@i               cstackCOMMON 007B
spi_start@rcvb            cstackCOMMON 007A
start                     init         0000
start_initialization      cinit        0989
wtemp0                    (abs)        007E
