

HI-TECH Software PIC LITE Macro Assembler V9.80 build 6738 
                                                                                               Wed Jun 20 23:06:02 2012

HI-TECH Software Omniscient Code Generator (Lite mode) build 6738
     1  0000                     opt subtitle "HI-TECH Software Omniscient Code Generator (Lite mode) build 6738"
     2                           
     3                           opt pagewidth 120
     4                           
     5                           	opt lm
     6                           
     7                           	processor	16F876A
     8                           clrc	macro
     9                           	bcf	3,0
    10  0000                     	endm
    11                           clrz	macro
    12                           	bcf	3,2
    13  0000                     	endm
    14                           setc	macro
    15                           	bsf	3,0
    16  0000                     	endm
    17                           setz	macro
    18                           	bsf	3,2
    19  0000                     	endm
    20                           skipc	macro
    21                           	btfss	3,0
    22  0000                     	endm
    23                           skipz	macro
    24                           	btfss	3,2
    25  0000                     	endm
    26                           skipnc	macro
    27                           	btfsc	3,0
    28  0000                     	endm
    29                           skipnz	macro
    30                           	btfsc	3,2
    31  0000                     	endm
    32  0000                     indf	equ	0
    33  0000                     indf0	equ	0
    34  0002                     pc	equ	2
    35  0002                     pcl	equ	2
    36  0003                     status	equ	3
    37  0004                     fsr	equ	4
    38  0004                     fsr0	equ	4
    39  0001                     c	equ	1
    40  0000                     z	equ	0
    41  000A                     pclath	equ	10
    42                           # 13 "C:\Users\Phang\Desktop\9.80\PR 22\PR22.c"
    43                           	psect config,class=CONFIG,delta=2 ;#
    44                           # 13 "C:\Users\Phang\Desktop\9.80\PR 22\PR22.c"
    45  2007  3F32               	dw 0x3F32 ;#
    46                           	FNCALL	_main,_send_config
    47                           	FNCALL	_main,_lcd_clr
    48                           	FNCALL	_main,_lcd_goto
    49                           	FNCALL	_main,_send_string
    50                           	FNCALL	_main,_delay
    51                           	FNCALL	_main,_mode1
    52                           	FNCALL	_main,_mode2
    53                           	FNCALL	_main,_mode3
    54                           	FNCALL	_mode3,_spi_baro
    55                           	FNCALL	_mode3,_lcd_clr
    56                           	FNCALL	_mode3,_lcd_goto
    57                           	FNCALL	_mode3,_send_string
    58                           	FNCALL	_mode3,___lldiv
    59                           	FNCALL	_mode3,___lwmod
    60                           	FNCALL	_mode3,___lwdiv
    61                           	FNCALL	_mode3,_send_char
    62                           	FNCALL	_mode3,___llmod
    63                           	FNCALL	_mode3,_delay
    64                           	FNCALL	_mode2,_lcd_goto
    65                           	FNCALL	_mode2,_send_string
    66                           	FNCALL	_mode2,_i2c_start
    67                           	FNCALL	_mode2,_lcd_clr
    68                           	FNCALL	_mode2,_delay
    69                           	FNCALL	_mode2,___lwdiv
    70                           	FNCALL	_mode2,_send_char
    71                           	FNCALL	_mode2,___lwmod
    72                           	FNCALL	_mode2,___awmod
    73                           	FNCALL	_mode2,___awdiv
    74                           	FNCALL	_mode1,_lcd_clr
    75                           	FNCALL	_mode1,_lcd_goto
    76                           	FNCALL	_mode1,_send_string
    77                           	FNCALL	_mode1,_delay
    78                           	FNCALL	_mode1,_i2c_start
    79                           	FNCALL	_mode1,___lwmod
    80                           	FNCALL	_mode1,___lwdiv
    81                           	FNCALL	_mode1,_send_char
    82                           	FNCALL	_spi_baro,_spi_start
    83                           	FNCALL	_send_string,_send_char
    84                           	FNCALL	_lcd_goto,_send_config
    85                           	FNCALL	_lcd_clr,_send_config
    86                           	FNCALL	_lcd_clr,_delay
    87                           	FNCALL	_spi_start,_delay
    88                           	FNCALL	_send_char,_delay
    89                           	FNCALL	_send_config,_delay
    90                           	FNROOT	_main
    91                           	global	_i2c_master_data
    92                           	global	_i2c_master_rcvb
    93                           	global	_mode
    94                           	global	_spi_baro_rcvb
    95                           	global	_CCP1CON
    96                           psect	text378,local,class=CODE,delta=2
    97                           global __ptext378
    98  0000                     __ptext378:
    99  0017                     _CCP1CON	set	23
   100                           	global	_CCP2CON
   101  001D                     _CCP2CON	set	29
   102                           	global	_CCPR1L
   103  0015                     _CCPR1L	set	21
   104                           	global	_CCPR2L
   105  001B                     _CCPR2L	set	27
   106                           	global	_PORTB
   107  0006                     _PORTB	set	6
   108                           	global	_SSPBUF
   109  0013                     _SSPBUF	set	19
   110                           	global	_SSPCON
   111  0014                     _SSPCON	set	20
   112                           	global	_T2CON
   113  0012                     _T2CON	set	18
   114                           	global	_RA0
   115  0028                     _RA0	set	40
   116                           	global	_RA1
   117  0029                     _RA1	set	41
   118                           	global	_RA2
   119  002A                     _RA2	set	42
   120                           	global	_RA3
   121  002B                     _RA3	set	43
   122                           	global	_RA5
   123  002D                     _RA5	set	45
   124                           	global	_RC0
   125  0038                     _RC0	set	56
   126                           	global	_RC5
   127  003D                     _RC5	set	61
   128                           	global	_RC6
   129  003E                     _RC6	set	62
   130                           	global	_RC7
   131  003F                     _RC7	set	63
   132                           	global	_SSPIF
   133  0063                     _SSPIF	set	99
   134                           	global	_ADCON1
   135  009F                     _ADCON1	set	159
   136                           	global	_PR2
   137  0092                     _PR2	set	146
   138                           	global	_SSPADD
   139  0093                     _SSPADD	set	147
   140                           	global	_SSPCON2
   141  0091                     _SSPCON2	set	145
   142                           	global	_SSPSTAT
   143  0094                     _SSPSTAT	set	148
   144                           	global	_TRISA
   145  0085                     _TRISA	set	133
   146                           	global	_TRISB
   147  0086                     _TRISB	set	134
   148                           	global	_TRISC
   149  0087                     _TRISC	set	135
   150                           	global	_ACKDT
   151  048D                     _ACKDT	set	1165
   152                           	global	_ACKEN
   153  048C                     _ACKEN	set	1164
   154                           	global	_PEN
   155  048A                     _PEN	set	1162
   156                           	global	_RCEN
   157  048B                     _RCEN	set	1163
   158                           	global	_SEN
   159  0488                     _SEN	set	1160
   160                           psect	strings,class=STRING,delta=2
   161                           global __pstrings
   162  0800                     __pstrings:
   163                           ;	global	stringdir,stringtab,__stringbase
   164  0800                     stringtab:
   165                           ;	String table - string pointers are 1 byte each
   166  0800                     stringcode:stringdir:
      + 0800                     stringdir:	
   167  0800  3008               movlw high(stringdir)
   168  0801  008A               movwf pclath
   169  0802  0804               movf fsr,w
   170  0803  0A84               incf fsr
   171  0804  0782               	addwf pc
   172  0805                     __stringbase:
   173  0805  3400               	retlw	0
   174                           psect	strings
   175                           	
   176  0806                     STR_19:	
   177  0806  3443               	retlw	67	;'C'
   178  0807  3461               	retlw	97	;'a'
   179  0808  346C               	retlw	108	;'l'
   180  0809  3469               	retlw	105	;'i'
   181  080A  3462               	retlw	98	;'b'
   182  080B  3472               	retlw	114	;'r'
   183  080C  3461               	retlw	97	;'a'
   184  080D  3474               	retlw	116	;'t'
   185  080E  3469               	retlw	105	;'i'
   186  080F  346E               	retlw	110	;'n'
   187  0810  3467               	retlw	103	;'g'
   188  0811  342E               	retlw	46	;'.'
   189  0812  342E               	retlw	46	;'.'
   190  0813  342E               	retlw	46	;'.'
   191  0814  3420               	retlw	32	;' '
   192  0815  3420               	retlw	32	;' '
   193  0816  3400               	retlw	0
   194                           psect	strings
   195                           	
   196  0817                     STR_20:	
   197  0817  3443               	retlw	67	;'C'
   198  0818  3461               	retlw	97	;'a'
   199  0819  346C               	retlw	108	;'l'
   200  081A  3469               	retlw	105	;'i'
   201  081B  3462               	retlw	98	;'b'
   202  081C  3472               	retlw	114	;'r'
   203  081D  3461               	retlw	97	;'a'
   204  081E  3474               	retlw	116	;'t'
   205  081F  3469               	retlw	105	;'i'
   206  0820  346F               	retlw	111	;'o'
   207  0821  346E               	retlw	110	;'n'
   208  0822  3420               	retlw	32	;' '
   209  0823  3446               	retlw	70	;'F'
   210  0824  3461               	retlw	97	;'a'
   211  0825  3469               	retlw	105	;'i'
   212  0826  346C               	retlw	108	;'l'
   213  0827  3400               	retlw	0
   214                           psect	strings
   215                           	
   216  0828                     STR_12:	
   217  0828  3445               	retlw	69	;'E'
   218  0829  3478               	retlw	120	;'x'
   219  082A  3469               	retlw	105	;'i'
   220  082B  3474               	retlw	116	;'t'
   221  082C  343F               	retlw	63	;'?'
   222  082D  3420               	retlw	32	;' '
   223  082E  3420               	retlw	32	;' '
   224  082F  3420               	retlw	32	;' '
   225  0830  3420               	retlw	32	;' '
   226  0831  3420               	retlw	32	;' '
   227  0832  3420               	retlw	32	;' '
   228  0833  3420               	retlw	32	;' '
   229  0834  3420               	retlw	32	;' '
   230  0835  3420               	retlw	32	;' '
   231  0836  3420               	retlw	32	;' '
   232  0837  3400               	retlw	0
   233                           psect	strings
   234                           	
   235  0838                     STR_10:	
   236  0838  3443               	retlw	67	;'C'
   237  0839  3461               	retlw	97	;'a'
   238  083A  346C               	retlw	108	;'l'
   239  083B  3469               	retlw	105	;'i'
   240  083C  3462               	retlw	98	;'b'
   241  083D  3472               	retlw	114	;'r'
   242  083E  3461               	retlw	97	;'a'
   243  083F  3474               	retlw	116	;'t'
   244  0840  3469               	retlw	105	;'i'
   245  0841  346F               	retlw	111	;'o'
   246  0842  346E               	retlw	110	;'n'
   247  0843  343F               	retlw	63	;'?'
   248  0844  3420               	retlw	32	;' '
   249  0845  3420               	retlw	32	;' '
   250  0846  3420               	retlw	32	;' '
   251  0847  3400               	retlw	0
   252                           psect	strings
   253                           	
   254  0848                     STR_11:	
   255  0848  3452               	retlw	82	;'R'
   256  0849  3465               	retlw	101	;'e'
   257  084A  3473               	retlw	115	;'s'
   258  084B  3465               	retlw	101	;'e'
   259  084C  3474               	retlw	116	;'t'
   260  084D  3420               	retlw	32	;' '
   261  084E  344F               	retlw	79	;'O'
   262  084F  3466               	retlw	102	;'f'
   263  0850  3466               	retlw	102	;'f'
   264  0851  3473               	retlw	115	;'s'
   265  0852  3465               	retlw	101	;'e'
   266  0853  3474               	retlw	116	;'t'
   267  0854  343F               	retlw	63	;'?'
   268  0855  3420               	retlw	32	;' '
   269  0856  3420               	retlw	32	;' '
   270  0857  3400               	retlw	0
   271                           psect	strings
   272                           	
   273  0858                     STR_9:	
   274  0858  3448               	retlw	72	;'H'
   275  0859  3465               	retlw	101	;'e'
   276  085A  3461               	retlw	97	;'a'
   277  085B  3464               	retlw	100	;'d'
   278  085C  3469               	retlw	105	;'i'
   279  085D  346E               	retlw	110	;'n'
   280  085E  3467               	retlw	103	;'g'
   281  085F  3420               	retlw	32	;' '
   282  0860  344F               	retlw	79	;'O'
   283  0861  3475               	retlw	117	;'u'
   284  0862  3474               	retlw	116	;'t'
   285  0863  3470               	retlw	112	;'p'
   286  0864  3475               	retlw	117	;'u'
   287  0865  3474               	retlw	116	;'t'
   288  0866  343F               	retlw	63	;'?'
   289  0867  3400               	retlw	0
   290                           psect	strings
   291                           	
   292  0868                     STR_15:	
   293  0868  3443               	retlw	67	;'C'
   294  0869  3461               	retlw	97	;'a'
   295  086A  346C               	retlw	108	;'l'
   296  086B  3469               	retlw	105	;'i'
   297  086C  3462               	retlw	98	;'b'
   298  086D  3472               	retlw	114	;'r'
   299  086E  3461               	retlw	97	;'a'
   300  086F  3474               	retlw	116	;'t'
   301  0870  3469               	retlw	105	;'i'
   302  0871  346E               	retlw	110	;'n'
   303  0872  3467               	retlw	103	;'g'
   304  0873  342E               	retlw	46	;'.'
   305  0874  342E               	retlw	46	;'.'
   306  0875  342E               	retlw	46	;'.'
   307  0876  3400               	retlw	0
   308                           psect	strings
   309                           	
   310  0877                     STR_1:	
   311  0877  3443               	retlw	67	;'C'
   312  0878  3479               	retlw	121	;'y'
   313  0879  3474               	retlw	116	;'t'
   314  087A  3472               	retlw	114	;'r'
   315  087B  346F               	retlw	111	;'o'
   316  087C  346E               	retlw	110	;'n'
   317  087D  3420               	retlw	32	;' '
   318  087E  3454               	retlw	84	;'T'
   319  087F  3465               	retlw	101	;'e'
   320  0880  3463               	retlw	99	;'c'
   321  0881  3468               	retlw	104	;'h'
   322  0882  342E               	retlw	46	;'.'
   323  0883  3400               	retlw	0
   324                           psect	strings
   325                           	
   326  0884                     STR_23:	
   327  0884  3453               	retlw	83	;'S'
   328  0885  3461               	retlw	97	;'a'
   329  0886  3474               	retlw	116	;'t'
   330  0887  3475               	retlw	117	;'u'
   331  0888  3472               	retlw	114	;'r'
   332  0889  3461               	retlw	97	;'a'
   333  088A  3474               	retlw	116	;'t'
   334  088B  3465               	retlw	101	;'e'
   335  088C  3464               	retlw	100	;'d'
   336  088D  3400               	retlw	0
   337                           psect	strings
   338                           	
   339  088E                     STR_13:	
   340  088E  3448               	retlw	72	;'H'
   341  088F  3465               	retlw	101	;'e'
   342  0890  3461               	retlw	97	;'a'
   343  0891  3464               	retlw	100	;'d'
   344  0892  3469               	retlw	105	;'i'
   345  0893  346E               	retlw	110	;'n'
   346  0894  3467               	retlw	103	;'g'
   347  0895  343A               	retlw	58	;':'
   348  0896  3400               	retlw	0
   349                           psect	strings
   350                           	
   351  0897                     STR_6:	
   352  0897  3441               	retlw	65	;'A'
   353  0898  3444               	retlw	68	;'D'
   354  0899  3437               	retlw	55	;'7'
   355  089A  3437               	retlw	55	;'7'
   356  089B  3434               	retlw	52	;'4'
   357  089C  3436               	retlw	54	;'6'
   358  089D  3420               	retlw	32	;' '
   359  089E  3400               	retlw	0
   360                           psect	strings
   361                           	
   362  089F                     STR_7:	
   363  089F  3453               	retlw	83	;'S'
   364  08A0  3443               	retlw	67	;'C'
   365  08A1  3450               	retlw	80	;'P'
   366  08A2  3431               	retlw	49	;'1'
   367  08A3  3430               	retlw	48	;'0'
   368  08A4  3430               	retlw	48	;'0'
   369  08A5  3430               	retlw	48	;'0'
   370  08A6  3400               	retlw	0
   371                           psect	strings
   372                           	
   373  08A7                     STR_5:	
   374  08A7  3448               	retlw	72	;'H'
   375  08A8  344D               	retlw	77	;'M'
   376  08A9  3443               	retlw	67	;'C'
   377  08AA  3436               	retlw	54	;'6'
   378  08AB  3433               	retlw	51	;'3'
   379  08AC  3435               	retlw	53	;'5'
   380  08AD  3432               	retlw	50	;'2'
   381  08AE  3400               	retlw	0
   382                           psect	strings
   383                           	
   384  08AF                     STR_3:	
   385  08AF  3453               	retlw	83	;'S'
   386  08B0  3465               	retlw	101	;'e'
   387  08B1  346E               	retlw	110	;'n'
   388  08B2  3473               	retlw	115	;'s'
   389  08B3  346F               	retlw	111	;'o'
   390  08B4  3472               	retlw	114	;'r'
   391  08B5  343A               	retlw	58	;':'
   392  08B6  3400               	retlw	0
   393                           psect	strings
   394                           	
   395  08B7                     STR_25:	
   396  08B7  3450               	retlw	80	;'P'
   397  08B8  3472               	retlw	114	;'r'
   398  08B9  3465               	retlw	101	;'e'
   399  08BA  342E               	retlw	46	;'.'
   400  08BB  343A               	retlw	58	;':'
   401  08BC  3400               	retlw	0
   402                           psect	strings
   403                           	
   404  08BD                     STR_22:	
   405  08BD  3454               	retlw	84	;'T'
   406  08BE  3465               	retlw	101	;'e'
   407  08BF  346D               	retlw	109	;'m'
   408  08C0  342E               	retlw	46	;'.'
   409  08C1  343A               	retlw	58	;':'
   410  08C2  3400               	retlw	0
   411                           psect	strings
   412                           	
   413  08C3                     STR_21:	
   414  08C3  3443               	retlw	67	;'C'
   415  08C4  3461               	retlw	97	;'a'
   416  08C5  3470               	retlw	112	;'p'
   417  08C6  342E               	retlw	46	;'.'
   418  08C7  343A               	retlw	58	;':'
   419  08C8  3400               	retlw	0
   420                           psect	strings
   421                           	
   422  08C9                     STR_24:	
   423  08C9  3470               	retlw	112	;'p'
   424  08CA  3446               	retlw	70	;'F'
   425  08CB  3420               	retlw	32	;' '
   426  08CC  3420               	retlw	32	;' '
   427  08CD  3400               	retlw	0
   428                           psect	strings
   429                           	
   430  08CE                     STR_2:	
   431  08CE  3450               	retlw	80	;'P'
   432  08CF  3452               	retlw	82	;'R'
   433  08D0  3432               	retlw	50	;'2'
   434  08D1  3432               	retlw	50	;'2'
   435  08D2  3400               	retlw	0
   436                           psect	strings
   437                           	
   438  08D3                     STR_17:	
   439  08D3  3444               	retlw	68	;'D'
   440  08D4  346F               	retlw	111	;'o'
   441  08D5  346E               	retlw	110	;'n'
   442  08D6  3465               	retlw	101	;'e'
   443  08D7  3400               	retlw	0
   444                           psect	strings
   445                           	
   446  08D8                     STR_14:	
   447  08D8  3445               	retlw	69	;'E'
   448  08D9  3478               	retlw	120	;'x'
   449  08DA  3469               	retlw	105	;'i'
   450  08DB  3474               	retlw	116	;'t'
   451  08DC  3400               	retlw	0
   452                           psect	strings
   453                           	
   454  08DD                     STR_27:	
   455  08DD  346B               	retlw	107	;'k'
   456  08DE  3450               	retlw	80	;'P'
   457  08DF  3461               	retlw	97	;'a'
   458  08E0  3400               	retlw	0
   459                           psect	strings
   460                           	
   461  08E1                     STR_4:	
   462  08E1  344F               	retlw	79	;'O'
   463  08E2  344B               	retlw	75	;'K'
   464  08E3  3400               	retlw	0
   465                           psect	strings
   466  08D8                     STR_16	equ	STR_14+0
   467  08D3                     STR_18	equ	STR_17+0
   468  08E1                     STR_8	equ	STR_4+0
   469  08BD                     STR_26	equ	STR_22+0
   470                           	file	"PR 22.as"
   471                           	line	#
   472                           psect cinit,class=CODE,delta=2
   473                           global start_initialization
   474  0943                     start_initialization:
   475                           
   476                           psect	bssBANK0,class=BANK0,space=1
   477                           global __pbssBANK0
   478  0037                     __pbssBANK0:
   479  0037                     _i2c_master_data:
   480  0037                            ds      7
   481                           
   482  003E                     _i2c_master_rcvb:
   483  003E                            ds      7
   484                           
   485  0045                     _mode:
   486  0045                            ds      1
   487                           
   488  0046                     _spi_baro_rcvb:
   489  0046                            ds      2
   490                           
   491                           psect clrtext,class=CODE,delta=2
   492                           global clear_ram
   493                           ;	Called with FSR containing the base address, and
   494                           ;	W with the last address+1
   495  0003                     clear_ram:
   496  0003  0064               	clrwdt			;clear the watchdog before getting into this loop
   497  0004                     clrloop:
   498  0004  0180               	clrf	indf		;clear RAM location pointed to by FSR
   499  0005  0A84               	incf	fsr,f		;increment pointer
   500  0006  0604               	xorwf	fsr,w		;XOR with final address
   501  0007  1903               	btfsc	status,2	;have we reached the end yet?
   502  0008  3400               	retlw	0		;all done for this memory range, return
   503  0009  0604               	xorwf	fsr,w		;XOR again to restore value
   504  000A  2804               	goto	clrloop		;do the next byte
   505                           
   506                           ; Clear objects allocated to BANK0
   507                           psect cinit,class=CODE,delta=2
   508  0943  1383               	bcf	status, 7	;select IRP bank0
   509  0944  3037               	movlw	low(__pbssBANK0)
   510  0945  0084               	movwf	fsr
   511  0946  3048               	movlw	low((__pbssBANK0)+011h)
   512  0947  120A  118A  2003   	fcall	clear_ram
              120A  158A         
   513                           psect cinit,class=CODE,delta=2
   514                           global end_of_initialization
   515                           
   516                           ;End of C runtime variable initialization code
   517                           
   518  094C                     end_of_initialization:
   519  094C  0183               clrf status
   520  094D  120A  118A  2886   ljmp _main	;jump to C main() function
   521                           psect	cstackCOMMON,class=COMMON,space=1
   522                           global __pcstackCOMMON
   523  0070                     __pcstackCOMMON:
   524                           	global	?_send_config
   525  0070                     ?_send_config:	; 0 bytes @ 0x0
   526                           	global	?_lcd_clr
   527  0070                     ?_lcd_clr:	; 0 bytes @ 0x0
   528                           	global	?_lcd_goto
   529  0070                     ?_lcd_goto:	; 0 bytes @ 0x0
   530                           	global	?_send_string
   531  0070                     ?_send_string:	; 0 bytes @ 0x0
   532                           	global	?_delay
   533  0070                     ?_delay:	; 0 bytes @ 0x0
   534                           	global	?_mode1
   535  0070                     ?_mode1:	; 0 bytes @ 0x0
   536                           	global	?_mode2
   537  0070                     ?_mode2:	; 0 bytes @ 0x0
   538                           	global	?_mode3
   539  0070                     ?_mode3:	; 0 bytes @ 0x0
   540                           	global	?_i2c_start
   541  0070                     ?_i2c_start:	; 0 bytes @ 0x0
   542                           	global	?_send_char
   543  0070                     ?_send_char:	; 0 bytes @ 0x0
   544                           	global	?_main
   545  0070                     ?_main:	; 0 bytes @ 0x0
   546                           	global	?_spi_start
   547  0070                     ?_spi_start:	; 1 bytes @ 0x0
   548                           	global	?___lwmod
   549  0070                     ?___lwmod:	; 2 bytes @ 0x0
   550                           	global	?___awmod
   551  0070                     ?___awmod:	; 2 bytes @ 0x0
   552                           	global	?___llmod
   553  0070                     ?___llmod:	; 4 bytes @ 0x0
   554                           	global	?___lldiv
   555  0070                     ?___lldiv:	; 4 bytes @ 0x0
   556                           	global	i2c_start@size
   557  0070                     i2c_start@size:	; 1 bytes @ 0x0
   558                           	global	___lwmod@divisor
   559  0070                     ___lwmod@divisor:	; 2 bytes @ 0x0
   560                           	global	___awmod@divisor
   561  0070                     ___awmod@divisor:	; 2 bytes @ 0x0
   562                           	global	delay@data
   563  0070                     delay@data:	; 4 bytes @ 0x0
   564                           	global	___llmod@divisor
   565  0070                     ___llmod@divisor:	; 4 bytes @ 0x0
   566                           	global	___lldiv@divisor
   567  0070                     ___lldiv@divisor:	; 4 bytes @ 0x0
   568  0070                     	ds	1
   569                           	global	i2c_start@operation
   570  0071                     i2c_start@operation:	; 2 bytes @ 0x1
   571  0071                     	ds	1
   572                           	global	___lwmod@dividend
   573  0072                     ___lwmod@dividend:	; 2 bytes @ 0x2
   574                           	global	___awmod@dividend
   575  0072                     ___awmod@dividend:	; 2 bytes @ 0x2
   576  0072                     	ds	1
   577                           	global	??_i2c_start
   578  0073                     ??_i2c_start:	; 0 bytes @ 0x3
   579  0073                     	ds	1
   580                           	global	??_delay
   581  0074                     ??_delay:	; 0 bytes @ 0x4
   582                           	global	??___lwmod
   583  0074                     ??___lwmod:	; 0 bytes @ 0x4
   584                           	global	??___awmod
   585  0074                     ??___awmod:	; 0 bytes @ 0x4
   586                           	global	___llmod@dividend
   587  0074                     ___llmod@dividend:	; 4 bytes @ 0x4
   588                           	global	___lldiv@dividend
   589  0074                     ___lldiv@dividend:	; 4 bytes @ 0x4
   590  0074                     	ds	1
   591                           	global	i2c_start@address
   592  0075                     i2c_start@address:	; 1 bytes @ 0x5
   593                           	global	___lwmod@counter
   594  0075                     ___lwmod@counter:	; 1 bytes @ 0x5
   595                           	global	___awmod@counter
   596  0075                     ___awmod@counter:	; 1 bytes @ 0x5
   597  0075                     	ds	1
   598                           	global	?___lwdiv
   599  0076                     ?___lwdiv:	; 2 bytes @ 0x6
   600                           	global	i2c_start@i
   601  0076                     i2c_start@i:	; 1 bytes @ 0x6
   602                           	global	___awmod@sign
   603  0076                     ___awmod@sign:	; 1 bytes @ 0x6
   604                           	global	___lwdiv@divisor
   605  0076                     ___lwdiv@divisor:	; 2 bytes @ 0x6
   606  0076                     	ds	1
   607                           	global	?___awdiv
   608  0077                     ?___awdiv:	; 2 bytes @ 0x7
   609                           	global	___awdiv@divisor
   610  0077                     ___awdiv@divisor:	; 2 bytes @ 0x7
   611  0077                     	ds	1
   612                           	global	??_send_config
   613  0078                     ??_send_config:	; 0 bytes @ 0x8
   614                           	global	??_send_char
   615  0078                     ??_send_char:	; 0 bytes @ 0x8
   616                           	global	??_spi_start
   617  0078                     ??_spi_start:	; 0 bytes @ 0x8
   618                           	global	??___llmod
   619  0078                     ??___llmod:	; 0 bytes @ 0x8
   620                           	global	??___lldiv
   621  0078                     ??___lldiv:	; 0 bytes @ 0x8
   622                           	global	send_config@data
   623  0078                     send_config@data:	; 1 bytes @ 0x8
   624                           	global	send_char@data
   625  0078                     send_char@data:	; 1 bytes @ 0x8
   626                           	global	___lwdiv@dividend
   627  0078                     ___lwdiv@dividend:	; 2 bytes @ 0x8
   628  0078                     	ds	1
   629                           	global	??_lcd_clr
   630  0079                     ??_lcd_clr:	; 0 bytes @ 0x9
   631                           	global	??_lcd_goto
   632  0079                     ??_lcd_goto:	; 0 bytes @ 0x9
   633                           	global	??_send_string
   634  0079                     ??_send_string:	; 0 bytes @ 0x9
   635                           	global	spi_start@data
   636  0079                     spi_start@data:	; 1 bytes @ 0x9
   637                           	global	___llmod@counter
   638  0079                     ___llmod@counter:	; 1 bytes @ 0x9
   639                           	global	___awdiv@dividend
   640  0079                     ___awdiv@dividend:	; 2 bytes @ 0x9
   641                           	global	___lldiv@quotient
   642  0079                     ___lldiv@quotient:	; 4 bytes @ 0x9
   643  0079                     	ds	1
   644                           	global	??___lwdiv
   645  007A                     ??___lwdiv:	; 0 bytes @ 0xA
   646                           	global	lcd_goto@data
   647  007A                     lcd_goto@data:	; 1 bytes @ 0xA
   648                           	global	send_string@s
   649  007A                     send_string@s:	; 1 bytes @ 0xA
   650                           	global	spi_start@rcvb
   651  007A                     spi_start@rcvb:	; 1 bytes @ 0xA
   652  007A                     	ds	1
   653                           	global	??___awdiv
   654  007B                     ??___awdiv:	; 0 bytes @ 0xB
   655                           	global	spi_start@i
   656  007B                     spi_start@i:	; 1 bytes @ 0xB
   657                           	global	___lwdiv@quotient
   658  007B                     ___lwdiv@quotient:	; 2 bytes @ 0xB
   659  007B                     	ds	1
   660                           	global	??_spi_baro
   661  007C                     ??_spi_baro:	; 0 bytes @ 0xC
   662  007C                     	ds	1
   663                           	global	___lwdiv@counter
   664  007D                     ___lwdiv@counter:	; 1 bytes @ 0xD
   665                           	global	___lldiv@counter
   666  007D                     ___lldiv@counter:	; 1 bytes @ 0xD
   667  007D                     	ds	1
   668                           psect	cstackBANK0,class=BANK0,space=1
   669                           global __pcstackBANK0
   670  0020                     __pcstackBANK0:
   671                           	global	??_mode1
   672  0020                     ??_mode1:	; 0 bytes @ 0x0
   673                           	global	?_spi_baro
   674  0020                     ?_spi_baro:	; 0 bytes @ 0x0
   675                           	global	spi_baro@data
   676  0020                     spi_baro@data:	; 1 bytes @ 0x0
   677                           	global	___awdiv@counter
   678  0020                     ___awdiv@counter:	; 1 bytes @ 0x0
   679  0020                     	ds	1
   680                           	global	___awdiv@sign
   681  0021                     ___awdiv@sign:	; 1 bytes @ 0x1
   682                           	global	spi_baro@operation
   683  0021                     spi_baro@operation:	; 2 bytes @ 0x1
   684  0021                     	ds	1
   685                           	global	mode1@result
   686  0022                     mode1@result:	; 2 bytes @ 0x2
   687                           	global	___awdiv@quotient
   688  0022                     ___awdiv@quotient:	; 2 bytes @ 0x2
   689  0022                     	ds	1
   690                           	global	spi_baro@register_address
   691  0023                     spi_baro@register_address:	; 1 bytes @ 0x3
   692  0023                     	ds	1
   693                           	global	??_mode2
   694  0024                     ??_mode2:	; 0 bytes @ 0x4
   695                           	global	??_mode3
   696  0024                     ??_mode3:	; 0 bytes @ 0x4
   697                           	global	mode1@submode
   698  0024                     mode1@submode:	; 1 bytes @ 0x4
   699  0024                     	ds	4
   700                           	global	mode3@temperature_raw
   701  0028                     mode3@temperature_raw:	; 2 bytes @ 0x8
   702  0028                     	ds	1
   703                           	global	mode2@capacitance_raw
   704  0029                     mode2@capacitance_raw:	; 4 bytes @ 0x9
   705  0029                     	ds	1
   706                           	global	mode3@pressure_raw
   707  002A                     mode3@pressure_raw:	; 4 bytes @ 0xA
   708  002A                     	ds	3
   709                           	global	mode2@temperature_raw
   710  002D                     mode2@temperature_raw:	; 4 bytes @ 0xD
   711  002D                     	ds	1
   712                           	global	mode3@pressure
   713  002E                     mode3@pressure:	; 4 bytes @ 0xE
   714  002E                     	ds	3
   715                           	global	mode2@temperature
   716  0031                     mode2@temperature:	; 1 bytes @ 0x11
   717  0031                     	ds	1
   718                           	global	mode2@i
   719  0032                     mode2@i:	; 1 bytes @ 0x12
   720                           	global	mode3@temp
   721  0032                     mode3@temp:	; 2 bytes @ 0x12
   722  0032                     	ds	1
   723                           	global	mode2@capacitance
   724  0033                     mode2@capacitance:	; 2 bytes @ 0x13
   725  0033                     	ds	1
   726                           	global	mode3@temperature
   727  0034                     mode3@temperature:	; 2 bytes @ 0x14
   728  0034                     	ds	2
   729                           	global	??_main
   730  0036                     ??_main:	; 0 bytes @ 0x16
   731  0036                     	ds	1
   732 ;;Data sizes: Strings 222, constant 0, data 0, bss 17, persistent 0 stack 0
   733 ;;Auto spaces:   Size  Autos    Used
   734 ;; COMMON          14     14      14
   735 ;; BANK0           80     23      40
   736 ;; BANK1           80      0       0
   737 ;; BANK3           96      0       0
   738 ;; BANK2           96      0       0
   739                           
   740 ;;
   741 ;; Pointer list with targets:
   742                           
   743 ;; ?___llmod	unsigned long  size(1) Largest target is 2
   744 ;;		 -> spi_baro_rcvb(BANK0[2]), 
   745 ;;
   746 ;; ?___lldiv	unsigned long  size(1) Largest target is 0
   747 ;;
   748 ;; ?___awdiv	int  size(1) Largest target is 0
   749 ;;
   750 ;; ?___awmod	int  size(1) Largest target is 0
   751 ;;
   752 ;; ?___lwdiv	unsigned int  size(1) Largest target is 0
   753 ;;
   754 ;; ?___lwmod	unsigned int  size(1) Largest target is 2
   755 ;;		 -> spi_baro_rcvb(BANK0[2]), 
   756 ;;
   757 ;; send_string@s	PTR const unsigned char  size(1) Largest target is 17
   758 ;;		 -> STR_27(CODE[4]), STR_26(CODE[6]), STR_25(CODE[6]), STR_24(CODE[5]), 
   759 ;;		 -> STR_23(CODE[10]), STR_22(CODE[6]), STR_21(CODE[6]), STR_20(CODE[17]), 
   760 ;;		 -> STR_19(CODE[17]), STR_18(CODE[5]), STR_17(CODE[5]), STR_16(CODE[5]), 
   761 ;;		 -> STR_15(CODE[15]), STR_14(CODE[5]), STR_13(CODE[9]), STR_12(CODE[16]), 
   762 ;;		 -> STR_11(CODE[16]), STR_10(CODE[16]), STR_9(CODE[16]), STR_8(CODE[3]), 
   763 ;;		 -> STR_7(CODE[8]), STR_6(CODE[8]), STR_5(CODE[8]), STR_4(CODE[3]), 
   764 ;;		 -> STR_3(CODE[8]), STR_2(CODE[5]), STR_1(CODE[13]), 
   765 ;;
   766                           
   767                           
   768 ;;
   769 ;; Critical Paths under _main in COMMON
   770 ;;
   771 ;;   _mode3->_spi_baro
   772 ;;   _mode3->___lldiv
   773 ;;   _mode3->___lwdiv
   774 ;;   _mode2->___lwdiv
   775 ;;   _mode1->___lwdiv
   776 ;;   _spi_baro->_spi_start
   777 ;;   _send_string->_send_char
   778 ;;   _lcd_goto->_send_config
   779 ;;   _lcd_clr->_send_config
   780 ;;   _spi_start->_delay
   781 ;;   _send_char->_delay
   782 ;;   _send_config->_delay
   783 ;;   ___awdiv->___awmod
   784 ;;   ___lwdiv->___lwmod
   785 ;;
   786 ;; Critical Paths under _main in BANK0
   787 ;;
   788 ;;   _main->_mode3
   789 ;;   _mode3->_spi_baro
   790 ;;   _mode2->___awdiv
   791 ;;
   792 ;; Critical Paths under _main in BANK1
   793 ;;
   794 ;;   None.
   795 ;;
   796 ;; Critical Paths under _main in BANK3
   797 ;;
   798 ;;   None.
   799 ;;
   800 ;; Critical Paths under _main in BANK2
   801 ;;
   802 ;;   None.
   803                           
   804 ;;
   805 ;;Main: autosize = 0, tempsize = 1, incstack = 0, save=0
   806 ;;
   807                           
   808 ;;
   809 ;;Call Graph Tables:
   810 ;;
   811 ;; ---------------------------------------------------------------------------------
   812 ;; (Depth) Function   	        Calls       Base Space   Used Autos Params    Refs
   813 ;; ---------------------------------------------------------------------------------
   814 ;; (0) _main                                                 1     1      0    5606
   815 ;;                                             22 BANK0      1     1      0
   816 ;;                        _send_config
   817 ;;                            _lcd_clr
   818 ;;                           _lcd_goto
   819 ;;                        _send_string
   820 ;;                              _delay
   821 ;;                              _mode1
   822 ;;                              _mode2
   823 ;;                              _mode3
   824 ;; ---------------------------------------------------------------------------------
   825 ;; (1) _mode3                                               18    18      0    1810
   826 ;;                                              4 BANK0     18    18      0
   827 ;;                           _spi_baro
   828 ;;                            _lcd_clr
   829 ;;                           _lcd_goto
   830 ;;                        _send_string
   831 ;;                            ___lldiv
   832 ;;                            ___lwmod
   833 ;;                            ___lwdiv
   834 ;;                          _send_char
   835 ;;                            ___llmod
   836 ;;                              _delay
   837 ;; ---------------------------------------------------------------------------------
   838 ;; (1) _mode2                                               17    17      0    1999
   839 ;;                                              4 BANK0     17    17      0
   840 ;;                           _lcd_goto
   841 ;;                        _send_string
   842 ;;                          _i2c_start
   843 ;;                            _lcd_clr
   844 ;;                              _delay
   845 ;;                            ___lwdiv
   846 ;;                          _send_char
   847 ;;                            ___lwmod
   848 ;;                            ___awmod
   849 ;;                            ___awdiv
   850 ;; ---------------------------------------------------------------------------------
   851 ;; (1) _mode1                                                5     5      0    1283
   852 ;;                                              0 BANK0      5     5      0
   853 ;;                            _lcd_clr
   854 ;;                           _lcd_goto
   855 ;;                        _send_string
   856 ;;                              _delay
   857 ;;                          _i2c_start
   858 ;;                            ___lwmod
   859 ;;                            ___lwdiv
   860 ;;                          _send_char
   861 ;; ---------------------------------------------------------------------------------
   862 ;; (2) _spi_baro                                             6     3      3     293
   863 ;;                                             12 COMMON     2     2      0
   864 ;;                                              0 BANK0      4     1      3
   865 ;;                          _spi_start
   866 ;; ---------------------------------------------------------------------------------
   867 ;; (2) _send_string                                          2     2      0     134
   868 ;;                                              9 COMMON     2     2      0
   869 ;;                          _send_char
   870 ;; ---------------------------------------------------------------------------------
   871 ;; (2) _lcd_goto                                             2     2      0     156
   872 ;;                                              9 COMMON     2     2      0
   873 ;;                        _send_config
   874 ;; ---------------------------------------------------------------------------------
   875 ;; (2) _lcd_clr                                              0     0      0     112
   876 ;;                        _send_config
   877 ;;                              _delay
   878 ;; ---------------------------------------------------------------------------------
   879 ;; (3) _spi_start                                            4     4      0     161
   880 ;;                                              8 COMMON     4     4      0
   881 ;;                              _delay
   882 ;; ---------------------------------------------------------------------------------
   883 ;; (2) _send_char                                            1     1      0      67
   884 ;;                                              8 COMMON     1     1      0
   885 ;;                              _delay
   886 ;; ---------------------------------------------------------------------------------
   887 ;; (3) _send_config                                          1     1      0      67
   888 ;;                                              8 COMMON     1     1      0
   889 ;;                              _delay
   890 ;; ---------------------------------------------------------------------------------
   891 ;; (2) ___awmod                                              7     3      4     296
   892 ;;                                              0 COMMON     7     3      4
   893 ;; ---------------------------------------------------------------------------------
   894 ;; (2) ___lldiv                                             14     6      8     162
   895 ;;                                              0 COMMON    14     6      8
   896 ;; ---------------------------------------------------------------------------------
   897 ;; (2) ___llmod                                             10     2      8     159
   898 ;;                                              0 COMMON    10     2      8
   899 ;; ---------------------------------------------------------------------------------
   900 ;; (2) ___awdiv                                              9     5      4     300
   901 ;;                                              7 COMMON     5     1      4
   902 ;;                                              0 BANK0      4     4      0
   903 ;;                            ___awmod (ARG)
   904 ;; ---------------------------------------------------------------------------------
   905 ;; (2) ___lwmod                                              6     2      4     159
   906 ;;                                              0 COMMON     6     2      4
   907 ;; ---------------------------------------------------------------------------------
   908 ;; (2) ___lwdiv                                              8     4      4     162
   909 ;;                                              6 COMMON     8     4      4
   910 ;;                            ___lwmod (ARG)
   911 ;; ---------------------------------------------------------------------------------
   912 ;; (2) _i2c_start                                            7     4      3     268
   913 ;;                                              0 COMMON     7     4      3
   914 ;; ---------------------------------------------------------------------------------
   915 ;; (2) _delay                                                8     4      4      45
   916 ;;                                              0 COMMON     8     4      4
   917 ;; ---------------------------------------------------------------------------------
   918 ;; Estimated maximum stack depth 3
   919 ;; ---------------------------------------------------------------------------------
   920                           
   921 ;; Call Graph Graphs:
   922                           
   923 ;; _main (ROOT)
   924 ;;   _send_config
   925 ;;     _delay
   926 ;;   _lcd_clr
   927 ;;     _send_config
   928 ;;       _delay
   929 ;;     _delay
   930 ;;   _lcd_goto
   931 ;;     _send_config
   932 ;;       _delay
   933 ;;   _send_string
   934 ;;     _send_char
   935 ;;       _delay
   936 ;;   _delay
   937 ;;   _mode1
   938 ;;     _lcd_clr
   939 ;;       _send_config
   940 ;;         _delay
   941 ;;       _delay
   942 ;;     _lcd_goto
   943 ;;       _send_config
   944 ;;         _delay
   945 ;;     _send_string
   946 ;;       _send_char
   947 ;;         _delay
   948 ;;     _delay
   949 ;;     _i2c_start
   950 ;;     ___lwmod
   951 ;;     ___lwdiv
   952 ;;       ___lwmod (ARG)
   953 ;;     _send_char
   954 ;;       _delay
   955 ;;   _mode2
   956 ;;     _lcd_goto
   957 ;;       _send_config
   958 ;;         _delay
   959 ;;     _send_string
   960 ;;       _send_char
   961 ;;         _delay
   962 ;;     _i2c_start
   963 ;;     _lcd_clr
   964 ;;       _send_config
   965 ;;         _delay
   966 ;;       _delay
   967 ;;     _delay
   968 ;;     ___lwdiv
   969 ;;       ___lwmod (ARG)
   970 ;;     _send_char
   971 ;;       _delay
   972 ;;     ___lwmod
   973 ;;     ___awmod
   974 ;;     ___awdiv
   975 ;;       ___awmod (ARG)
   976 ;;   _mode3
   977 ;;     _spi_baro
   978 ;;       _spi_start
   979 ;;         _delay
   980 ;;     _lcd_clr
   981 ;;       _send_config
   982 ;;         _delay
   983 ;;       _delay
   984 ;;     _lcd_goto
   985 ;;       _send_config
   986 ;;         _delay
   987 ;;     _send_string
   988 ;;       _send_char
   989 ;;         _delay
   990 ;;     ___lldiv
   991 ;;     ___lwmod
   992 ;;     ___lwdiv
   993 ;;       ___lwmod (ARG)
   994 ;;     _send_char
   995 ;;       _delay
   996 ;;     ___llmod
   997 ;;     _delay
   998 ;;
   999                           
  1000 ;; Address spaces:
  1001                           
  1002 ;;Name               Size   Autos  Total    Cost      Usage
  1003 ;;BITCOMMON            E      0       0       0        0.0%
  1004 ;;EEDATA             100      0       0       0        0.0%
  1005 ;;NULL                 0      0       0       0        0.0%
  1006 ;;CODE                 0      0       0       0        0.0%
  1007 ;;COMMON               E      E       E       1      100.0%
  1008 ;;BITSFR0              0      0       0       1        0.0%
  1009 ;;SFR0                 0      0       0       1        0.0%
  1010 ;;BITSFR1              0      0       0       2        0.0%
  1011 ;;SFR1                 0      0       0       2        0.0%
  1012 ;;STACK                0      0       4       2        0.0%
  1013 ;;ABS                  0      0      36       3        0.0%
  1014 ;;BITBANK0            50      0       0       4        0.0%
  1015 ;;BITSFR3              0      0       0       4        0.0%
  1016 ;;SFR3                 0      0       0       4        0.0%
  1017 ;;BANK0               50     17      28       5       50.0%
  1018 ;;BITSFR2              0      0       0       5        0.0%
  1019 ;;SFR2                 0      0       0       5        0.0%
  1020 ;;BITBANK1            50      0       0       6        0.0%
  1021 ;;BANK1               50      0       0       7        0.0%
  1022 ;;BITBANK3            60      0       0       8        0.0%
  1023 ;;BANK3               60      0       0       9        0.0%
  1024 ;;BITBANK2            60      0       0      10        0.0%
  1025 ;;BANK2               60      0       0      11        0.0%
  1026 ;;DATA                 0      0      3A      12        0.0%
  1027                           
  1028                           	global	_main
  1029                           psect	maintext,global,class=CODE,delta=2
  1030                           global __pmaintext
  1031  0086                     __pmaintext:
  1032                           
  1033 ;; *************** function _main *****************
  1034 ;; Defined at:
  1035 ;;		line 66 in file "C:\Users\Phang\Desktop\9.80\PR 22\PR22.c"
  1036 ;; Parameters:    Size  Location     Type
  1037 ;;		None
  1038 ;; Auto vars:     Size  Location     Type
  1039 ;;		None
  1040 ;; Return value:  Size  Location     Type
  1041 ;;		None               void
  1042 ;; Registers used:
  1043 ;;		wreg, fsr0l, fsr0h, status,2, status,0, btemp+1, pclath, cstack
  1044 ;; Tracked objects:
  1045 ;;		On entry : 17F/0
  1046 ;;		On exit  : 0/0
  1047 ;;		Unchanged: 0/0
  1048 ;; Data sizes:     COMMON   BANK0   BANK1   BANK3   BANK2
  1049 ;;      Params:         0       0       0       0       0
  1050 ;;      Locals:         0       0       0       0       0
  1051 ;;      Temps:          0       1       0       0       0
  1052 ;;      Totals:         0       1       0       0       0
  1053 ;;Total ram usage:        1 bytes
  1054 ;; Hardware stack levels required when called:    4
  1055 ;; This function calls:
  1056 ;;		_send_config
  1057 ;;		_lcd_clr
  1058 ;;		_lcd_goto
  1059 ;;		_send_string
  1060 ;;		_delay
  1061 ;;		_mode1
  1062 ;;		_mode2
  1063 ;;		_mode3
  1064 ;; This function is called by:
  1065 ;;		Startup code after reset
  1066 ;; This function uses a non-reentrant model
  1067 ;;
  1068                           psect	maintext
  1069                           	file	"C:\Users\Phang\Desktop\9.80\PR 22\PR22.c"
  1070                           	line	66
  1071                           	global	__size_of_main
  1072  0144                     	__size_of_main	equ	__end_of_main-_main
  1073                           	
  1074  0086                     _main:	
  1075                           	opt	stack 4
  1076                           ; Regs used in _main: [wreg-fsr0h+status,2+status,0+btemp+1+pclath+cstack]
  1077                           	line	68
  1078                           	
  1079  0086                     l3555:	
  1080                           ;PR22.c: 68: TRISB = 0b00000000;
  1081  0086  1683               	bsf	status, 5	;RP0=1, select bank1
  1082  0087  1303               	bcf	status, 6	;RP1=0, select bank1
  1083  0088  0186               	clrf	(134)^080h	;volatile
  1084                           	line	69
  1085                           	
  1086  0089                     l3557:	
  1087                           ;PR22.c: 69: TRISC = 0b00111000;
  1088  0089  3038               	movlw	(038h)
  1089  008A  0087               	movwf	(135)^080h	;volatile
  1090                           	line	70
  1091                           	
  1092  008B                     l3559:	
  1093                           ;PR22.c: 70: TRISA = 0b00010111;
  1094  008B  3017               	movlw	(017h)
  1095  008C  0085               	movwf	(133)^080h	;volatile
  1096                           	line	73
  1097                           ;PR22.c: 73: SSPBUF = 0;
  1098  008D  1283               	bcf	status, 5	;RP0=0, select bank0
  1099  008E  1303               	bcf	status, 6	;RP1=0, select bank0
  1100  008F  0193               	clrf	(19)	;volatile
  1101                           	line	74
  1102                           	
  1103  0090                     l3561:	
  1104                           ;PR22.c: 74: SSPSTAT = 0b11000000;
  1105  0090  30C0               	movlw	(0C0h)
  1106  0091  1683               	bsf	status, 5	;RP0=1, select bank1
  1107  0092  1303               	bcf	status, 6	;RP1=0, select bank1
  1108  0093  0094               	movwf	(148)^080h	;volatile
  1109                           	line	75
  1110                           	
  1111  0094                     l3563:	
  1112                           ;PR22.c: 75: SSPCON = 0b00111000;
  1113  0094  3038               	movlw	(038h)
  1114  0095  1283               	bcf	status, 5	;RP0=0, select bank0
  1115  0096  1303               	bcf	status, 6	;RP1=0, select bank0
  1116  0097  0094               	movwf	(20)	;volatile
  1117                           	line	76
  1118                           ;PR22.c: 76: SSPCON2 = 0b00000000;
  1119  0098  1683               	bsf	status, 5	;RP0=1, select bank1
  1120  0099  1303               	bcf	status, 6	;RP1=0, select bank1
  1121  009A  0191               	clrf	(145)^080h	;volatile
  1122                           	line	77
  1123                           	
  1124  009B                     l3565:	
  1125                           ;PR22.c: 77: SSPADD = 0x32;
  1126  009B  3032               	movlw	(032h)
  1127  009C  0093               	movwf	(147)^080h	;volatile
  1128                           	line	78
  1129                           	
  1130  009D                     l3567:	
  1131                           ;PR22.c: 78: SSPIF = 0;
  1132  009D  1283               	bcf	status, 5	;RP0=0, select bank0
  1133  009E  1303               	bcf	status, 6	;RP1=0, select bank0
  1134  009F  118C               	bcf	(99/8),(99)&7
  1135                           	line	81
  1136                           	
  1137  00A0                     l3569:	
  1138                           ;PR22.c: 81: RC6 = 1;
  1139  00A0  1707               	bsf	(62/8),(62)&7
  1140                           	line	82
  1141                           	
  1142  00A1                     l3571:	
  1143                           ;PR22.c: 82: RC7 = 1;
  1144  00A1  1787               	bsf	(63/8),(63)&7
  1145                           	line	83
  1146                           	
  1147  00A2                     l3573:	
  1148                           ;PR22.c: 83: RA3 = 1;
  1149  00A2  1585               	bsf	(43/8),(43)&7
  1150                           	line	86
  1151                           	
  1152  00A3                     l3575:	
  1153                           ;PR22.c: 86: ADCON1 = 0b00000110;
  1154  00A3  3006               	movlw	(06h)
  1155  00A4  1683               	bsf	status, 5	;RP0=1, select bank1
  1156  00A5  1303               	bcf	status, 6	;RP1=0, select bank1
  1157  00A6  009F               	movwf	(159)^080h	;volatile
  1158                           	line	89
  1159                           	
  1160  00A7                     l3577:	
  1161                           ;PR22.c: 89: send_config(0b00000001);
  1162  00A7  3001               	movlw	(01h)
  1163  00A8  120A  158A  2181   	fcall	_send_config
              120A  118A         
  1164                           	line	90
  1165                           	
  1166  00AD                     l3579:	
  1167                           ;PR22.c: 90: send_config(0b00000010);
  1168  00AD  3002               	movlw	(02h)
  1169  00AE  120A  158A  2181   	fcall	_send_config
              120A  118A         
  1170                           	line	91
  1171                           	
  1172  00B3                     l3581:	
  1173                           ;PR22.c: 91: send_config(0b00000110);
  1174  00B3  3006               	movlw	(06h)
  1175  00B4  120A  158A  2181   	fcall	_send_config
              120A  118A         
  1176                           	line	92
  1177                           	
  1178  00B9                     l3583:	
  1179                           ;PR22.c: 92: send_config(0b00001100);
  1180  00B9  300C               	movlw	(0Ch)
  1181  00BA  120A  158A  2181   	fcall	_send_config
              120A  118A         
  1182                           	line	93
  1183                           	
  1184  00BF                     l3585:	
  1185                           ;PR22.c: 93: send_config(0b00111000);
  1186  00BF  3038               	movlw	(038h)
  1187  00C0  120A  158A  2181   	fcall	_send_config
              120A  118A         
  1188                           	line	96
  1189                           	
  1190  00C5                     l3587:	
  1191                           ;PR22.c: 96: CCP1CON = 0b00001100;
  1192  00C5  300C               	movlw	(0Ch)
  1193  00C6  1283               	bcf	status, 5	;RP0=0, select bank0
  1194  00C7  1303               	bcf	status, 6	;RP1=0, select bank0
  1195  00C8  0097               	movwf	(23)	;volatile
  1196                           	line	97
  1197                           	
  1198  00C9                     l3589:	
  1199                           ;PR22.c: 97: CCP2CON = 0b00001100;
  1200  00C9  300C               	movlw	(0Ch)
  1201  00CA  009D               	movwf	(29)	;volatile
  1202                           	line	98
  1203                           	
  1204  00CB                     l3591:	
  1205                           ;PR22.c: 98: PR2 = 0xFF;
  1206  00CB  30FF               	movlw	(0FFh)
  1207  00CC  1683               	bsf	status, 5	;RP0=1, select bank1
  1208  00CD  1303               	bcf	status, 6	;RP1=0, select bank1
  1209  00CE  0092               	movwf	(146)^080h	;volatile
  1210                           	line	99
  1211                           	
  1212  00CF                     l3593:	
  1213                           ;PR22.c: 99: T2CON = 0b00000101;
  1214  00CF  3005               	movlw	(05h)
  1215  00D0  1283               	bcf	status, 5	;RP0=0, select bank0
  1216  00D1  1303               	bcf	status, 6	;RP1=0, select bank0
  1217  00D2  0092               	movwf	(18)	;volatile
  1218                           	line	100
  1219                           	
  1220  00D3                     l3595:	
  1221                           ;PR22.c: 100: CCPR2L = 50;
  1222  00D3  3032               	movlw	(032h)
  1223  00D4  009B               	movwf	(27)	;volatile
  1224                           	line	101
  1225                           	
  1226  00D5                     l3597:	
  1227                           ;PR22.c: 101: CCPR1L = 0;
  1228  00D5  0195               	clrf	(21)	;volatile
  1229                           	line	104
  1230                           	
  1231  00D6                     l3599:	
  1232                           ;PR22.c: 104: lcd_clr();
  1233  00D6  120A  158A  2150   	fcall	_lcd_clr
              120A  118A         
  1234                           	line	105
  1235                           	
  1236  00DB                     l3601:	
  1237                           ;PR22.c: 105: lcd_goto(0);
  1238  00DB  3000               	movlw	(0)
  1239  00DC  120A  158A  2164   	fcall	_lcd_goto
              120A  118A         
  1240                           	line	106
  1241                           	
  1242  00E1                     l3603:	
  1243                           ;PR22.c: 106: send_string("Cytron Tech.");
  1244  00E1  3072               	movlw	((STR_1-__stringbase))&0ffh
  1245  00E2  120A  158A  21CB   	fcall	_send_string
              120A  118A         
  1246                           	line	107
  1247                           	
  1248  00E7                     l3605:	
  1249                           ;PR22.c: 107: lcd_goto(20);
  1250  00E7  3014               	movlw	(014h)
  1251  00E8  120A  158A  2164   	fcall	_lcd_goto
              120A  118A         
  1252                           	line	108
  1253                           	
  1254  00ED                     l3607:	
  1255                           ;PR22.c: 108: send_string("PR22");
  1256  00ED  30C9               	movlw	((STR_2-__stringbase))&0ffh
  1257  00EE  120A  158A  21CB   	fcall	_send_string
              120A  118A         
  1258                           	line	110
  1259                           	
  1260  00F3                     l3609:	
  1261                           ;PR22.c: 110: delay(200000);
  1262  00F3  3000               	movlw	0
  1263  00F4  00F3               	movwf	(?_delay+3)
  1264  00F5  3003               	movlw	03h
  1265  00F6  00F2               	movwf	(?_delay+2)
  1266  00F7  300D               	movlw	0Dh
  1267  00F8  00F1               	movwf	(?_delay+1)
  1268  00F9  3040               	movlw	040h
  1269  00FA  00F0               	movwf	(?_delay)
  1270                           
  1271  00FB  120A  158A  21F1   	fcall	_delay
              120A  118A         
  1272                           	line	112
  1273                           	
  1274  0100                     l3611:	
  1275                           ;PR22.c: 112: mode = 1;
  1276  0100  1283               	bcf	status, 5	;RP0=0, select bank0
  1277  0101  1303               	bcf	status, 6	;RP1=0, select bank0
  1278  0102  01C5               	clrf	(_mode)
  1279  0103  1403               	bsf	status,0
  1280  0104  0DC5               	rlf	(_mode),f
  1281  0105  2906               	goto	l3613
  1282                           	line	114
  1283                           ;PR22.c: 114: while(1)
  1284                           	
  1285  0106                     l527:	
  1286                           	line	116
  1287                           	
  1288  0106                     l3613:	
  1289                           ;PR22.c: 115: {
  1290                           ;PR22.c: 116: lcd_clr();
  1291  0106  120A  158A  2150   	fcall	_lcd_clr
              120A  118A         
  1292                           	line	117
  1293                           	
  1294  010B                     l3615:	
  1295                           ;PR22.c: 117: lcd_goto(0);
  1296  010B  3000               	movlw	(0)
  1297  010C  120A  158A  2164   	fcall	_lcd_goto
              120A  118A         
  1298                           	line	118
  1299                           	
  1300  0111                     l3617:	
  1301                           ;PR22.c: 118: send_string("Sensor:");
  1302  0111  30AA               	movlw	((STR_3-__stringbase))&0ffh
  1303  0112  120A  158A  21CB   	fcall	_send_string
              120A  118A         
  1304                           	line	119
  1305                           	
  1306  0117                     l3619:	
  1307                           ;PR22.c: 119: lcd_goto(20);
  1308  0117  3014               	movlw	(014h)
  1309  0118  120A  158A  2164   	fcall	_lcd_goto
              120A  118A         
  1310                           	line	120
  1311                           	
  1312  011D                     l3621:	
  1313                           ;PR22.c: 120: send_string("OK");
  1314  011D  30DC               	movlw	((STR_4-__stringbase))&0ffh
  1315  011E  120A  158A  21CB   	fcall	_send_string
              120A  118A         
  1316                           	line	122
  1317                           ;PR22.c: 122: while(RA2)
  1318  0123  297B               	goto	l3645
  1319                           	
  1320  0124                     l529:	
  1321                           	line	124
  1322                           ;PR22.c: 123: {
  1323                           ;PR22.c: 124: if(!RA0)
  1324  0124  1805               	btfsc	(40/8),(40)&7
  1325  0125  2927               	goto	u3991
  1326  0126  2928               	goto	u3990
  1327  0127                     u3991:
  1328  0127  2932               	goto	l530
  1329  0128                     u3990:
  1330                           	line	127
  1331                           	
  1332  0128                     l3623:	
  1333                           ;PR22.c: 125: {
  1334                           ;PR22.c: 127: if(mode > 1)
  1335  0128  3002               	movlw	(02h)
  1336  0129  0245               	subwf	(_mode),w
  1337  012A  1C03               	skipc
  1338  012B  292D               	goto	u4001
  1339  012C  292E               	goto	u4000
  1340  012D                     u4001:
  1341  012D  2943               	goto	l3631
  1342  012E                     u4000:
  1343                           	line	128
  1344                           	
  1345  012E                     l3625:	
  1346                           ;PR22.c: 128: mode--;
  1347  012E  3001               	movlw	low(01h)
  1348  012F  02C5               	subwf	(_mode),f
  1349  0130  2943               	goto	l3631
  1350                           	
  1351  0131                     l531:	
  1352                           	line	129
  1353                           ;PR22.c: 129: }
  1354  0131  2943               	goto	l3631
  1355                           	line	130
  1356                           	
  1357  0132                     l530:	
  1358                           ;PR22.c: 130: else if(!RA1)
  1359  0132  1885               	btfsc	(41/8),(41)&7
  1360  0133  2935               	goto	u4011
  1361  0134  2936               	goto	u4010
  1362  0135                     u4011:
  1363  0135  2943               	goto	l3631
  1364  0136                     u4010:
  1365                           	line	133
  1366                           	
  1367  0136                     l3627:	
  1368                           ;PR22.c: 131: {
  1369                           ;PR22.c: 133: if(mode < 3)
  1370  0136  3003               	movlw	(03h)
  1371  0137  0245               	subwf	(_mode),w
  1372  0138  1803               	skipnc
  1373  0139  293B               	goto	u4021
  1374  013A  293C               	goto	u4020
  1375  013B                     u4021:
  1376  013B  2943               	goto	l3631
  1377  013C                     u4020:
  1378                           	line	134
  1379                           	
  1380  013C                     l3629:	
  1381                           ;PR22.c: 134: mode++;
  1382  013C  3001               	movlw	(01h)
  1383  013D  00B6               	movwf	(??_main+0)+0
  1384  013E  0836               	movf	(??_main+0)+0,w
  1385  013F  07C5               	addwf	(_mode),f
  1386  0140  2943               	goto	l3631
  1387                           	
  1388  0141                     l534:	
  1389  0141  2943               	goto	l3631
  1390                           	line	135
  1391                           	
  1392  0142                     l533:	
  1393  0142  2943               	goto	l3631
  1394                           	line	138
  1395                           	
  1396  0143                     l532:	
  1397                           	
  1398  0143                     l3631:	
  1399                           ;PR22.c: 135: }
  1400                           ;PR22.c: 138: lcd_goto(8);
  1401  0143  3008               	movlw	(08h)
  1402  0144  120A  158A  2164   	fcall	_lcd_goto
              120A  118A         
  1403                           	line	139
  1404                           ;PR22.c: 139: switch(mode)
  1405  0149  2960               	goto	l3641
  1406                           	line	141
  1407                           ;PR22.c: 140: {
  1408                           ;PR22.c: 141: case 1 : send_string("HMC6352");
  1409                           	
  1410  014A                     l536:	
  1411                           	
  1412  014A                     l3633:	
  1413  014A  30A2               	movlw	((STR_5-__stringbase))&0ffh
  1414  014B  120A  158A  21CB   	fcall	_send_string
              120A  118A         
  1415                           	line	142
  1416                           ;PR22.c: 142: break;
  1417  0150  296D               	goto	l3643
  1418                           	line	144
  1419                           ;PR22.c: 144: case 2 : send_string("AD7746 ");
  1420                           	
  1421  0151                     l538:	
  1422                           	
  1423  0151                     l3635:	
  1424  0151  3092               	movlw	((STR_6-__stringbase))&0ffh
  1425  0152  120A  158A  21CB   	fcall	_send_string
              120A  118A         
  1426                           	line	145
  1427                           ;PR22.c: 145: break;
  1428  0157  296D               	goto	l3643
  1429                           	line	147
  1430                           ;PR22.c: 147: case 3 : send_string("SCP1000");
  1431                           	
  1432  0158                     l539:	
  1433                           	
  1434  0158                     l3637:	
  1435  0158  309A               	movlw	((STR_7-__stringbase))&0ffh
  1436  0159  120A  158A  21CB   	fcall	_send_string
              120A  118A         
  1437                           	line	148
  1438                           ;PR22.c: 148: break;
  1439  015E  296D               	goto	l3643
  1440                           	line	149
  1441                           	
  1442  015F                     l3639:	
  1443                           ;PR22.c: 149: }
  1444  015F  296D               	goto	l3643
  1445                           	line	139
  1446                           	
  1447  0160                     l535:	
  1448                           	
  1449  0160                     l3641:	
  1450  0160  1283               	bcf	status, 5	;RP0=0, select bank0
  1451  0161  1303               	bcf	status, 6	;RP1=0, select bank0
  1452  0162  0845               	movf	(_mode),w
  1453                           	; Switch size 1, requested type "space"
  1454                           ; Number of cases is 3, Range of values is 1 to 3
  1455                           ; switch strategies available:
  1456                           ; Name         Bytes Cycles
  1457                           ; simple_byte    10     6 (average)
  1458                           ; direct_byte    31    22 (fixed)
  1459                           ;	Chosen strategy is simple_byte
  1460                           
  1461  0163  3A01               	xorlw	1^0	; case 1
  1462  0164  1903               	skipnz
  1463  0165  294A               	goto	l3633
  1464  0166  3A03               	xorlw	2^1	; case 2
  1465  0167  1903               	skipnz
  1466  0168  2951               	goto	l3635
  1467  0169  3A01               	xorlw	3^2	; case 3
  1468  016A  1903               	skipnz
  1469  016B  2958               	goto	l3637
  1470  016C  296D               	goto	l3643
  1471                           
  1472                           	line	149
  1473                           	
  1474  016D                     l537:	
  1475                           	line	151
  1476                           	
  1477  016D                     l3643:	
  1478                           ;PR22.c: 151: delay(30000);
  1479  016D  3000               	movlw	0
  1480  016E  00F3               	movwf	(?_delay+3)
  1481  016F  3000               	movlw	0
  1482  0170  00F2               	movwf	(?_delay+2)
  1483  0171  3075               	movlw	075h
  1484  0172  00F1               	movwf	(?_delay+1)
  1485  0173  3030               	movlw	030h
  1486  0174  00F0               	movwf	(?_delay)
  1487                           
  1488  0175  120A  158A  21F1   	fcall	_delay
              120A  118A         
  1489  017A  297B               	goto	l3645
  1490                           	line	153
  1491                           	
  1492  017B                     l528:	
  1493                           	line	122
  1494                           	
  1495  017B                     l3645:	
  1496  017B  1283               	bcf	status, 5	;RP0=0, select bank0
  1497  017C  1303               	bcf	status, 6	;RP1=0, select bank0
  1498  017D  1905               	btfsc	(42/8),(42)&7
  1499  017E  2980               	goto	u4031
  1500  017F  2981               	goto	u4030
  1501  0180                     u4031:
  1502  0180  2924               	goto	l529
  1503  0181                     u4030:
  1504  0181  2982               	goto	l3647
  1505                           	
  1506  0182                     l540:	
  1507                           	line	155
  1508                           	
  1509  0182                     l3647:	
  1510                           ;PR22.c: 153: }
  1511                           ;PR22.c: 155: delay(10000);
  1512  0182  3000               	movlw	0
  1513  0183  00F3               	movwf	(?_delay+3)
  1514  0184  3000               	movlw	0
  1515  0185  00F2               	movwf	(?_delay+2)
  1516  0186  3027               	movlw	027h
  1517  0187  00F1               	movwf	(?_delay+1)
  1518  0188  3010               	movlw	010h
  1519  0189  00F0               	movwf	(?_delay)
  1520                           
  1521  018A  120A  158A  21F1   	fcall	_delay
              120A  118A         
  1522                           	line	156
  1523                           ;PR22.c: 156: while(!RA2);
  1524  018F  2990               	goto	l541
  1525                           	
  1526  0190                     l542:	
  1527                           	
  1528  0190                     l541:	
  1529  0190  1283               	bcf	status, 5	;RP0=0, select bank0
  1530  0191  1303               	bcf	status, 6	;RP1=0, select bank0
  1531  0192  1D05               	btfss	(42/8),(42)&7
  1532  0193  2995               	goto	u4041
  1533  0194  2996               	goto	u4040
  1534  0195                     u4041:
  1535  0195  2990               	goto	l541
  1536  0196                     u4040:
  1537  0196  2997               	goto	l3649
  1538                           	
  1539  0197                     l543:	
  1540                           	line	157
  1541                           	
  1542  0197                     l3649:	
  1543                           ;PR22.c: 157: delay(10000);
  1544  0197  3000               	movlw	0
  1545  0198  00F3               	movwf	(?_delay+3)
  1546  0199  3000               	movlw	0
  1547  019A  00F2               	movwf	(?_delay+2)
  1548  019B  3027               	movlw	027h
  1549  019C  00F1               	movwf	(?_delay+1)
  1550  019D  3010               	movlw	010h
  1551  019E  00F0               	movwf	(?_delay)
  1552                           
  1553  019F  120A  158A  21F1   	fcall	_delay
              120A  118A         
  1554                           	line	159
  1555                           ;PR22.c: 159: switch(mode)
  1556  01A4  29B8               	goto	l3659
  1557                           	line	161
  1558                           ;PR22.c: 160: {
  1559                           ;PR22.c: 161: case 1 : mode1();
  1560                           	
  1561  01A5                     l545:	
  1562                           	
  1563  01A5                     l3651:	
  1564  01A5  120A  118A  24C7   	fcall	_mode1
              120A  118A         
  1565                           	line	162
  1566                           ;PR22.c: 162: break;
  1567  01AA  2906               	goto	l3613
  1568                           	line	164
  1569                           ;PR22.c: 164: case 2 : mode2();
  1570                           	
  1571  01AB                     l547:	
  1572                           	
  1573  01AB                     l3653:	
  1574  01AB  120A  118A  21CA   	fcall	_mode2
              120A  118A         
  1575                           	line	165
  1576                           ;PR22.c: 165: break;
  1577  01B0  2906               	goto	l3613
  1578                           	line	167
  1579                           ;PR22.c: 167: case 3 : mode3();
  1580                           	
  1581  01B1                     l548:	
  1582                           	
  1583  01B1                     l3655:	
  1584  01B1  120A  158A  252A   	fcall	_mode3
              120A  118A         
  1585                           	line	168
  1586                           ;PR22.c: 168: break;
  1587  01B6  2906               	goto	l3613
  1588                           	line	169
  1589                           	
  1590  01B7                     l3657:	
  1591                           ;PR22.c: 169: }
  1592  01B7  2906               	goto	l3613
  1593                           	line	159
  1594                           	
  1595  01B8                     l544:	
  1596                           	
  1597  01B8                     l3659:	
  1598  01B8  1283               	bcf	status, 5	;RP0=0, select bank0
  1599  01B9  1303               	bcf	status, 6	;RP1=0, select bank0
  1600  01BA  0845               	movf	(_mode),w
  1601                           	; Switch size 1, requested type "space"
  1602                           ; Number of cases is 3, Range of values is 1 to 3
  1603                           ; switch strategies available:
  1604                           ; Name         Bytes Cycles
  1605                           ; simple_byte    10     6 (average)
  1606                           ; direct_byte    31    22 (fixed)
  1607                           ;	Chosen strategy is simple_byte
  1608                           
  1609  01BB  3A01               	xorlw	1^0	; case 1
  1610  01BC  1903               	skipnz
  1611  01BD  29A5               	goto	l3651
  1612  01BE  3A03               	xorlw	2^1	; case 2
  1613  01BF  1903               	skipnz
  1614  01C0  29AB               	goto	l3653
  1615  01C1  3A01               	xorlw	3^2	; case 3
  1616  01C2  1903               	skipnz
  1617  01C3  29B1               	goto	l3655
  1618  01C4  2906               	goto	l3613
  1619                           
  1620                           	line	169
  1621                           	
  1622  01C5                     l546:	
  1623  01C5  2906               	goto	l3613
  1624                           	line	170
  1625                           	
  1626  01C6                     l549:	
  1627                           	line	114
  1628  01C6  2906               	goto	l3613
  1629                           	
  1630  01C7                     l550:	
  1631                           	line	171
  1632                           	
  1633  01C7                     l551:	
  1634                           	global	start
  1635  01C7  120A  118A  2800   	ljmp	start
  1636                           	opt stack 0
  1637                           GLOBAL	__end_of_main
  1638  01CA                     	__end_of_main:
  1639 ;; =============== function _main ends ============
  1640                           
  1641                           	signat	_main,88
  1642                           	global	_mode3
  1643                           psect	text379,local,class=CODE,delta=2
  1644                           global __ptext379
  1645  0D2A                     __ptext379:
  1646                           
  1647 ;; *************** function _mode3 *****************
  1648 ;; Defined at:
  1649 ;;		line 474 in file "C:\Users\Phang\Desktop\9.80\PR 22\PR22.c"
  1650 ;; Parameters:    Size  Location     Type
  1651 ;;		None
  1652 ;; Auto vars:     Size  Location     Type
  1653 ;;  pressure        4   14[BANK0 ] unsigned long 
  1654 ;;  pressure_raw    4   10[BANK0 ] unsigned long 
  1655 ;;  temperature     2   20[BANK0 ] unsigned int 
  1656 ;;  temp            2   18[BANK0 ] unsigned int 
  1657 ;;  temperature_    2    8[BANK0 ] unsigned int 
  1658 ;; Return value:  Size  Location     Type
  1659 ;;		None               void
  1660 ;; Registers used:
  1661 ;;		wreg, fsr0l, fsr0h, status,2, status,0, btemp+1, pclath, cstack
  1662 ;; Tracked objects:
  1663 ;;		On entry : 0/0
  1664 ;;		On exit  : 0/0
  1665 ;;		Unchanged: 0/0
  1666 ;; Data sizes:     COMMON   BANK0   BANK1   BANK3   BANK2
  1667 ;;      Params:         0       0       0       0       0
  1668 ;;      Locals:         0      14       0       0       0
  1669 ;;      Temps:          0       4       0       0       0
  1670 ;;      Totals:         0      18       0       0       0
  1671 ;;Total ram usage:       18 bytes
  1672 ;; Hardware stack levels used:    1
  1673 ;; Hardware stack levels required when called:    3
  1674 ;; This function calls:
  1675 ;;		_spi_baro
  1676 ;;		_lcd_clr
  1677 ;;		_lcd_goto
  1678 ;;		_send_string
  1679 ;;		___lldiv
  1680 ;;		___lwmod
  1681 ;;		___lwdiv
  1682 ;;		_send_char
  1683 ;;		___llmod
  1684 ;;		_delay
  1685 ;; This function is called by:
  1686 ;;		_main
  1687 ;; This function uses a non-reentrant model
  1688 ;;
  1689                           psect	text379
  1690                           	file	"C:\Users\Phang\Desktop\9.80\PR 22\PR22.c"
  1691                           	line	474
  1692                           	global	__size_of_mode3
  1693  02D6                     	__size_of_mode3	equ	__end_of_mode3-_mode3
  1694                           	
  1695  0D2A                     _mode3:	
  1696                           	opt	stack 4
  1697                           ; Regs used in _mode3: [wreg-fsr0h+status,2+status,0+btemp+1+pclath+cstack]
  1698                           	line	481
  1699                           	
  1700  0D2A                     l3489:	
  1701                           ;PR22.c: 475: unsigned int temp;
  1702                           ;PR22.c: 476: unsigned int temperature;
  1703                           ;PR22.c: 477: unsigned int temperature_raw;
  1704                           ;PR22.c: 478: unsigned long pressure;
  1705                           ;PR22.c: 479: unsigned long pressure_raw;
  1706                           ;PR22.c: 481: spi_baro(0x03, 0x09, 0);
  1707  0D2A  3009               	movlw	(09h)
  1708  0D2B  1283               	bcf	status, 5	;RP0=0, select bank0
  1709  0D2C  1303               	bcf	status, 6	;RP1=0, select bank0
  1710  0D2D  00A4               	movwf	(??_mode3+0)+0
  1711  0D2E  0824               	movf	(??_mode3+0)+0,w
  1712  0D2F  00A0               	movwf	(?_spi_baro)
  1713  0D30  3000               	movlw	low(0)
  1714  0D31  00A1               	movwf	0+(?_spi_baro)+01h
  1715  0D32  3000               	movlw	high(0)
  1716  0D33  00A2               	movwf	(0+(?_spi_baro)+01h)+1
  1717  0D34  3003               	movlw	(03h)
  1718  0D35  120A  158A  22B5   	fcall	_spi_baro
              120A  158A         
  1719                           	line	482
  1720                           ;PR22.c: 482: lcd_clr();
  1721  0D3A  120A  158A  2150   	fcall	_lcd_clr
              120A  158A         
  1722                           	line	483
  1723                           ;PR22.c: 483: lcd_goto(0);
  1724  0D3F  3000               	movlw	(0)
  1725  0D40  120A  158A  2164   	fcall	_lcd_goto
              120A  158A         
  1726                           	line	484
  1727                           	
  1728  0D45                     l3491:	
  1729                           ;PR22.c: 484: send_string("Pre.:");
  1730  0D45  30B2               	movlw	((STR_25-__stringbase))&0ffh
  1731  0D46  120A  158A  21CB   	fcall	_send_string
              120A  158A         
  1732                           	line	485
  1733                           	
  1734  0D4B                     l3493:	
  1735                           ;PR22.c: 485: lcd_goto(20);
  1736  0D4B  3014               	movlw	(014h)
  1737  0D4C  120A  158A  2164   	fcall	_lcd_goto
              120A  158A         
  1738                           	line	486
  1739                           ;PR22.c: 486: send_string("Tem.:");
  1740  0D51  30B8               	movlw	((STR_26-__stringbase))&0ffh
  1741  0D52  120A  158A  21CB   	fcall	_send_string
              120A  158A         
  1742                           	line	488
  1743                           ;PR22.c: 488: while(RA2)
  1744  0D57  2FC7               	goto	l3549
  1745                           	
  1746  0D58                     l617:	
  1747  0D58  2D59               	goto	l3495
  1748                           	line	490
  1749                           ;PR22.c: 489: {
  1750                           ;PR22.c: 490: do
  1751                           	
  1752  0D59                     l618:	
  1753                           	line	491
  1754                           	
  1755  0D59                     l3495:	
  1756                           ;PR22.c: 491: spi_baro(0x07, 0, 1);
  1757  0D59  1003               	clrc
  1758  0D5A  3000               	movlw	0
  1759  0D5B  1803               	btfsc	status,0
  1760  0D5C  3001               	movlw	1
  1761  0D5D  1283               	bcf	status, 5	;RP0=0, select bank0
  1762  0D5E  1303               	bcf	status, 6	;RP1=0, select bank0
  1763  0D5F  00A0               	movwf	(?_spi_baro)
  1764  0D60  3001               	movlw	low(01h)
  1765  0D61  00A1               	movwf	0+(?_spi_baro)+01h
  1766  0D62  3000               	movlw	high(01h)
  1767  0D63  00A2               	movwf	(0+(?_spi_baro)+01h)+1
  1768  0D64  3007               	movlw	(07h)
  1769  0D65  120A  158A  22B5   	fcall	_spi_baro
              120A  158A         
  1770                           	line	492
  1771                           	
  1772  0D6A                     l3497:	
  1773                           ;PR22.c: 492: while(!(0b00100000 & spi_baro_rcvb[0]));
  1774  0D6A  1283               	bcf	status, 5	;RP0=0, select bank0
  1775  0D6B  1303               	bcf	status, 6	;RP1=0, select bank0
  1776  0D6C  1EC6               	btfss	(_spi_baro_rcvb),(5)&7
  1777  0D6D  2D6F               	goto	u3901
  1778  0D6E  2D70               	goto	u3900
  1779  0D6F                     u3901:
  1780  0D6F  2D59               	goto	l3495
  1781  0D70                     u3900:
  1782  0D70  2D71               	goto	l3499
  1783                           	
  1784  0D71                     l619:	
  1785                           	line	495
  1786                           	
  1787  0D71                     l3499:	
  1788                           ;PR22.c: 495: spi_baro(0x1F, 0, 1);
  1789  0D71  1003               	clrc
  1790  0D72  3000               	movlw	0
  1791  0D73  1803               	btfsc	status,0
  1792  0D74  3001               	movlw	1
  1793  0D75  00A0               	movwf	(?_spi_baro)
  1794  0D76  3001               	movlw	low(01h)
  1795  0D77  00A1               	movwf	0+(?_spi_baro)+01h
  1796  0D78  3000               	movlw	high(01h)
  1797  0D79  00A2               	movwf	(0+(?_spi_baro)+01h)+1
  1798  0D7A  301F               	movlw	(01Fh)
  1799  0D7B  120A  158A  22B5   	fcall	_spi_baro
              120A  158A         
  1800                           	line	496
  1801                           	
  1802  0D80                     l3501:	
  1803                           ;PR22.c: 496: pressure_raw = (0b00000111 & spi_baro_rcvb[0]);
  1804  0D80  1283               	bcf	status, 5	;RP0=0, select bank0
  1805  0D81  1303               	bcf	status, 6	;RP1=0, select bank0
  1806  0D82  0846               	movf	(_spi_baro_rcvb),w
  1807  0D83  3907               	andlw	07h
  1808  0D84  00A4               	movwf	(??_mode3+0)+0
  1809  0D85  01A5               	clrf	((??_mode3+0)+0+1)
  1810  0D86  01A6               	clrf	((??_mode3+0)+0+2)
  1811  0D87  01A7               	clrf	((??_mode3+0)+0+3)
  1812  0D88  0827               	movf	3+(??_mode3+0)+0,w
  1813  0D89  00AD               	movwf	(mode3@pressure_raw+3)
  1814  0D8A  0826               	movf	2+(??_mode3+0)+0,w
  1815  0D8B  00AC               	movwf	(mode3@pressure_raw+2)
  1816  0D8C  0825               	movf	1+(??_mode3+0)+0,w
  1817  0D8D  00AB               	movwf	(mode3@pressure_raw+1)
  1818  0D8E  0824               	movf	0+(??_mode3+0)+0,w
  1819  0D8F  00AA               	movwf	(mode3@pressure_raw)
  1820                           
  1821                           	line	497
  1822                           	
  1823  0D90                     l3503:	
  1824                           ;PR22.c: 497: pressure_raw <<= 16;
  1825  0D90  3010               	movlw	010h
  1826  0D91  00A4               	movwf	(??_mode3+0)+0
  1827  0D92                     u3915:
  1828  0D92  1003               	clrc
  1829  0D93  0DAA               	rlf	(mode3@pressure_raw),f
  1830  0D94  0DAB               	rlf	(mode3@pressure_raw+1),f
  1831  0D95  0DAC               	rlf	(mode3@pressure_raw+2),f
  1832  0D96  0DAD               	rlf	(mode3@pressure_raw+3),f
  1833  0D97  0BA4               	decfsz	(??_mode3+0)+0
  1834  0D98  2D92               	goto	u3915
  1835                           	line	498
  1836                           	
  1837  0D99                     l3505:	
  1838                           ;PR22.c: 498: spi_baro(0x20, 0, 1);
  1839  0D99  1003               	clrc
  1840  0D9A  3000               	movlw	0
  1841  0D9B  1803               	btfsc	status,0
  1842  0D9C  3001               	movlw	1
  1843  0D9D  00A0               	movwf	(?_spi_baro)
  1844  0D9E  3001               	movlw	low(01h)
  1845  0D9F  00A1               	movwf	0+(?_spi_baro)+01h
  1846  0DA0  3000               	movlw	high(01h)
  1847  0DA1  00A2               	movwf	(0+(?_spi_baro)+01h)+1
  1848  0DA2  3020               	movlw	(020h)
  1849  0DA3  120A  158A  22B5   	fcall	_spi_baro
              120A  158A         
  1850                           	line	499
  1851                           	
  1852  0DA8                     l3507:	
  1853                           ;PR22.c: 499: pressure_raw += ((spi_baro_rcvb[0] << 8) + spi_baro_rcvb[1]);
  1854  0DA8  1283               	bcf	status, 5	;RP0=0, select bank0
  1855  0DA9  1303               	bcf	status, 6	;RP1=0, select bank0
  1856  0DAA  0847               	movf	0+(_spi_baro_rcvb)+01h,w
  1857  0DAB  00A4               	movwf	((??_mode3+0)+0)
  1858  0DAC  0846               	movf	(_spi_baro_rcvb),w
  1859  0DAD  00A5               	movwf	((??_mode3+0)+0+1)
  1860  0DAE  3000               	movlw	0
  1861  0DAF  1BA5               	btfsc	((??_mode3+0)+0+1),7
  1862  0DB0  30FF               	movlw	255
  1863  0DB1  00A6               	movwf	((??_mode3+0)+0+2)
  1864  0DB2  00A7               	movwf	((??_mode3+0)+0+3)
  1865  0DB3  0824               	movf	0+(??_mode3+0)+0,w
  1866  0DB4  07AA               	addwf	(mode3@pressure_raw),f
  1867  0DB5  0825               	movf	1+(??_mode3+0)+0,w
  1868  0DB6  1103               	clrz
  1869  0DB7  1803               	skipnc
  1870  0DB8  3E01               	addlw	1
  1871  0DB9  1903               	skipnz
  1872  0DBA  2DBC               	goto	u3921
  1873  0DBB  07AB               	addwf	(mode3@pressure_raw+1),f
  1874  0DBC                     u3921:
  1875  0DBC  0826               	movf	2+(??_mode3+0)+0,w
  1876  0DBD  1103               	clrz
  1877  0DBE  1803               	skipnc
  1878  0DBF  3E01               	addlw	1
  1879  0DC0  1903               	skipnz
  1880  0DC1  2DC3               	goto	u3922
  1881  0DC2  07AC               	addwf	(mode3@pressure_raw+2),f
  1882  0DC3                     u3922:
  1883  0DC3  0827               	movf	3+(??_mode3+0)+0,w
  1884  0DC4  1103               	clrz
  1885  0DC5  1803               	skipnc
  1886  0DC6  3E01               	addlw	1
  1887  0DC7  1903               	skipnz
  1888  0DC8  2DCA               	goto	u3923
  1889  0DC9  07AD               	addwf	(mode3@pressure_raw+3),f
  1890  0DCA                     u3923:
  1891                           
  1892                           	line	502
  1893                           	
  1894  0DCA                     l3509:	
  1895                           ;PR22.c: 502: spi_baro(0x21, 0, 1);
  1896  0DCA  1003               	clrc
  1897  0DCB  3000               	movlw	0
  1898  0DCC  1803               	btfsc	status,0
  1899  0DCD  3001               	movlw	1
  1900  0DCE  00A0               	movwf	(?_spi_baro)
  1901  0DCF  3001               	movlw	low(01h)
  1902  0DD0  00A1               	movwf	0+(?_spi_baro)+01h
  1903  0DD1  3000               	movlw	high(01h)
  1904  0DD2  00A2               	movwf	(0+(?_spi_baro)+01h)+1
  1905  0DD3  3021               	movlw	(021h)
  1906  0DD4  120A  158A  22B5   	fcall	_spi_baro
              120A  158A         
  1907                           	line	503
  1908                           	
  1909  0DD9                     l3511:	
  1910                           ;PR22.c: 503: temperature_raw = (spi_baro_rcvb[0] << 8) + spi_baro_rcvb[1];
  1911  0DD9  1283               	bcf	status, 5	;RP0=0, select bank0
  1912  0DDA  1303               	bcf	status, 6	;RP1=0, select bank0
  1913  0DDB  0846               	movf	(_spi_baro_rcvb),w
  1914  0DDC  00A4               	movwf	(??_mode3+0)+0
  1915  0DDD  01A5               	clrf	(??_mode3+0)+0+1
  1916  0DDE  3008               	movlw	08h
  1917  0DDF  00FF               	movwf	btemp+1
  1918  0DE0                     u3935:
  1919  0DE0  1003               	clrc
  1920  0DE1  0DA4               	rlf	(??_mode3+0)+0,f
  1921  0DE2  0DA5               	rlf	(??_mode3+0)+1,f
  1922  0DE3  0BFF               	decfsz	btemp+1,f
  1923  0DE4  2DE0               	goto	u3935
  1924  0DE5  0847               	movf	0+(_spi_baro_rcvb)+01h,w
  1925  0DE6  0724               	addwf	0+(??_mode3+0)+0,w
  1926  0DE7  00A8               	movwf	(mode3@temperature_raw)
  1927  0DE8  3000               	movlw	0
  1928  0DE9  1803               	skipnc
  1929  0DEA  3001               	movlw	1
  1930  0DEB  0725               	addwf	1+(??_mode3+0)+0,w
  1931  0DEC  00A9               	movwf	1+(mode3@temperature_raw)
  1932                           	line	506
  1933                           	
  1934  0DED                     l3513:	
  1935                           ;PR22.c: 506: lcd_goto(6);
  1936  0DED  3006               	movlw	(06h)
  1937  0DEE  120A  158A  2164   	fcall	_lcd_goto
              120A  158A         
  1938                           	line	507
  1939                           	
  1940  0DF3                     l3515:	
  1941                           ;PR22.c: 507: pressure = pressure_raw >> 2;
  1942  0DF3  1283               	bcf	status, 5	;RP0=0, select bank0
  1943  0DF4  1303               	bcf	status, 6	;RP1=0, select bank0
  1944  0DF5  082A               	movf	(mode3@pressure_raw),w
  1945  0DF6  00A4               	movwf	(??_mode3+0)+0
  1946  0DF7  082B               	movf	(mode3@pressure_raw+1),w
  1947  0DF8  00A5               	movwf	((??_mode3+0)+0+1)
  1948  0DF9  082C               	movf	(mode3@pressure_raw+2),w
  1949  0DFA  00A6               	movwf	((??_mode3+0)+0+2)
  1950  0DFB  082D               	movf	(mode3@pressure_raw+3),w
  1951  0DFC  00A7               	movwf	((??_mode3+0)+0+3)
  1952  0DFD  3002               	movlw	02h
  1953  0DFE                     u3945:
  1954  0DFE  1003               	clrc
  1955  0DFF  0CA7               	rrf	(??_mode3+0)+3,f
  1956  0E00  0CA6               	rrf	(??_mode3+0)+2,f
  1957  0E01  0CA5               	rrf	(??_mode3+0)+1,f
  1958  0E02  0CA4               	rrf	(??_mode3+0)+0,f
  1959  0E03                     u3940:
  1960  0E03  3EFF               	addlw	-1
  1961  0E04  1D03               	skipz
  1962  0E05  2DFE               	goto	u3945
  1963  0E06  0827               	movf	3+(??_mode3+0)+0,w
  1964  0E07  00B1               	movwf	(mode3@pressure+3)
  1965  0E08  0826               	movf	2+(??_mode3+0)+0,w
  1966  0E09  00B0               	movwf	(mode3@pressure+2)
  1967  0E0A  0825               	movf	1+(??_mode3+0)+0,w
  1968  0E0B  00AF               	movwf	(mode3@pressure+1)
  1969  0E0C  0824               	movf	0+(??_mode3+0)+0,w
  1970  0E0D  00AE               	movwf	(mode3@pressure)
  1971                           
  1972                           	line	508
  1973                           	
  1974  0E0E                     l3517:	
  1975                           ;PR22.c: 508: temp = pressure / 1000;
  1976  0E0E  3000               	movlw	0
  1977  0E0F  00F3               	movwf	(?___lldiv+3)
  1978  0E10  3000               	movlw	0
  1979  0E11  00F2               	movwf	(?___lldiv+2)
  1980  0E12  3003               	movlw	03h
  1981  0E13  00F1               	movwf	(?___lldiv+1)
  1982  0E14  30E8               	movlw	0E8h
  1983  0E15  00F0               	movwf	(?___lldiv)
  1984                           
  1985  0E16  0831               	movf	(mode3@pressure+3),w
  1986  0E17  00F7               	movwf	3+(?___lldiv)+04h
  1987  0E18  0830               	movf	(mode3@pressure+2),w
  1988  0E19  00F6               	movwf	2+(?___lldiv)+04h
  1989  0E1A  082F               	movf	(mode3@pressure+1),w
  1990  0E1B  00F5               	movwf	1+(?___lldiv)+04h
  1991  0E1C  082E               	movf	(mode3@pressure),w
  1992  0E1D  00F4               	movwf	0+(?___lldiv)+04h
  1993                           
  1994  0E1E  120A  158A  2426   	fcall	___lldiv
              120A  158A         
  1995  0E23  0871               	movf	1+(((0+(?___lldiv)))),w
  1996  0E24  1283               	bcf	status, 5	;RP0=0, select bank0
  1997  0E25  1303               	bcf	status, 6	;RP1=0, select bank0
  1998  0E26  01B3               	clrf	(mode3@temp+1)
  1999  0E27  07B3               	addwf	(mode3@temp+1)
  2000  0E28  0870               	movf	0+(((0+(?___lldiv)))),w
  2001  0E29  01B2               	clrf	(mode3@temp)
  2002  0E2A  07B2               	addwf	(mode3@temp)
  2003                           
  2004                           	line	509
  2005                           	
  2006  0E2B                     l3519:	
  2007                           ;PR22.c: 509: send_char('0' + (temp % 1000) / 100);
  2008  0E2B  3064               	movlw	low(064h)
  2009  0E2C  00F6               	movwf	(?___lwdiv)
  2010  0E2D  3000               	movlw	high(064h)
  2011  0E2E  00F7               	movwf	((?___lwdiv))+1
  2012  0E2F  0833               	movf	(mode3@temp+1),w
  2013  0E30  01F3               	clrf	1+(?___lwmod)+02h
  2014  0E31  07F3               	addwf	1+(?___lwmod)+02h
  2015  0E32  0832               	movf	(mode3@temp),w
  2016  0E33  01F2               	clrf	0+(?___lwmod)+02h
  2017  0E34  07F2               	addwf	0+(?___lwmod)+02h
  2018                           
  2019  0E35  30E8               	movlw	low(03E8h)
  2020  0E36  00F0               	movwf	(?___lwmod)
  2021  0E37  3003               	movlw	high(03E8h)
  2022  0E38  00F1               	movwf	((?___lwmod))+1
  2023  0E39  120A  158A  2221   	fcall	___lwmod
              120A  158A         
  2024  0E3E  0871               	movf	(1+(?___lwmod)),w
  2025  0E3F  01F9               	clrf	1+(?___lwdiv)+02h
  2026  0E40  07F9               	addwf	1+(?___lwdiv)+02h
  2027  0E41  0870               	movf	(0+(?___lwmod)),w
  2028  0E42  01F8               	clrf	0+(?___lwdiv)+02h
  2029  0E43  07F8               	addwf	0+(?___lwdiv)+02h
  2030                           
  2031  0E44  120A  158A  2265   	fcall	___lwdiv
              120A  158A         
  2032  0E49  0876               	movf	(0+(?___lwdiv)),w
  2033  0E4A  3E30               	addlw	030h
  2034  0E4B  120A  158A  21A6   	fcall	_send_char
              120A  158A         
  2035                           	line	510
  2036                           	
  2037  0E50                     l3521:	
  2038                           ;PR22.c: 510: send_char('0' + (temp % 100) / 10);
  2039  0E50  300A               	movlw	low(0Ah)
  2040  0E51  00F6               	movwf	(?___lwdiv)
  2041  0E52  3000               	movlw	high(0Ah)
  2042  0E53  00F7               	movwf	((?___lwdiv))+1
  2043  0E54  1283               	bcf	status, 5	;RP0=0, select bank0
  2044  0E55  1303               	bcf	status, 6	;RP1=0, select bank0
  2045  0E56  0833               	movf	(mode3@temp+1),w
  2046  0E57  01F3               	clrf	1+(?___lwmod)+02h
  2047  0E58  07F3               	addwf	1+(?___lwmod)+02h
  2048  0E59  0832               	movf	(mode3@temp),w
  2049  0E5A  01F2               	clrf	0+(?___lwmod)+02h
  2050  0E5B  07F2               	addwf	0+(?___lwmod)+02h
  2051                           
  2052  0E5C  3064               	movlw	low(064h)
  2053  0E5D  00F0               	movwf	(?___lwmod)
  2054  0E5E  3000               	movlw	high(064h)
  2055  0E5F  00F1               	movwf	((?___lwmod))+1
  2056  0E60  120A  158A  2221   	fcall	___lwmod
              120A  158A         
  2057  0E65  0871               	movf	(1+(?___lwmod)),w
  2058  0E66  01F9               	clrf	1+(?___lwdiv)+02h
  2059  0E67  07F9               	addwf	1+(?___lwdiv)+02h
  2060  0E68  0870               	movf	(0+(?___lwmod)),w
  2061  0E69  01F8               	clrf	0+(?___lwdiv)+02h
  2062  0E6A  07F8               	addwf	0+(?___lwdiv)+02h
  2063                           
  2064  0E6B  120A  158A  2265   	fcall	___lwdiv
              120A  158A         
  2065  0E70  0876               	movf	(0+(?___lwdiv)),w
  2066  0E71  3E30               	addlw	030h
  2067  0E72  120A  158A  21A6   	fcall	_send_char
              120A  158A         
  2068                           	line	511
  2069                           	
  2070  0E77                     l3523:	
  2071                           ;PR22.c: 511: send_char('0' + (temp % 10));
  2072  0E77  300A               	movlw	low(0Ah)
  2073  0E78  00F0               	movwf	(?___lwmod)
  2074  0E79  3000               	movlw	high(0Ah)
  2075  0E7A  00F1               	movwf	((?___lwmod))+1
  2076  0E7B  1283               	bcf	status, 5	;RP0=0, select bank0
  2077  0E7C  1303               	bcf	status, 6	;RP1=0, select bank0
  2078  0E7D  0833               	movf	(mode3@temp+1),w
  2079  0E7E  01F3               	clrf	1+(?___lwmod)+02h
  2080  0E7F  07F3               	addwf	1+(?___lwmod)+02h
  2081  0E80  0832               	movf	(mode3@temp),w
  2082  0E81  01F2               	clrf	0+(?___lwmod)+02h
  2083  0E82  07F2               	addwf	0+(?___lwmod)+02h
  2084                           
  2085  0E83  120A  158A  2221   	fcall	___lwmod
              120A  158A         
  2086  0E88  0870               	movf	(0+(?___lwmod)),w
  2087  0E89  3E30               	addlw	030h
  2088  0E8A  120A  158A  21A6   	fcall	_send_char
              120A  158A         
  2089                           	line	512
  2090                           	
  2091  0E8F                     l3525:	
  2092                           ;PR22.c: 512: send_char('.');
  2093  0E8F  302E               	movlw	(02Eh)
  2094  0E90  120A  158A  21A6   	fcall	_send_char
              120A  158A         
  2095                           	line	513
  2096                           	
  2097  0E95                     l3527:	
  2098                           ;PR22.c: 513: temp = pressure % 1000;
  2099  0E95  3000               	movlw	0
  2100  0E96  00F3               	movwf	(?___llmod+3)
  2101  0E97  3000               	movlw	0
  2102  0E98  00F2               	movwf	(?___llmod+2)
  2103  0E99  3003               	movlw	03h
  2104  0E9A  00F1               	movwf	(?___llmod+1)
  2105  0E9B  30E8               	movlw	0E8h
  2106  0E9C  00F0               	movwf	(?___llmod)
  2107                           
  2108  0E9D  1283               	bcf	status, 5	;RP0=0, select bank0
  2109  0E9E  1303               	bcf	status, 6	;RP1=0, select bank0
  2110  0E9F  0831               	movf	(mode3@pressure+3),w
  2111  0EA0  00F7               	movwf	3+(?___llmod)+04h
  2112  0EA1  0830               	movf	(mode3@pressure+2),w
  2113  0EA2  00F6               	movwf	2+(?___llmod)+04h
  2114  0EA3  082F               	movf	(mode3@pressure+1),w
  2115  0EA4  00F5               	movwf	1+(?___llmod)+04h
  2116  0EA5  082E               	movf	(mode3@pressure),w
  2117  0EA6  00F4               	movwf	0+(?___llmod)+04h
  2118                           
  2119  0EA7  120A  158A  2360   	fcall	___llmod
              120A  158A         
  2120  0EAC  0871               	movf	1+(((0+(?___llmod)))),w
  2121  0EAD  1283               	bcf	status, 5	;RP0=0, select bank0
  2122  0EAE  1303               	bcf	status, 6	;RP1=0, select bank0
  2123  0EAF  01B3               	clrf	(mode3@temp+1)
  2124  0EB0  07B3               	addwf	(mode3@temp+1)
  2125  0EB1  0870               	movf	0+(((0+(?___llmod)))),w
  2126  0EB2  01B2               	clrf	(mode3@temp)
  2127  0EB3  07B2               	addwf	(mode3@temp)
  2128                           
  2129                           	line	514
  2130                           	
  2131  0EB4                     l3529:	
  2132                           ;PR22.c: 514: send_char('0' + temp / 100);
  2133  0EB4  3064               	movlw	low(064h)
  2134  0EB5  00F6               	movwf	(?___lwdiv)
  2135  0EB6  3000               	movlw	high(064h)
  2136  0EB7  00F7               	movwf	((?___lwdiv))+1
  2137  0EB8  0833               	movf	(mode3@temp+1),w
  2138  0EB9  01F9               	clrf	1+(?___lwdiv)+02h
  2139  0EBA  07F9               	addwf	1+(?___lwdiv)+02h
  2140  0EBB  0832               	movf	(mode3@temp),w
  2141  0EBC  01F8               	clrf	0+(?___lwdiv)+02h
  2142  0EBD  07F8               	addwf	0+(?___lwdiv)+02h
  2143                           
  2144  0EBE  120A  158A  2265   	fcall	___lwdiv
              120A  158A         
  2145  0EC3  0876               	movf	(0+(?___lwdiv)),w
  2146  0EC4  3E30               	addlw	030h
  2147  0EC5  120A  158A  21A6   	fcall	_send_char
              120A  158A         
  2148                           	line	515
  2149                           	
  2150  0ECA                     l3531:	
  2151                           ;PR22.c: 515: send_char('0' + (temp % 100) / 10);
  2152  0ECA  300A               	movlw	low(0Ah)
  2153  0ECB  00F6               	movwf	(?___lwdiv)
  2154  0ECC  3000               	movlw	high(0Ah)
  2155  0ECD  00F7               	movwf	((?___lwdiv))+1
  2156  0ECE  1283               	bcf	status, 5	;RP0=0, select bank0
  2157  0ECF  1303               	bcf	status, 6	;RP1=0, select bank0
  2158  0ED0  0833               	movf	(mode3@temp+1),w
  2159  0ED1  01F3               	clrf	1+(?___lwmod)+02h
  2160  0ED2  07F3               	addwf	1+(?___lwmod)+02h
  2161  0ED3  0832               	movf	(mode3@temp),w
  2162  0ED4  01F2               	clrf	0+(?___lwmod)+02h
  2163  0ED5  07F2               	addwf	0+(?___lwmod)+02h
  2164                           
  2165  0ED6  3064               	movlw	low(064h)
  2166  0ED7  00F0               	movwf	(?___lwmod)
  2167  0ED8  3000               	movlw	high(064h)
  2168  0ED9  00F1               	movwf	((?___lwmod))+1
  2169  0EDA  120A  158A  2221   	fcall	___lwmod
              120A  158A         
  2170  0EDF  0871               	movf	(1+(?___lwmod)),w
  2171  0EE0  01F9               	clrf	1+(?___lwdiv)+02h
  2172  0EE1  07F9               	addwf	1+(?___lwdiv)+02h
  2173  0EE2  0870               	movf	(0+(?___lwmod)),w
  2174  0EE3  01F8               	clrf	0+(?___lwdiv)+02h
  2175  0EE4  07F8               	addwf	0+(?___lwdiv)+02h
  2176                           
  2177  0EE5  120A  158A  2265   	fcall	___lwdiv
              120A  158A         
  2178  0EEA  0876               	movf	(0+(?___lwdiv)),w
  2179  0EEB  3E30               	addlw	030h
  2180  0EEC  120A  158A  21A6   	fcall	_send_char
              120A  158A         
  2181                           	line	516
  2182                           	
  2183  0EF1                     l3533:	
  2184                           ;PR22.c: 516: send_char('0' + (temp % 10));
  2185  0EF1  300A               	movlw	low(0Ah)
  2186  0EF2  00F0               	movwf	(?___lwmod)
  2187  0EF3  3000               	movlw	high(0Ah)
  2188  0EF4  00F1               	movwf	((?___lwmod))+1
  2189  0EF5  1283               	bcf	status, 5	;RP0=0, select bank0
  2190  0EF6  1303               	bcf	status, 6	;RP1=0, select bank0
  2191  0EF7  0833               	movf	(mode3@temp+1),w
  2192  0EF8  01F3               	clrf	1+(?___lwmod)+02h
  2193  0EF9  07F3               	addwf	1+(?___lwmod)+02h
  2194  0EFA  0832               	movf	(mode3@temp),w
  2195  0EFB  01F2               	clrf	0+(?___lwmod)+02h
  2196  0EFC  07F2               	addwf	0+(?___lwmod)+02h
  2197                           
  2198  0EFD  120A  158A  2221   	fcall	___lwmod
              120A  158A         
  2199  0F02  0870               	movf	(0+(?___lwmod)),w
  2200  0F03  3E30               	addlw	030h
  2201  0F04  120A  158A  21A6   	fcall	_send_char
              120A  158A         
  2202                           	line	517
  2203                           	
  2204  0F09                     l3535:	
  2205                           ;PR22.c: 517: send_string("kPa");
  2206  0F09  30D8               	movlw	((STR_27-__stringbase))&0ffh
  2207  0F0A  120A  158A  21CB   	fcall	_send_string
              120A  158A         
  2208                           	line	520
  2209                           	
  2210  0F0F                     l3537:	
  2211                           ;PR22.c: 520: lcd_goto(26);
  2212  0F0F  301A               	movlw	(01Ah)
  2213  0F10  120A  158A  2164   	fcall	_lcd_goto
              120A  158A         
  2214                           	line	521
  2215                           	
  2216  0F15                     l3539:	
  2217                           ;PR22.c: 521: temperature = temperature_raw >> 1;
  2218  0F15  1283               	bcf	status, 5	;RP0=0, select bank0
  2219  0F16  1303               	bcf	status, 6	;RP1=0, select bank0
  2220  0F17  0829               	movf	(mode3@temperature_raw+1),w
  2221  0F18  00A5               	movwf	(??_mode3+0)+0+1
  2222  0F19  0828               	movf	(mode3@temperature_raw),w
  2223  0F1A  00A4               	movwf	(??_mode3+0)+0
  2224  0F1B  3001               	movlw	01h
  2225  0F1C                     u3955:
  2226  0F1C  1003               	clrc
  2227  0F1D  0CA5               	rrf	(??_mode3+0)+1,f
  2228  0F1E  0CA4               	rrf	(??_mode3+0)+0,f
  2229  0F1F  3EFF               	addlw	-1
  2230  0F20  1D03               	skipz
  2231  0F21  2F1C               	goto	u3955
  2232  0F22  0824               	movf	0+(??_mode3+0)+0,w
  2233  0F23  00B4               	movwf	(mode3@temperature)
  2234  0F24  0825               	movf	1+(??_mode3+0)+0,w
  2235  0F25  00B5               	movwf	(mode3@temperature+1)
  2236                           	line	523
  2237                           	
  2238  0F26                     l3541:	
  2239                           ;PR22.c: 523: if(temperature & 0x1000)
  2240  0F26  1E35               	btfss	(mode3@temperature+1),(12)&7
  2241  0F27  2F29               	goto	u3961
  2242  0F28  2F2A               	goto	u3960
  2243  0F29                     u3961:
  2244  0F29  2F36               	goto	l3547
  2245  0F2A                     u3960:
  2246                           	line	525
  2247                           	
  2248  0F2A                     l3543:	
  2249                           ;PR22.c: 524: {
  2250                           ;PR22.c: 525: temperature = (~temperature) + 1;
  2251  0F2A  09B4               	comf	(mode3@temperature),f
  2252  0F2B  09B5               	comf	(mode3@temperature+1),f
  2253  0F2C  0AB4               	incf	(mode3@temperature),f
  2254  0F2D  1903               	skipnz
  2255  0F2E  0AB5               	incf	(mode3@temperature+1),f
  2256                           	line	526
  2257                           	
  2258  0F2F                     l3545:	
  2259                           ;PR22.c: 526: send_char('-');
  2260  0F2F  302D               	movlw	(02Dh)
  2261  0F30  120A  158A  21A6   	fcall	_send_char
              120A  158A         
  2262                           	line	527
  2263                           ;PR22.c: 527: }
  2264  0F35  2F3C               	goto	l621
  2265                           	line	528
  2266                           	
  2267  0F36                     l620:	
  2268                           	line	529
  2269                           	
  2270  0F36                     l3547:	
  2271                           ;PR22.c: 528: else
  2272                           ;PR22.c: 529: send_char('+');
  2273  0F36  302B               	movlw	(02Bh)
  2274  0F37  120A  158A  21A6   	fcall	_send_char
              120A  158A         
  2275                           	
  2276  0F3C                     l621:	
  2277                           	line	532
  2278                           ;PR22.c: 532: send_char('0' + temperature / 1000);
  2279  0F3C  30E8               	movlw	low(03E8h)
  2280  0F3D  00F6               	movwf	(?___lwdiv)
  2281  0F3E  3003               	movlw	high(03E8h)
  2282  0F3F  00F7               	movwf	((?___lwdiv))+1
  2283  0F40  1283               	bcf	status, 5	;RP0=0, select bank0
  2284  0F41  1303               	bcf	status, 6	;RP1=0, select bank0
  2285  0F42  0835               	movf	(mode3@temperature+1),w
  2286  0F43  01F9               	clrf	1+(?___lwdiv)+02h
  2287  0F44  07F9               	addwf	1+(?___lwdiv)+02h
  2288  0F45  0834               	movf	(mode3@temperature),w
  2289  0F46  01F8               	clrf	0+(?___lwdiv)+02h
  2290  0F47  07F8               	addwf	0+(?___lwdiv)+02h
  2291                           
  2292  0F48  120A  158A  2265   	fcall	___lwdiv
              120A  158A         
  2293  0F4D  0876               	movf	(0+(?___lwdiv)),w
  2294  0F4E  3E30               	addlw	030h
  2295  0F4F  120A  158A  21A6   	fcall	_send_char
              120A  158A         
  2296                           	line	533
  2297                           ;PR22.c: 533: send_char('0' + (temperature % 1000) / 100);
  2298  0F54  3064               	movlw	low(064h)
  2299  0F55  00F6               	movwf	(?___lwdiv)
  2300  0F56  3000               	movlw	high(064h)
  2301  0F57  00F7               	movwf	((?___lwdiv))+1
  2302  0F58  1283               	bcf	status, 5	;RP0=0, select bank0
  2303  0F59  1303               	bcf	status, 6	;RP1=0, select bank0
  2304  0F5A  0835               	movf	(mode3@temperature+1),w
  2305  0F5B  01F3               	clrf	1+(?___lwmod)+02h
  2306  0F5C  07F3               	addwf	1+(?___lwmod)+02h
  2307  0F5D  0834               	movf	(mode3@temperature),w
  2308  0F5E  01F2               	clrf	0+(?___lwmod)+02h
  2309  0F5F  07F2               	addwf	0+(?___lwmod)+02h
  2310                           
  2311  0F60  30E8               	movlw	low(03E8h)
  2312  0F61  00F0               	movwf	(?___lwmod)
  2313  0F62  3003               	movlw	high(03E8h)
  2314  0F63  00F1               	movwf	((?___lwmod))+1
  2315  0F64  120A  158A  2221   	fcall	___lwmod
              120A  158A         
  2316  0F69  0871               	movf	(1+(?___lwmod)),w
  2317  0F6A  01F9               	clrf	1+(?___lwdiv)+02h
  2318  0F6B  07F9               	addwf	1+(?___lwdiv)+02h
  2319  0F6C  0870               	movf	(0+(?___lwmod)),w
  2320  0F6D  01F8               	clrf	0+(?___lwdiv)+02h
  2321  0F6E  07F8               	addwf	0+(?___lwdiv)+02h
  2322                           
  2323  0F6F  120A  158A  2265   	fcall	___lwdiv
              120A  158A         
  2324  0F74  0876               	movf	(0+(?___lwdiv)),w
  2325  0F75  3E30               	addlw	030h
  2326  0F76  120A  158A  21A6   	fcall	_send_char
              120A  158A         
  2327                           	line	534
  2328                           ;PR22.c: 534: send_char('0' + (temperature % 100) / 10);
  2329  0F7B  300A               	movlw	low(0Ah)
  2330  0F7C  00F6               	movwf	(?___lwdiv)
  2331  0F7D  3000               	movlw	high(0Ah)
  2332  0F7E  00F7               	movwf	((?___lwdiv))+1
  2333  0F7F  1283               	bcf	status, 5	;RP0=0, select bank0
  2334  0F80  1303               	bcf	status, 6	;RP1=0, select bank0
  2335  0F81  0835               	movf	(mode3@temperature+1),w
  2336  0F82  01F3               	clrf	1+(?___lwmod)+02h
  2337  0F83  07F3               	addwf	1+(?___lwmod)+02h
  2338  0F84  0834               	movf	(mode3@temperature),w
  2339  0F85  01F2               	clrf	0+(?___lwmod)+02h
  2340  0F86  07F2               	addwf	0+(?___lwmod)+02h
  2341                           
  2342  0F87  3064               	movlw	low(064h)
  2343  0F88  00F0               	movwf	(?___lwmod)
  2344  0F89  3000               	movlw	high(064h)
  2345  0F8A  00F1               	movwf	((?___lwmod))+1
  2346  0F8B  120A  158A  2221   	fcall	___lwmod
              120A  158A         
  2347  0F90  0871               	movf	(1+(?___lwmod)),w
  2348  0F91  01F9               	clrf	1+(?___lwdiv)+02h
  2349  0F92  07F9               	addwf	1+(?___lwdiv)+02h
  2350  0F93  0870               	movf	(0+(?___lwmod)),w
  2351  0F94  01F8               	clrf	0+(?___lwdiv)+02h
  2352  0F95  07F8               	addwf	0+(?___lwdiv)+02h
  2353                           
  2354  0F96  120A  158A  2265   	fcall	___lwdiv
              120A  158A         
  2355  0F9B  0876               	movf	(0+(?___lwdiv)),w
  2356  0F9C  3E30               	addlw	030h
  2357  0F9D  120A  158A  21A6   	fcall	_send_char
              120A  158A         
  2358                           	line	535
  2359                           ;PR22.c: 535: send_char('.');
  2360  0FA2  302E               	movlw	(02Eh)
  2361  0FA3  120A  158A  21A6   	fcall	_send_char
              120A  158A         
  2362                           	line	536
  2363                           ;PR22.c: 536: send_char('0' + temperature % 10);
  2364  0FA8  300A               	movlw	low(0Ah)
  2365  0FA9  00F0               	movwf	(?___lwmod)
  2366  0FAA  3000               	movlw	high(0Ah)
  2367  0FAB  00F1               	movwf	((?___lwmod))+1
  2368  0FAC  1283               	bcf	status, 5	;RP0=0, select bank0
  2369  0FAD  1303               	bcf	status, 6	;RP1=0, select bank0
  2370  0FAE  0835               	movf	(mode3@temperature+1),w
  2371  0FAF  01F3               	clrf	1+(?___lwmod)+02h
  2372  0FB0  07F3               	addwf	1+(?___lwmod)+02h
  2373  0FB1  0834               	movf	(mode3@temperature),w
  2374  0FB2  01F2               	clrf	0+(?___lwmod)+02h
  2375  0FB3  07F2               	addwf	0+(?___lwmod)+02h
  2376                           
  2377  0FB4  120A  158A  2221   	fcall	___lwmod
              120A  158A         
  2378  0FB9  0870               	movf	(0+(?___lwmod)),w
  2379  0FBA  3E30               	addlw	030h
  2380  0FBB  120A  158A  21A6   	fcall	_send_char
              120A  158A         
  2381                           	line	537
  2382                           ;PR22.c: 537: send_char('C');
  2383  0FC0  3043               	movlw	(043h)
  2384  0FC1  120A  158A  21A6   	fcall	_send_char
              120A  158A         
  2385  0FC6  2FC7               	goto	l3549
  2386                           	line	538
  2387                           	
  2388  0FC7                     l616:	
  2389                           	line	488
  2390                           	
  2391  0FC7                     l3549:	
  2392  0FC7  1283               	bcf	status, 5	;RP0=0, select bank0
  2393  0FC8  1303               	bcf	status, 6	;RP1=0, select bank0
  2394  0FC9  1905               	btfsc	(42/8),(42)&7
  2395  0FCA  2FCC               	goto	u3971
  2396  0FCB  2FCD               	goto	u3970
  2397  0FCC                     u3971:
  2398  0FCC  2D59               	goto	l3495
  2399  0FCD                     u3970:
  2400  0FCD  2FCE               	goto	l3551
  2401                           	
  2402  0FCE                     l622:	
  2403                           	line	540
  2404                           	
  2405  0FCE                     l3551:	
  2406                           ;PR22.c: 538: }
  2407                           ;PR22.c: 540: delay(10000);
  2408  0FCE  3000               	movlw	0
  2409  0FCF  00F3               	movwf	(?_delay+3)
  2410  0FD0  3000               	movlw	0
  2411  0FD1  00F2               	movwf	(?_delay+2)
  2412  0FD2  3027               	movlw	027h
  2413  0FD3  00F1               	movwf	(?_delay+1)
  2414  0FD4  3010               	movlw	010h
  2415  0FD5  00F0               	movwf	(?_delay)
  2416                           
  2417  0FD6  120A  158A  21F1   	fcall	_delay
              120A  158A         
  2418                           	line	541
  2419                           ;PR22.c: 541: while(!RA2);
  2420  0FDB  2FDC               	goto	l623
  2421                           	
  2422  0FDC                     l624:	
  2423                           	
  2424  0FDC                     l623:	
  2425  0FDC  1283               	bcf	status, 5	;RP0=0, select bank0
  2426  0FDD  1303               	bcf	status, 6	;RP1=0, select bank0
  2427  0FDE  1D05               	btfss	(42/8),(42)&7
  2428  0FDF  2FE1               	goto	u3981
  2429  0FE0  2FE2               	goto	u3980
  2430  0FE1                     u3981:
  2431  0FE1  2FDC               	goto	l623
  2432  0FE2                     u3980:
  2433  0FE2  2FE3               	goto	l3553
  2434                           	
  2435  0FE3                     l625:	
  2436                           	line	542
  2437                           	
  2438  0FE3                     l3553:	
  2439                           ;PR22.c: 542: spi_baro(0x03, 0, 0);
  2440  0FE3  1003               	clrc
  2441  0FE4  3000               	movlw	0
  2442  0FE5  1803               	btfsc	status,0
  2443  0FE6  3001               	movlw	1
  2444  0FE7  00A0               	movwf	(?_spi_baro)
  2445  0FE8  3000               	movlw	low(0)
  2446  0FE9  00A1               	movwf	0+(?_spi_baro)+01h
  2447  0FEA  3000               	movlw	high(0)
  2448  0FEB  00A2               	movwf	(0+(?_spi_baro)+01h)+1
  2449  0FEC  3003               	movlw	(03h)
  2450  0FED  120A  158A  22B5   	fcall	_spi_baro
              120A  158A         
  2451                           	line	543
  2452                           ;PR22.c: 543: delay(10000);
  2453  0FF2  3000               	movlw	0
  2454  0FF3  00F3               	movwf	(?_delay+3)
  2455  0FF4  3000               	movlw	0
  2456  0FF5  00F2               	movwf	(?_delay+2)
  2457  0FF6  3027               	movlw	027h
  2458  0FF7  00F1               	movwf	(?_delay+1)
  2459  0FF8  3010               	movlw	010h
  2460  0FF9  00F0               	movwf	(?_delay)
  2461                           
  2462  0FFA  120A  158A  21F1   	fcall	_delay
              120A  158A         
  2463                           	line	544
  2464                           	
  2465  0FFF                     l626:	
  2466  0FFF  0008               	return
  2467                           	opt stack 0
  2468                           GLOBAL	__end_of_mode3
  2469  1000                     	__end_of_mode3:
  2470 ;; =============== function _mode3 ends ============
  2471                           
  2472                           	signat	_mode3,88
  2473                           	global	_mode2
  2474                           psect	text380,local,class=CODE,delta=2
  2475                           global __ptext380
  2476  01CA                     __ptext380:
  2477                           
  2478 ;; *************** function _mode2 *****************
  2479 ;; Defined at:
  2480 ;;		line 334 in file "C:\Users\Phang\Desktop\9.80\PR 22\PR22.c"
  2481 ;; Parameters:    Size  Location     Type
  2482 ;;		None
  2483 ;; Auto vars:     Size  Location     Type
  2484 ;;  temperature_    4   13[BANK0 ] unsigned long 
  2485 ;;  capacitance_    4    9[BANK0 ] unsigned long 
  2486 ;;  capacitance     2   19[BANK0 ] unsigned int 
  2487 ;;  i               1   18[BANK0 ] unsigned char 
  2488 ;;  temperature     1   17[BANK0 ] unsigned char 
  2489 ;; Return value:  Size  Location     Type
  2490 ;;		None               void
  2491 ;; Registers used:
  2492 ;;		wreg, fsr0l, fsr0h, status,2, status,0, pclath, cstack
  2493 ;; Tracked objects:
  2494 ;;		On entry : 0/0
  2495 ;;		On exit  : 0/0
  2496 ;;		Unchanged: 0/0
  2497 ;; Data sizes:     COMMON   BANK0   BANK1   BANK3   BANK2
  2498 ;;      Params:         0       0       0       0       0
  2499 ;;      Locals:         0      12       0       0       0
  2500 ;;      Temps:          0       5       0       0       0
  2501 ;;      Totals:         0      17       0       0       0
  2502 ;;Total ram usage:       17 bytes
  2503 ;; Hardware stack levels used:    1
  2504 ;; Hardware stack levels required when called:    3
  2505 ;; This function calls:
  2506 ;;		_lcd_goto
  2507 ;;		_send_string
  2508 ;;		_i2c_start
  2509 ;;		_lcd_clr
  2510 ;;		_delay
  2511 ;;		___lwdiv
  2512 ;;		_send_char
  2513 ;;		___lwmod
  2514 ;;		___awmod
  2515 ;;		___awdiv
  2516 ;; This function is called by:
  2517 ;;		_main
  2518 ;; This function uses a non-reentrant model
  2519 ;;
  2520                           psect	text380
  2521                           	file	"C:\Users\Phang\Desktop\9.80\PR 22\PR22.c"
  2522                           	line	334
  2523                           	global	__size_of_mode2
  2524  02FD                     	__size_of_mode2	equ	__end_of_mode2-_mode2
  2525                           	
  2526  01CA                     _mode2:	
  2527                           	opt	stack 4
  2528                           ; Regs used in _mode2: [wreg-fsr0h+status,2+status,0+pclath+cstack]
  2529                           	line	340
  2530                           	
  2531  01CA                     l3385:	
  2532                           ;PR22.c: 335: unsigned char i;
  2533                           ;PR22.c: 336: unsigned char temperature;
  2534                           ;PR22.c: 337: unsigned int capacitance;
  2535                           ;PR22.c: 338: unsigned long capacitance_raw, temperature_raw;
  2536                           ;PR22.c: 340: lcd_goto(20);
  2537  01CA  3014               	movlw	(014h)
  2538  01CB  120A  158A  2164   	fcall	_lcd_goto
              120A  118A         
  2539                           	line	341
  2540                           	
  2541  01D0                     l3387:	
  2542                           ;PR22.c: 341: send_string("Calibrating...  ");
  2543  01D0  3001               	movlw	((STR_19-__stringbase))&0ffh
  2544  01D1  120A  158A  21CB   	fcall	_send_string
              120A  118A         
  2545                           	line	344
  2546                           	
  2547  01D6                     l3389:	
  2548                           ;PR22.c: 344: for(i = 0; i < 7; i++)
  2549  01D6  1003               	clrc
  2550  01D7  3000               	movlw	0
  2551  01D8  1803               	btfsc	status,0
  2552  01D9  3001               	movlw	1
  2553  01DA  1283               	bcf	status, 5	;RP0=0, select bank0
  2554  01DB  1303               	bcf	status, 6	;RP1=0, select bank0
  2555  01DC  00B2               	movwf	(mode2@i)
  2556                           	
  2557  01DD                     l3391:	
  2558  01DD  3007               	movlw	(07h)
  2559  01DE  0232               	subwf	(mode2@i),w
  2560  01DF  1C03               	skipc
  2561  01E0  29E2               	goto	u3701
  2562  01E1  29E3               	goto	u3700
  2563  01E2                     u3701:
  2564  01E2  29E5               	goto	l3395
  2565  01E3                     u3700:
  2566  01E3  29FC               	goto	l3401
  2567                           	
  2568  01E4                     l3393:	
  2569  01E4  29FC               	goto	l3401
  2570                           	line	345
  2571                           	
  2572  01E5                     l594:	
  2573                           	
  2574  01E5                     l3395:	
  2575                           ;PR22.c: 345: i2c_master_data[i] = i2c_master_rcvb[i] = 0;
  2576  01E5  0832               	movf	(mode2@i),w
  2577  01E6  3E3E               	addlw	_i2c_master_rcvb&0ffh
  2578  01E7  0084               	movwf	fsr0
  2579  01E8  3000               	movlw	(0)
  2580  01E9  1383               	bcf	status, 7	;select IRP bank0
  2581  01EA  0080               	movwf	indf
  2582  01EB  00A4               	movwf	(??_mode2+0)+0
  2583  01EC  0832               	movf	(mode2@i),w
  2584  01ED  3E37               	addlw	_i2c_master_data&0ffh
  2585  01EE  0084               	movwf	fsr0
  2586  01EF  0824               	movf	(??_mode2+0)+0,w
  2587  01F0  0080               	movwf	indf
  2588                           	line	344
  2589                           	
  2590  01F1                     l3397:	
  2591  01F1  3001               	movlw	(01h)
  2592  01F2  00A4               	movwf	(??_mode2+0)+0
  2593  01F3  0824               	movf	(??_mode2+0)+0,w
  2594  01F4  07B2               	addwf	(mode2@i),f
  2595                           	
  2596  01F5                     l3399:	
  2597  01F5  3007               	movlw	(07h)
  2598  01F6  0232               	subwf	(mode2@i),w
  2599  01F7  1C03               	skipc
  2600  01F8  29FA               	goto	u3711
  2601  01F9  29FB               	goto	u3710
  2602  01FA                     u3711:
  2603  01FA  29E5               	goto	l3395
  2604  01FB                     u3710:
  2605  01FB  29FC               	goto	l3401
  2606                           	
  2607  01FC                     l595:	
  2608                           	line	347
  2609                           	
  2610  01FC                     l3401:	
  2611                           ;PR22.c: 347: i2c_master_data[5] = 0b10000000;
  2612  01FC  3080               	movlw	(080h)
  2613  01FD  00A4               	movwf	(??_mode2+0)+0
  2614  01FE  0824               	movf	(??_mode2+0)+0,w
  2615  01FF  00BC               	movwf	0+(_i2c_master_data)+05h
  2616                           	line	357
  2617                           ;PR22.c: 357: i2c_master_data[0] = 0x07;
  2618  0200  3007               	movlw	(07h)
  2619  0201  00A4               	movwf	(??_mode2+0)+0
  2620  0202  0824               	movf	(??_mode2+0)+0,w
  2621  0203  00B7               	movwf	(_i2c_master_data)
  2622                           	line	358
  2623                           ;PR22.c: 358: i2c_master_data[1] = 0b10000000;
  2624  0204  3080               	movlw	(080h)
  2625  0205  00A4               	movwf	(??_mode2+0)+0
  2626  0206  0824               	movf	(??_mode2+0)+0,w
  2627  0207  00B8               	movwf	0+(_i2c_master_data)+01h
  2628                           	line	364
  2629                           ;PR22.c: 364: i2c_master_data[2] = 0b10000001;
  2630  0208  3081               	movlw	(081h)
  2631  0209  00A4               	movwf	(??_mode2+0)+0
  2632  020A  0824               	movf	(??_mode2+0)+0,w
  2633  020B  00B9               	movwf	0+(_i2c_master_data)+02h
  2634                           	line	365
  2635                           ;PR22.c: 365: i2c_master_data[3] = 0b00001011;
  2636  020C  300B               	movlw	(0Bh)
  2637  020D  00A4               	movwf	(??_mode2+0)+0
  2638  020E  0824               	movf	(??_mode2+0)+0,w
  2639  020F  00BA               	movwf	0+(_i2c_master_data)+03h
  2640                           	line	371
  2641                           ;PR22.c: 371: i2c_master_data[4] = 0b00010001;
  2642  0210  3011               	movlw	(011h)
  2643  0211  00A4               	movwf	(??_mode2+0)+0
  2644  0212  0824               	movf	(??_mode2+0)+0,w
  2645  0213  00BB               	movwf	0+(_i2c_master_data)+04h
  2646  0214  2A15               	goto	l3403
  2647                           	line	376
  2648                           ;PR22.c: 376: do
  2649                           	
  2650  0215                     l596:	
  2651                           	line	378
  2652                           	
  2653  0215                     l3403:	
  2654                           ;PR22.c: 377: {
  2655                           ;PR22.c: 378: i2c_start(0x90, 6, 0);
  2656  0215  3006               	movlw	(06h)
  2657  0216  00A4               	movwf	(??_mode2+0)+0
  2658  0217  0824               	movf	(??_mode2+0)+0,w
  2659  0218  00F0               	movwf	(?_i2c_start)
  2660  0219  3000               	movlw	low(0)
  2661  021A  00F1               	movwf	0+(?_i2c_start)+01h
  2662  021B  3000               	movlw	high(0)
  2663  021C  00F2               	movwf	(0+(?_i2c_start)+01h)+1
  2664  021D  3090               	movlw	(090h)
  2665  021E  120A  158A  2494   	fcall	_i2c_start
              120A  118A         
  2666  0223  2A24               	goto	l3405
  2667                           	line	380
  2668                           ;PR22.c: 380: do
  2669                           	
  2670  0224                     l597:	
  2671                           	line	381
  2672                           	
  2673  0224                     l3405:	
  2674                           ;PR22.c: 381: i2c_start(0x90, 1, 1);
  2675  0224  01F0               	clrf	(?_i2c_start)
  2676  0225  1403               	bsf	status,0
  2677  0226  0DF0               	rlf	(?_i2c_start),f
  2678  0227  3001               	movlw	low(01h)
  2679  0228  00F1               	movwf	0+(?_i2c_start)+01h
  2680  0229  3000               	movlw	high(01h)
  2681  022A  00F2               	movwf	(0+(?_i2c_start)+01h)+1
  2682  022B  3090               	movlw	(090h)
  2683  022C  120A  158A  2494   	fcall	_i2c_start
              120A  118A         
  2684                           	line	382
  2685                           	
  2686  0231                     l3407:	
  2687                           ;PR22.c: 382: while(i2c_master_rcvb[0] != 0);
  2688  0231  1283               	bcf	status, 5	;RP0=0, select bank0
  2689  0232  1303               	bcf	status, 6	;RP1=0, select bank0
  2690  0233  08BE               	movf	(_i2c_master_rcvb),f
  2691  0234  1D03               	skipz
  2692  0235  2A37               	goto	u3721
  2693  0236  2A38               	goto	u3720
  2694  0237                     u3721:
  2695  0237  2A24               	goto	l3405
  2696  0238                     u3720:
  2697  0238  2A39               	goto	l3409
  2698                           	
  2699  0239                     l598:	
  2700                           	line	384
  2701                           	
  2702  0239                     l3409:	
  2703                           ;PR22.c: 384: i2c_start(0x90, 4, 1);
  2704  0239  3004               	movlw	(04h)
  2705  023A  00A4               	movwf	(??_mode2+0)+0
  2706  023B  0824               	movf	(??_mode2+0)+0,w
  2707  023C  00F0               	movwf	(?_i2c_start)
  2708  023D  3001               	movlw	low(01h)
  2709  023E  00F1               	movwf	0+(?_i2c_start)+01h
  2710  023F  3000               	movlw	high(01h)
  2711  0240  00F2               	movwf	(0+(?_i2c_start)+01h)+1
  2712  0241  3090               	movlw	(090h)
  2713  0242  120A  158A  2494   	fcall	_i2c_start
              120A  118A         
  2714                           	line	386
  2715                           	
  2716  0247                     l3411:	
  2717                           ;PR22.c: 386: if(i2c_master_data[5] < 0xFF)
  2718  0247  1283               	bcf	status, 5	;RP0=0, select bank0
  2719  0248  1303               	bcf	status, 6	;RP1=0, select bank0
  2720  0249  083C               	movf	0+(_i2c_master_data)+05h,w
  2721  024A  3AFF               	xorlw	0FFh
  2722  024B  1903               	skipnz
  2723  024C  2A4E               	goto	u3731
  2724  024D  2A4F               	goto	u3730
  2725  024E                     u3731:
  2726  024E  2A59               	goto	l3417
  2727  024F                     u3730:
  2728                           	line	388
  2729                           	
  2730  024F                     l3413:	
  2731                           ;PR22.c: 387: {
  2732                           ;PR22.c: 388: if(i2c_master_rcvb[1] != 0)
  2733  024F  083F               	movf	0+(_i2c_master_rcvb)+01h,w
  2734  0250  1D03               	skipz
  2735  0251  2A53               	goto	u3740
  2736  0252  2A79               	goto	l3425
  2737  0253                     u3740:
  2738                           	line	389
  2739                           	
  2740  0253                     l3415:	
  2741                           ;PR22.c: 389: i2c_master_data[5]++;
  2742  0253  3001               	movlw	(01h)
  2743  0254  00A4               	movwf	(??_mode2+0)+0
  2744  0255  0824               	movf	(??_mode2+0)+0,w
  2745  0256  07BC               	addwf	0+(_i2c_master_data)+05h,f
  2746  0257  2A79               	goto	l3425
  2747                           	
  2748  0258                     l600:	
  2749                           	line	390
  2750                           ;PR22.c: 390: }
  2751  0258  2A79               	goto	l3425
  2752                           	line	391
  2753                           	
  2754  0259                     l599:	
  2755                           	line	393
  2756                           	
  2757  0259                     l3417:	
  2758                           ;PR22.c: 391: else
  2759                           ;PR22.c: 392: {
  2760                           ;PR22.c: 393: lcd_clr();
  2761  0259  120A  158A  2150   	fcall	_lcd_clr
              120A  118A         
  2762                           	line	394
  2763                           ;PR22.c: 394: lcd_goto(0);
  2764  025E  3000               	movlw	(0)
  2765  025F  120A  158A  2164   	fcall	_lcd_goto
              120A  118A         
  2766                           	line	395
  2767                           	
  2768  0264                     l3419:	
  2769                           ;PR22.c: 395: send_string("Calibration Fail");
  2770  0264  3012               	movlw	((STR_20-__stringbase))&0ffh
  2771  0265  120A  158A  21CB   	fcall	_send_string
              120A  118A         
  2772                           	line	396
  2773                           	
  2774  026A                     l3421:	
  2775                           ;PR22.c: 396: delay(200000);
  2776  026A  3000               	movlw	0
  2777  026B  00F3               	movwf	(?_delay+3)
  2778  026C  3003               	movlw	03h
  2779  026D  00F2               	movwf	(?_delay+2)
  2780  026E  300D               	movlw	0Dh
  2781  026F  00F1               	movwf	(?_delay+1)
  2782  0270  3040               	movlw	040h
  2783  0271  00F0               	movwf	(?_delay)
  2784                           
  2785  0272  120A  158A  21F1   	fcall	_delay
              120A  118A         
  2786  0277  2CC6               	goto	l602
  2787                           	line	397
  2788                           	
  2789  0278                     l3423:	
  2790                           ;PR22.c: 397: return;
  2791  0278  2CC6               	goto	l602
  2792                           	line	398
  2793                           	
  2794  0279                     l601:	
  2795                           	line	399
  2796                           	
  2797  0279                     l3425:	
  2798                           ;PR22.c: 398: }
  2799                           ;PR22.c: 399: } while(i2c_master_rcvb[1] != 0);
  2800  0279  1283               	bcf	status, 5	;RP0=0, select bank0
  2801  027A  1303               	bcf	status, 6	;RP1=0, select bank0
  2802  027B  08BF               	movf	0+(_i2c_master_rcvb)+01h,f
  2803  027C  1D03               	skipz
  2804  027D  2A7F               	goto	u3751
  2805  027E  2A80               	goto	u3750
  2806  027F                     u3751:
  2807  027F  2A15               	goto	l3403
  2808  0280                     u3750:
  2809  0280  2A81               	goto	l3427
  2810                           	
  2811  0281                     l603:	
  2812                           	line	403
  2813                           	
  2814  0281                     l3427:	
  2815                           ;PR22.c: 403: lcd_clr();
  2816  0281  120A  158A  2150   	fcall	_lcd_clr
              120A  118A         
  2817                           	line	404
  2818                           ;PR22.c: 404: lcd_goto(0);
  2819  0286  3000               	movlw	(0)
  2820  0287  120A  158A  2164   	fcall	_lcd_goto
              120A  118A         
  2821                           	line	405
  2822                           	
  2823  028C                     l3429:	
  2824                           ;PR22.c: 405: send_string("Cap.:");
  2825  028C  30BE               	movlw	((STR_21-__stringbase))&0ffh
  2826  028D  120A  158A  21CB   	fcall	_send_string
              120A  118A         
  2827                           	line	406
  2828                           	
  2829  0292                     l3431:	
  2830                           ;PR22.c: 406: lcd_goto(20);
  2831  0292  3014               	movlw	(014h)
  2832  0293  120A  158A  2164   	fcall	_lcd_goto
              120A  118A         
  2833                           	line	407
  2834                           ;PR22.c: 407: send_string("Tem.:");
  2835  0298  30B8               	movlw	((STR_22-__stringbase))&0ffh
  2836  0299  120A  158A  21CB   	fcall	_send_string
              120A  118A         
  2837                           	line	409
  2838                           ;PR22.c: 409: while(RA2)
  2839  029E  2C9D               	goto	l3483
  2840                           	
  2841  029F                     l605:	
  2842  029F  2AA0               	goto	l3433
  2843                           	line	413
  2844                           ;PR22.c: 410: {
  2845                           ;PR22.c: 413: do
  2846                           	
  2847  02A0                     l606:	
  2848                           	line	414
  2849                           	
  2850  02A0                     l3433:	
  2851                           ;PR22.c: 414: i2c_start(0x90, 1, 1);
  2852  02A0  01F0               	clrf	(?_i2c_start)
  2853  02A1  1403               	bsf	status,0
  2854  02A2  0DF0               	rlf	(?_i2c_start),f
  2855  02A3  3001               	movlw	low(01h)
  2856  02A4  00F1               	movwf	0+(?_i2c_start)+01h
  2857  02A5  3000               	movlw	high(01h)
  2858  02A6  00F2               	movwf	(0+(?_i2c_start)+01h)+1
  2859  02A7  3090               	movlw	(090h)
  2860  02A8  120A  158A  2494   	fcall	_i2c_start
              120A  118A         
  2861                           	line	415
  2862                           	
  2863  02AD                     l3435:	
  2864                           ;PR22.c: 415: while(i2c_master_rcvb[0] != 0);
  2865  02AD  1283               	bcf	status, 5	;RP0=0, select bank0
  2866  02AE  1303               	bcf	status, 6	;RP1=0, select bank0
  2867  02AF  08BE               	movf	(_i2c_master_rcvb),f
  2868  02B0  1D03               	skipz
  2869  02B1  2AB3               	goto	u3761
  2870  02B2  2AB4               	goto	u3760
  2871  02B3                     u3761:
  2872  02B3  2AA0               	goto	l3433
  2873  02B4                     u3760:
  2874  02B4  2AB5               	goto	l3437
  2875                           	
  2876  02B5                     l607:	
  2877                           	line	417
  2878                           	
  2879  02B5                     l3437:	
  2880                           ;PR22.c: 417: i2c_start(0x90, 7, 1);
  2881  02B5  3007               	movlw	(07h)
  2882  02B6  00A4               	movwf	(??_mode2+0)+0
  2883  02B7  0824               	movf	(??_mode2+0)+0,w
  2884  02B8  00F0               	movwf	(?_i2c_start)
  2885  02B9  3001               	movlw	low(01h)
  2886  02BA  00F1               	movwf	0+(?_i2c_start)+01h
  2887  02BB  3000               	movlw	high(01h)
  2888  02BC  00F2               	movwf	(0+(?_i2c_start)+01h)+1
  2889  02BD  3090               	movlw	(090h)
  2890  02BE  120A  158A  2494   	fcall	_i2c_start
              120A  118A         
  2891                           	line	430
  2892                           	
  2893  02C3                     l3439:	
  2894                           ;PR22.c: 430: capacitance_raw = i2c_master_rcvb[1];
  2895  02C3  1283               	bcf	status, 5	;RP0=0, select bank0
  2896  02C4  1303               	bcf	status, 6	;RP1=0, select bank0
  2897  02C5  083F               	movf	0+(_i2c_master_rcvb)+01h,w
  2898  02C6  00A4               	movwf	(??_mode2+0)+0
  2899  02C7  01A5               	clrf	((??_mode2+0)+0+1)
  2900  02C8  01A6               	clrf	((??_mode2+0)+0+2)
  2901  02C9  01A7               	clrf	((??_mode2+0)+0+3)
  2902  02CA  0827               	movf	3+(??_mode2+0)+0,w
  2903  02CB  00AC               	movwf	(mode2@capacitance_raw+3)
  2904  02CC  0826               	movf	2+(??_mode2+0)+0,w
  2905  02CD  00AB               	movwf	(mode2@capacitance_raw+2)
  2906  02CE  0825               	movf	1+(??_mode2+0)+0,w
  2907  02CF  00AA               	movwf	(mode2@capacitance_raw+1)
  2908  02D0  0824               	movf	0+(??_mode2+0)+0,w
  2909  02D1  00A9               	movwf	(mode2@capacitance_raw)
  2910                           
  2911                           	line	431
  2912                           	
  2913  02D2                     l3441:	
  2914                           ;PR22.c: 431: capacitance_raw <<= 8;
  2915  02D2  3008               	movlw	08h
  2916  02D3  00A4               	movwf	(??_mode2+0)+0
  2917  02D4                     u3775:
  2918  02D4  1003               	clrc
  2919  02D5  0DA9               	rlf	(mode2@capacitance_raw),f
  2920  02D6  0DAA               	rlf	(mode2@capacitance_raw+1),f
  2921  02D7  0DAB               	rlf	(mode2@capacitance_raw+2),f
  2922  02D8  0DAC               	rlf	(mode2@capacitance_raw+3),f
  2923  02D9  0BA4               	decfsz	(??_mode2+0)+0
  2924  02DA  2AD4               	goto	u3775
  2925                           	line	432
  2926                           	
  2927  02DB                     l3443:	
  2928                           ;PR22.c: 432: capacitance_raw += i2c_master_rcvb[2];
  2929  02DB  0840               	movf	0+(_i2c_master_rcvb)+02h,w
  2930  02DC  00A4               	movwf	(??_mode2+0)+0
  2931  02DD  01A5               	clrf	((??_mode2+0)+0+1)
  2932  02DE  01A6               	clrf	((??_mode2+0)+0+2)
  2933  02DF  01A7               	clrf	((??_mode2+0)+0+3)
  2934  02E0  0824               	movf	0+(??_mode2+0)+0,w
  2935  02E1  07A9               	addwf	(mode2@capacitance_raw),f
  2936  02E2  0825               	movf	1+(??_mode2+0)+0,w
  2937  02E3  1103               	clrz
  2938  02E4  1803               	skipnc
  2939  02E5  3E01               	addlw	1
  2940  02E6  1903               	skipnz
  2941  02E7  2AE9               	goto	u3781
  2942  02E8  07AA               	addwf	(mode2@capacitance_raw+1),f
  2943  02E9                     u3781:
  2944  02E9  0826               	movf	2+(??_mode2+0)+0,w
  2945  02EA  1103               	clrz
  2946  02EB  1803               	skipnc
  2947  02EC  3E01               	addlw	1
  2948  02ED  1903               	skipnz
  2949  02EE  2AF0               	goto	u3782
  2950  02EF  07AB               	addwf	(mode2@capacitance_raw+2),f
  2951  02F0                     u3782:
  2952  02F0  0827               	movf	3+(??_mode2+0)+0,w
  2953  02F1  1103               	clrz
  2954  02F2  1803               	skipnc
  2955  02F3  3E01               	addlw	1
  2956  02F4  1903               	skipnz
  2957  02F5  2AF7               	goto	u3783
  2958  02F6  07AC               	addwf	(mode2@capacitance_raw+3),f
  2959  02F7                     u3783:
  2960                           
  2961                           	line	433
  2962                           	
  2963  02F7                     l3445:	
  2964                           ;PR22.c: 433: capacitance_raw <<= 8;
  2965  02F7  3008               	movlw	08h
  2966  02F8  00A4               	movwf	(??_mode2+0)+0
  2967  02F9                     u3795:
  2968  02F9  1003               	clrc
  2969  02FA  0DA9               	rlf	(mode2@capacitance_raw),f
  2970  02FB  0DAA               	rlf	(mode2@capacitance_raw+1),f
  2971  02FC  0DAB               	rlf	(mode2@capacitance_raw+2),f
  2972  02FD  0DAC               	rlf	(mode2@capacitance_raw+3),f
  2973  02FE  0BA4               	decfsz	(??_mode2+0)+0
  2974  02FF  2AF9               	goto	u3795
  2975                           	line	434
  2976                           	
  2977  0300                     l3447:	
  2978                           ;PR22.c: 434: capacitance_raw += i2c_master_rcvb[3];
  2979  0300  0841               	movf	0+(_i2c_master_rcvb)+03h,w
  2980  0301  00A4               	movwf	(??_mode2+0)+0
  2981  0302  01A5               	clrf	((??_mode2+0)+0+1)
  2982  0303  01A6               	clrf	((??_mode2+0)+0+2)
  2983  0304  01A7               	clrf	((??_mode2+0)+0+3)
  2984  0305  0824               	movf	0+(??_mode2+0)+0,w
  2985  0306  07A9               	addwf	(mode2@capacitance_raw),f
  2986  0307  0825               	movf	1+(??_mode2+0)+0,w
  2987  0308  1103               	clrz
  2988  0309  1803               	skipnc
  2989  030A  3E01               	addlw	1
  2990  030B  1903               	skipnz
  2991  030C  2B0E               	goto	u3801
  2992  030D  07AA               	addwf	(mode2@capacitance_raw+1),f
  2993  030E                     u3801:
  2994  030E  0826               	movf	2+(??_mode2+0)+0,w
  2995  030F  1103               	clrz
  2996  0310  1803               	skipnc
  2997  0311  3E01               	addlw	1
  2998  0312  1903               	skipnz
  2999  0313  2B15               	goto	u3802
  3000  0314  07AB               	addwf	(mode2@capacitance_raw+2),f
  3001  0315                     u3802:
  3002  0315  0827               	movf	3+(??_mode2+0)+0,w
  3003  0316  1103               	clrz
  3004  0317  1803               	skipnc
  3005  0318  3E01               	addlw	1
  3006  0319  1903               	skipnz
  3007  031A  2B1C               	goto	u3803
  3008  031B  07AC               	addwf	(mode2@capacitance_raw+3),f
  3009  031C                     u3803:
  3010                           
  3011                           	line	435
  3012                           	
  3013  031C                     l3449:	
  3014                           ;PR22.c: 435: capacitance = capacitance_raw / 2048;
  3015  031C  0829               	movf	(mode2@capacitance_raw),w
  3016  031D  00A4               	movwf	(??_mode2+0)+0
  3017  031E  082A               	movf	(mode2@capacitance_raw+1),w
  3018  031F  00A5               	movwf	((??_mode2+0)+0+1)
  3019  0320  082B               	movf	(mode2@capacitance_raw+2),w
  3020  0321  00A6               	movwf	((??_mode2+0)+0+2)
  3021  0322  082C               	movf	(mode2@capacitance_raw+3),w
  3022  0323  00A7               	movwf	((??_mode2+0)+0+3)
  3023  0324  300B               	movlw	0Bh
  3024  0325                     u3815:
  3025  0325  1003               	clrc
  3026  0326  0CA7               	rrf	(??_mode2+0)+3,f
  3027  0327  0CA6               	rrf	(??_mode2+0)+2,f
  3028  0328  0CA5               	rrf	(??_mode2+0)+1,f
  3029  0329  0CA4               	rrf	(??_mode2+0)+0,f
  3030  032A                     u3810:
  3031  032A  3EFF               	addlw	-1
  3032  032B  1D03               	skipz
  3033  032C  2B25               	goto	u3815
  3034  032D  0825               	movf	1+(??_mode2+0)+0,w
  3035  032E  01B4               	clrf	(mode2@capacitance+1)
  3036  032F  07B4               	addwf	(mode2@capacitance+1)
  3037  0330  0824               	movf	0+(??_mode2+0)+0,w
  3038  0331  01B3               	clrf	(mode2@capacitance)
  3039  0332  07B3               	addwf	(mode2@capacitance)
  3040                           
  3041                           	line	438
  3042                           	
  3043  0333                     l3451:	
  3044                           ;PR22.c: 438: temperature_raw = i2c_master_rcvb[4];
  3045  0333  0842               	movf	0+(_i2c_master_rcvb)+04h,w
  3046  0334  00A4               	movwf	(??_mode2+0)+0
  3047  0335  01A5               	clrf	((??_mode2+0)+0+1)
  3048  0336  01A6               	clrf	((??_mode2+0)+0+2)
  3049  0337  01A7               	clrf	((??_mode2+0)+0+3)
  3050  0338  0827               	movf	3+(??_mode2+0)+0,w
  3051  0339  00B0               	movwf	(mode2@temperature_raw+3)
  3052  033A  0826               	movf	2+(??_mode2+0)+0,w
  3053  033B  00AF               	movwf	(mode2@temperature_raw+2)
  3054  033C  0825               	movf	1+(??_mode2+0)+0,w
  3055  033D  00AE               	movwf	(mode2@temperature_raw+1)
  3056  033E  0824               	movf	0+(??_mode2+0)+0,w
  3057  033F  00AD               	movwf	(mode2@temperature_raw)
  3058                           
  3059                           	line	439
  3060                           	
  3061  0340                     l3453:	
  3062                           ;PR22.c: 439: temperature_raw <<= 8;
  3063  0340  3008               	movlw	08h
  3064  0341  00A4               	movwf	(??_mode2+0)+0
  3065  0342                     u3825:
  3066  0342  1003               	clrc
  3067  0343  0DAD               	rlf	(mode2@temperature_raw),f
  3068  0344  0DAE               	rlf	(mode2@temperature_raw+1),f
  3069  0345  0DAF               	rlf	(mode2@temperature_raw+2),f
  3070  0346  0DB0               	rlf	(mode2@temperature_raw+3),f
  3071  0347  0BA4               	decfsz	(??_mode2+0)+0
  3072  0348  2B42               	goto	u3825
  3073                           	line	440
  3074                           	
  3075  0349                     l3455:	
  3076                           ;PR22.c: 440: temperature_raw += i2c_master_rcvb[5];
  3077  0349  0843               	movf	0+(_i2c_master_rcvb)+05h,w
  3078  034A  00A4               	movwf	(??_mode2+0)+0
  3079  034B  01A5               	clrf	((??_mode2+0)+0+1)
  3080  034C  01A6               	clrf	((??_mode2+0)+0+2)
  3081  034D  01A7               	clrf	((??_mode2+0)+0+3)
  3082  034E  0824               	movf	0+(??_mode2+0)+0,w
  3083  034F  07AD               	addwf	(mode2@temperature_raw),f
  3084  0350  0825               	movf	1+(??_mode2+0)+0,w
  3085  0351  1103               	clrz
  3086  0352  1803               	skipnc
  3087  0353  3E01               	addlw	1
  3088  0354  1903               	skipnz
  3089  0355  2B57               	goto	u3831
  3090  0356  07AE               	addwf	(mode2@temperature_raw+1),f
  3091  0357                     u3831:
  3092  0357  0826               	movf	2+(??_mode2+0)+0,w
  3093  0358  1103               	clrz
  3094  0359  1803               	skipnc
  3095  035A  3E01               	addlw	1
  3096  035B  1903               	skipnz
  3097  035C  2B5E               	goto	u3832
  3098  035D  07AF               	addwf	(mode2@temperature_raw+2),f
  3099  035E                     u3832:
  3100  035E  0827               	movf	3+(??_mode2+0)+0,w
  3101  035F  1103               	clrz
  3102  0360  1803               	skipnc
  3103  0361  3E01               	addlw	1
  3104  0362  1903               	skipnz
  3105  0363  2B65               	goto	u3833
  3106  0364  07B0               	addwf	(mode2@temperature_raw+3),f
  3107  0365                     u3833:
  3108                           
  3109                           	line	441
  3110                           	
  3111  0365                     l3457:	
  3112                           ;PR22.c: 441: temperature_raw <<= 8;
  3113  0365  3008               	movlw	08h
  3114  0366  00A4               	movwf	(??_mode2+0)+0
  3115  0367                     u3845:
  3116  0367  1003               	clrc
  3117  0368  0DAD               	rlf	(mode2@temperature_raw),f
  3118  0369  0DAE               	rlf	(mode2@temperature_raw+1),f
  3119  036A  0DAF               	rlf	(mode2@temperature_raw+2),f
  3120  036B  0DB0               	rlf	(mode2@temperature_raw+3),f
  3121  036C  0BA4               	decfsz	(??_mode2+0)+0
  3122  036D  2B67               	goto	u3845
  3123                           	line	442
  3124                           	
  3125  036E                     l3459:	
  3126                           ;PR22.c: 442: temperature_raw += i2c_master_rcvb[6];
  3127  036E  0844               	movf	0+(_i2c_master_rcvb)+06h,w
  3128  036F  00A4               	movwf	(??_mode2+0)+0
  3129  0370  01A5               	clrf	((??_mode2+0)+0+1)
  3130  0371  01A6               	clrf	((??_mode2+0)+0+2)
  3131  0372  01A7               	clrf	((??_mode2+0)+0+3)
  3132  0373  0824               	movf	0+(??_mode2+0)+0,w
  3133  0374  07AD               	addwf	(mode2@temperature_raw),f
  3134  0375  0825               	movf	1+(??_mode2+0)+0,w
  3135  0376  1103               	clrz
  3136  0377  1803               	skipnc
  3137  0378  3E01               	addlw	1
  3138  0379  1903               	skipnz
  3139  037A  2B7C               	goto	u3851
  3140  037B  07AE               	addwf	(mode2@temperature_raw+1),f
  3141  037C                     u3851:
  3142  037C  0826               	movf	2+(??_mode2+0)+0,w
  3143  037D  1103               	clrz
  3144  037E  1803               	skipnc
  3145  037F  3E01               	addlw	1
  3146  0380  1903               	skipnz
  3147  0381  2B83               	goto	u3852
  3148  0382  07AF               	addwf	(mode2@temperature_raw+2),f
  3149  0383                     u3852:
  3150  0383  0827               	movf	3+(??_mode2+0)+0,w
  3151  0384  1103               	clrz
  3152  0385  1803               	skipnc
  3153  0386  3E01               	addlw	1
  3154  0387  1903               	skipnz
  3155  0388  2B8A               	goto	u3853
  3156  0389  07B0               	addwf	(mode2@temperature_raw+3),f
  3157  038A                     u3853:
  3158                           
  3159                           	line	443
  3160                           	
  3161  038A                     l3461:	
  3162                           ;PR22.c: 443: temperature = (temperature_raw / 2048) - 4096;
  3163  038A  082D               	movf	(mode2@temperature_raw),w
  3164  038B  00A4               	movwf	(??_mode2+0)+0
  3165  038C  082E               	movf	(mode2@temperature_raw+1),w
  3166  038D  00A5               	movwf	((??_mode2+0)+0+1)
  3167  038E  082F               	movf	(mode2@temperature_raw+2),w
  3168  038F  00A6               	movwf	((??_mode2+0)+0+2)
  3169  0390  0830               	movf	(mode2@temperature_raw+3),w
  3170  0391  00A7               	movwf	((??_mode2+0)+0+3)
  3171  0392  300B               	movlw	0Bh
  3172  0393                     u3865:
  3173  0393  1003               	clrc
  3174  0394  0CA7               	rrf	(??_mode2+0)+3,f
  3175  0395  0CA6               	rrf	(??_mode2+0)+2,f
  3176  0396  0CA5               	rrf	(??_mode2+0)+1,f
  3177  0397  0CA4               	rrf	(??_mode2+0)+0,f
  3178  0398                     u3860:
  3179  0398  3EFF               	addlw	-1
  3180  0399  1D03               	skipz
  3181  039A  2B93               	goto	u3865
  3182  039B  0824               	movf	0+(??_mode2+0)+0,w
  3183  039C  00A8               	movwf	(??_mode2+4)+0
  3184  039D  0828               	movf	(??_mode2+4)+0,w
  3185  039E  00B1               	movwf	(mode2@temperature)
  3186                           	line	446
  3187                           	
  3188  039F                     l3463:	
  3189                           ;PR22.c: 446: lcd_goto(6);
  3190  039F  3006               	movlw	(06h)
  3191  03A0  120A  158A  2164   	fcall	_lcd_goto
              120A  118A         
  3192                           	line	447
  3193                           	
  3194  03A5                     l3465:	
  3195                           ;PR22.c: 447: if(capacitance >= 8191)
  3196  03A5  301F               	movlw	high(01FFFh)
  3197  03A6  1283               	bcf	status, 5	;RP0=0, select bank0
  3198  03A7  1303               	bcf	status, 6	;RP1=0, select bank0
  3199  03A8  0234               	subwf	(mode2@capacitance+1),w
  3200  03A9  30FF               	movlw	low(01FFFh)
  3201  03AA  1903               	skipnz
  3202  03AB  0233               	subwf	(mode2@capacitance),w
  3203  03AC  1C03               	skipc
  3204  03AD  2BAF               	goto	u3871
  3205  03AE  2BB0               	goto	u3870
  3206  03AF                     u3871:
  3207  03AF  2BB7               	goto	l3469
  3208  03B0                     u3870:
  3209                           	line	448
  3210                           	
  3211  03B0                     l3467:	
  3212                           ;PR22.c: 448: send_string("Saturated");
  3213  03B0  307F               	movlw	((STR_23-__stringbase))&0ffh
  3214  03B1  120A  158A  21CB   	fcall	_send_string
              120A  118A         
  3215  03B6  2C42               	goto	l3473
  3216                           	line	449
  3217                           	
  3218  03B7                     l608:	
  3219                           	line	451
  3220                           	
  3221  03B7                     l3469:	
  3222                           ;PR22.c: 449: else
  3223                           ;PR22.c: 450: {
  3224                           ;PR22.c: 451: send_char('0' + capacitance / 1000);
  3225  03B7  30E8               	movlw	low(03E8h)
  3226  03B8  00F6               	movwf	(?___lwdiv)
  3227  03B9  3003               	movlw	high(03E8h)
  3228  03BA  00F7               	movwf	((?___lwdiv))+1
  3229  03BB  1283               	bcf	status, 5	;RP0=0, select bank0
  3230  03BC  1303               	bcf	status, 6	;RP1=0, select bank0
  3231  03BD  0834               	movf	(mode2@capacitance+1),w
  3232  03BE  01F9               	clrf	1+(?___lwdiv)+02h
  3233  03BF  07F9               	addwf	1+(?___lwdiv)+02h
  3234  03C0  0833               	movf	(mode2@capacitance),w
  3235  03C1  01F8               	clrf	0+(?___lwdiv)+02h
  3236  03C2  07F8               	addwf	0+(?___lwdiv)+02h
  3237                           
  3238  03C3  120A  158A  2265   	fcall	___lwdiv
              120A  118A         
  3239  03C8  0876               	movf	(0+(?___lwdiv)),w
  3240  03C9  3E30               	addlw	030h
  3241  03CA  120A  158A  21A6   	fcall	_send_char
              120A  118A         
  3242                           	line	452
  3243                           ;PR22.c: 452: send_char('.');
  3244  03CF  302E               	movlw	(02Eh)
  3245  03D0  120A  158A  21A6   	fcall	_send_char
              120A  118A         
  3246                           	line	453
  3247                           ;PR22.c: 453: send_char('0' + (capacitance % 1000) / 100);
  3248  03D5  3064               	movlw	low(064h)
  3249  03D6  00F6               	movwf	(?___lwdiv)
  3250  03D7  3000               	movlw	high(064h)
  3251  03D8  00F7               	movwf	((?___lwdiv))+1
  3252  03D9  1283               	bcf	status, 5	;RP0=0, select bank0
  3253  03DA  1303               	bcf	status, 6	;RP1=0, select bank0
  3254  03DB  0834               	movf	(mode2@capacitance+1),w
  3255  03DC  01F3               	clrf	1+(?___lwmod)+02h
  3256  03DD  07F3               	addwf	1+(?___lwmod)+02h
  3257  03DE  0833               	movf	(mode2@capacitance),w
  3258  03DF  01F2               	clrf	0+(?___lwmod)+02h
  3259  03E0  07F2               	addwf	0+(?___lwmod)+02h
  3260                           
  3261  03E1  30E8               	movlw	low(03E8h)
  3262  03E2  00F0               	movwf	(?___lwmod)
  3263  03E3  3003               	movlw	high(03E8h)
  3264  03E4  00F1               	movwf	((?___lwmod))+1
  3265  03E5  120A  158A  2221   	fcall	___lwmod
              120A  118A         
  3266  03EA  0871               	movf	(1+(?___lwmod)),w
  3267  03EB  01F9               	clrf	1+(?___lwdiv)+02h
  3268  03EC  07F9               	addwf	1+(?___lwdiv)+02h
  3269  03ED  0870               	movf	(0+(?___lwmod)),w
  3270  03EE  01F8               	clrf	0+(?___lwdiv)+02h
  3271  03EF  07F8               	addwf	0+(?___lwdiv)+02h
  3272                           
  3273  03F0  120A  158A  2265   	fcall	___lwdiv
              120A  118A         
  3274  03F5  0876               	movf	(0+(?___lwdiv)),w
  3275  03F6  3E30               	addlw	030h
  3276  03F7  120A  158A  21A6   	fcall	_send_char
              120A  118A         
  3277                           	line	454
  3278                           ;PR22.c: 454: send_char('0' + (capacitance % 100) / 10);
  3279  03FC  300A               	movlw	low(0Ah)
  3280  03FD  00F6               	movwf	(?___lwdiv)
  3281  03FE  3000               	movlw	high(0Ah)
  3282  03FF  00F7               	movwf	((?___lwdiv))+1
  3283  0400  1283               	bcf	status, 5	;RP0=0, select bank0
  3284  0401  1303               	bcf	status, 6	;RP1=0, select bank0
  3285  0402  0834               	movf	(mode2@capacitance+1),w
  3286  0403  01F3               	clrf	1+(?___lwmod)+02h
  3287  0404  07F3               	addwf	1+(?___lwmod)+02h
  3288  0405  0833               	movf	(mode2@capacitance),w
  3289  0406  01F2               	clrf	0+(?___lwmod)+02h
  3290  0407  07F2               	addwf	0+(?___lwmod)+02h
  3291                           
  3292  0408  3064               	movlw	low(064h)
  3293  0409  00F0               	movwf	(?___lwmod)
  3294  040A  3000               	movlw	high(064h)
  3295  040B  00F1               	movwf	((?___lwmod))+1
  3296  040C  120A  158A  2221   	fcall	___lwmod
              120A  118A         
  3297  0411  0871               	movf	(1+(?___lwmod)),w
  3298  0412  01F9               	clrf	1+(?___lwdiv)+02h
  3299  0413  07F9               	addwf	1+(?___lwdiv)+02h
  3300  0414  0870               	movf	(0+(?___lwmod)),w
  3301  0415  01F8               	clrf	0+(?___lwdiv)+02h
  3302  0416  07F8               	addwf	0+(?___lwdiv)+02h
  3303                           
  3304  0417  120A  158A  2265   	fcall	___lwdiv
              120A  118A         
  3305  041C  0876               	movf	(0+(?___lwdiv)),w
  3306  041D  3E30               	addlw	030h
  3307  041E  120A  158A  21A6   	fcall	_send_char
              120A  118A         
  3308                           	line	455
  3309                           ;PR22.c: 455: send_char('0' + (capacitance % 10));
  3310  0423  300A               	movlw	low(0Ah)
  3311  0424  00F0               	movwf	(?___lwmod)
  3312  0425  3000               	movlw	high(0Ah)
  3313  0426  00F1               	movwf	((?___lwmod))+1
  3314  0427  1283               	bcf	status, 5	;RP0=0, select bank0
  3315  0428  1303               	bcf	status, 6	;RP1=0, select bank0
  3316  0429  0834               	movf	(mode2@capacitance+1),w
  3317  042A  01F3               	clrf	1+(?___lwmod)+02h
  3318  042B  07F3               	addwf	1+(?___lwmod)+02h
  3319  042C  0833               	movf	(mode2@capacitance),w
  3320  042D  01F2               	clrf	0+(?___lwmod)+02h
  3321  042E  07F2               	addwf	0+(?___lwmod)+02h
  3322                           
  3323  042F  120A  158A  2221   	fcall	___lwmod
              120A  118A         
  3324  0434  0870               	movf	(0+(?___lwmod)),w
  3325  0435  3E30               	addlw	030h
  3326  0436  120A  158A  21A6   	fcall	_send_char
              120A  118A         
  3327                           	line	456
  3328                           	
  3329  043B                     l3471:	
  3330                           ;PR22.c: 456: send_string("pF  ");
  3331  043B  30C4               	movlw	((STR_24-__stringbase))&0ffh
  3332  043C  120A  158A  21CB   	fcall	_send_string
              120A  118A         
  3333  0441  2C42               	goto	l3473
  3334                           	line	457
  3335                           	
  3336  0442                     l609:	
  3337                           	line	460
  3338                           	
  3339  0442                     l3473:	
  3340                           ;PR22.c: 457: }
  3341                           ;PR22.c: 460: lcd_goto(26);
  3342  0442  301A               	movlw	(01Ah)
  3343  0443  120A  158A  2164   	fcall	_lcd_goto
              120A  118A         
  3344                           	line	461
  3345                           	
  3346  0448                     l3475:	
  3347                           ;PR22.c: 461: send_char('0' + (temperature % 100) / 10);
  3348  0448  300A               	movlw	low(0Ah)
  3349  0449  00F7               	movwf	(?___awdiv)
  3350  044A  3000               	movlw	high(0Ah)
  3351  044B  00F8               	movwf	((?___awdiv))+1
  3352  044C  1283               	bcf	status, 5	;RP0=0, select bank0
  3353  044D  1303               	bcf	status, 6	;RP1=0, select bank0
  3354  044E  0831               	movf	(mode2@temperature),w
  3355  044F  00A4               	movwf	(??_mode2+0)+0
  3356  0450  01A5               	clrf	(??_mode2+0)+0+1
  3357  0451  0824               	movf	0+(??_mode2+0)+0,w
  3358  0452  00F2               	movwf	0+(?___awmod)+02h
  3359  0453  0825               	movf	1+(??_mode2+0)+0,w
  3360  0454  00F3               	movwf	1+(?___awmod)+02h
  3361  0455  3064               	movlw	low(064h)
  3362  0456  00F0               	movwf	(?___awmod)
  3363  0457  3000               	movlw	high(064h)
  3364  0458  00F1               	movwf	((?___awmod))+1
  3365  0459  120A  158A  23BC   	fcall	___awmod
              120A  118A         
  3366  045E  0871               	movf	(1+(?___awmod)),w
  3367  045F  01FA               	clrf	1+(?___awdiv)+02h
  3368  0460  07FA               	addwf	1+(?___awdiv)+02h
  3369  0461  0870               	movf	(0+(?___awmod)),w
  3370  0462  01F9               	clrf	0+(?___awdiv)+02h
  3371  0463  07F9               	addwf	0+(?___awdiv)+02h
  3372                           
  3373  0464  120A  118A  200B   	fcall	___awdiv
              120A  118A         
  3374  0469  0877               	movf	(0+(?___awdiv)),w
  3375  046A  3E30               	addlw	030h
  3376  046B  120A  158A  21A6   	fcall	_send_char
              120A  118A         
  3377                           	line	462
  3378                           	
  3379  0470                     l3477:	
  3380                           ;PR22.c: 462: send_char('0' + (temperature % 10));
  3381  0470  300A               	movlw	low(0Ah)
  3382  0471  00F0               	movwf	(?___awmod)
  3383  0472  3000               	movlw	high(0Ah)
  3384  0473  00F1               	movwf	((?___awmod))+1
  3385  0474  1283               	bcf	status, 5	;RP0=0, select bank0
  3386  0475  1303               	bcf	status, 6	;RP1=0, select bank0
  3387  0476  0831               	movf	(mode2@temperature),w
  3388  0477  00A4               	movwf	(??_mode2+0)+0
  3389  0478  01A5               	clrf	(??_mode2+0)+0+1
  3390  0479  0824               	movf	0+(??_mode2+0)+0,w
  3391  047A  00F2               	movwf	0+(?___awmod)+02h
  3392  047B  0825               	movf	1+(??_mode2+0)+0,w
  3393  047C  00F3               	movwf	1+(?___awmod)+02h
  3394  047D  120A  158A  23BC   	fcall	___awmod
              120A  118A         
  3395  0482  0870               	movf	(0+(?___awmod)),w
  3396  0483  3E30               	addlw	030h
  3397  0484  120A  158A  21A6   	fcall	_send_char
              120A  118A         
  3398                           	line	463
  3399                           	
  3400  0489                     l3479:	
  3401                           ;PR22.c: 463: send_char('C');
  3402  0489  3043               	movlw	(043h)
  3403  048A  120A  158A  21A6   	fcall	_send_char
              120A  118A         
  3404                           	line	465
  3405                           	
  3406  048F                     l3481:	
  3407                           ;PR22.c: 465: delay(10000);
  3408  048F  3000               	movlw	0
  3409  0490  00F3               	movwf	(?_delay+3)
  3410  0491  3000               	movlw	0
  3411  0492  00F2               	movwf	(?_delay+2)
  3412  0493  3027               	movlw	027h
  3413  0494  00F1               	movwf	(?_delay+1)
  3414  0495  3010               	movlw	010h
  3415  0496  00F0               	movwf	(?_delay)
  3416                           
  3417  0497  120A  158A  21F1   	fcall	_delay
              120A  118A         
  3418  049C  2C9D               	goto	l3483
  3419                           	line	466
  3420                           	
  3421  049D                     l604:	
  3422                           	line	409
  3423                           	
  3424  049D                     l3483:	
  3425  049D  1283               	bcf	status, 5	;RP0=0, select bank0
  3426  049E  1303               	bcf	status, 6	;RP1=0, select bank0
  3427  049F  1905               	btfsc	(42/8),(42)&7
  3428  04A0  2CA2               	goto	u3881
  3429  04A1  2CA3               	goto	u3880
  3430  04A2                     u3881:
  3431  04A2  2AA0               	goto	l3433
  3432  04A3                     u3880:
  3433  04A3  2CA4               	goto	l3485
  3434                           	
  3435  04A4                     l610:	
  3436                           	line	468
  3437                           	
  3438  04A4                     l3485:	
  3439                           ;PR22.c: 466: }
  3440                           ;PR22.c: 468: delay(10000);
  3441  04A4  3000               	movlw	0
  3442  04A5  00F3               	movwf	(?_delay+3)
  3443  04A6  3000               	movlw	0
  3444  04A7  00F2               	movwf	(?_delay+2)
  3445  04A8  3027               	movlw	027h
  3446  04A9  00F1               	movwf	(?_delay+1)
  3447  04AA  3010               	movlw	010h
  3448  04AB  00F0               	movwf	(?_delay)
  3449                           
  3450  04AC  120A  158A  21F1   	fcall	_delay
              120A  118A         
  3451                           	line	469
  3452                           ;PR22.c: 469: while(!RA2);
  3453  04B1  2CB2               	goto	l611
  3454                           	
  3455  04B2                     l612:	
  3456                           	
  3457  04B2                     l611:	
  3458  04B2  1283               	bcf	status, 5	;RP0=0, select bank0
  3459  04B3  1303               	bcf	status, 6	;RP1=0, select bank0
  3460  04B4  1D05               	btfss	(42/8),(42)&7
  3461  04B5  2CB7               	goto	u3891
  3462  04B6  2CB8               	goto	u3890
  3463  04B7                     u3891:
  3464  04B7  2CB2               	goto	l611
  3465  04B8                     u3890:
  3466  04B8  2CB9               	goto	l3487
  3467                           	
  3468  04B9                     l613:	
  3469                           	line	470
  3470                           	
  3471  04B9                     l3487:	
  3472                           ;PR22.c: 470: delay(10000);
  3473  04B9  3000               	movlw	0
  3474  04BA  00F3               	movwf	(?_delay+3)
  3475  04BB  3000               	movlw	0
  3476  04BC  00F2               	movwf	(?_delay+2)
  3477  04BD  3027               	movlw	027h
  3478  04BE  00F1               	movwf	(?_delay+1)
  3479  04BF  3010               	movlw	010h
  3480  04C0  00F0               	movwf	(?_delay)
  3481                           
  3482  04C1  120A  158A  21F1   	fcall	_delay
              120A  118A         
  3483                           	line	471
  3484                           	
  3485  04C6                     l602:	
  3486  04C6  0008               	return
  3487                           	opt stack 0
  3488                           GLOBAL	__end_of_mode2
  3489  04C7                     	__end_of_mode2:
  3490 ;; =============== function _mode2 ends ============
  3491                           
  3492                           	signat	_mode2,88
  3493                           	global	_mode1
  3494                           psect	text381,local,class=CODE,delta=2
  3495                           global __ptext381
  3496  04C7                     __ptext381:
  3497                           
  3498 ;; *************** function _mode1 *****************
  3499 ;; Defined at:
  3500 ;;		line 176 in file "C:\Users\Phang\Desktop\9.80\PR 22\PR22.c"
  3501 ;; Parameters:    Size  Location     Type
  3502 ;;		None
  3503 ;; Auto vars:     Size  Location     Type
  3504 ;;  result          2    2[BANK0 ] unsigned int 
  3505 ;;  submode         1    4[BANK0 ] unsigned char 
  3506 ;; Return value:  Size  Location     Type
  3507 ;;		None               void
  3508 ;; Registers used:
  3509 ;;		wreg, fsr0l, fsr0h, status,2, status,0, btemp+1, pclath, cstack
  3510 ;; Tracked objects:
  3511 ;;		On entry : 0/0
  3512 ;;		On exit  : 0/0
  3513 ;;		Unchanged: 0/0
  3514 ;; Data sizes:     COMMON   BANK0   BANK1   BANK3   BANK2
  3515 ;;      Params:         0       0       0       0       0
  3516 ;;      Locals:         0       3       0       0       0
  3517 ;;      Temps:          0       2       0       0       0
  3518 ;;      Totals:         0       5       0       0       0
  3519 ;;Total ram usage:        5 bytes
  3520 ;; Hardware stack levels used:    1
  3521 ;; Hardware stack levels required when called:    3
  3522 ;; This function calls:
  3523 ;;		_lcd_clr
  3524 ;;		_lcd_goto
  3525 ;;		_send_string
  3526 ;;		_delay
  3527 ;;		_i2c_start
  3528 ;;		___lwmod
  3529 ;;		___lwdiv
  3530 ;;		_send_char
  3531 ;; This function is called by:
  3532 ;;		_main
  3533 ;; This function uses a non-reentrant model
  3534 ;;
  3535                           psect	text381
  3536                           	file	"C:\Users\Phang\Desktop\9.80\PR 22\PR22.c"
  3537                           	line	176
  3538                           	global	__size_of_mode1
  3539  0339                     	__size_of_mode1	equ	__end_of_mode1-_mode1
  3540                           	
  3541  04C7                     _mode1:	
  3542                           	opt	stack 4
  3543                           ; Regs used in _mode1: [wreg-fsr0h+status,2+status,0+btemp+1+pclath+cstack]
  3544                           	line	178
  3545                           	
  3546  04C7                     l3243:	
  3547                           ;PR22.c: 177: unsigned int result;
  3548                           ;PR22.c: 178: unsigned char submode = 1;
  3549  04C7  1283               	bcf	status, 5	;RP0=0, select bank0
  3550  04C8  1303               	bcf	status, 6	;RP1=0, select bank0
  3551  04C9  01A4               	clrf	(mode1@submode)
  3552  04CA  1403               	bsf	status,0
  3553  04CB  0DA4               	rlf	(mode1@submode),f
  3554                           	line	180
  3555                           	
  3556  04CC                     l3245:	
  3557                           ;PR22.c: 180: lcd_clr();
  3558  04CC  120A  158A  2150   	fcall	_lcd_clr
              120A  118A         
  3559  04D1  2CD2               	goto	l3247
  3560                           	line	181
  3561                           ;PR22.c: 181: while(1)
  3562                           	
  3563  04D2                     l554:	
  3564                           	line	183
  3565                           	
  3566  04D2                     l3247:	
  3567                           ;PR22.c: 182: {
  3568                           ;PR22.c: 183: lcd_goto(20);
  3569  04D2  3014               	movlw	(014h)
  3570  04D3  120A  158A  2164   	fcall	_lcd_goto
              120A  118A         
  3571                           	line	184
  3572                           	
  3573  04D8                     l3249:	
  3574                           ;PR22.c: 184: send_string("OK");
  3575  04D8  30DC               	movlw	((STR_8-__stringbase))&0ffh
  3576  04D9  120A  158A  21CB   	fcall	_send_string
              120A  118A         
  3577                           	line	186
  3578                           	
  3579  04DE                     l3251:	
  3580                           ;PR22.c: 186: if(!RA0)
  3581  04DE  1283               	bcf	status, 5	;RP0=0, select bank0
  3582  04DF  1303               	bcf	status, 6	;RP1=0, select bank0
  3583  04E0  1805               	btfsc	(40/8),(40)&7
  3584  04E1  2CE3               	goto	u3591
  3585  04E2  2CE4               	goto	u3590
  3586  04E3                     u3591:
  3587  04E3  2CEE               	goto	l555
  3588  04E4                     u3590:
  3589                           	line	189
  3590                           	
  3591  04E4                     l3253:	
  3592                           ;PR22.c: 187: {
  3593                           ;PR22.c: 189: if(submode > 1)
  3594  04E4  3002               	movlw	(02h)
  3595  04E5  0224               	subwf	(mode1@submode),w
  3596  04E6  1C03               	skipc
  3597  04E7  2CE9               	goto	u3601
  3598  04E8  2CEA               	goto	u3600
  3599  04E9                     u3601:
  3600  04E9  2CFF               	goto	l3261
  3601  04EA                     u3600:
  3602                           	line	190
  3603                           	
  3604  04EA                     l3255:	
  3605                           ;PR22.c: 190: submode--;
  3606  04EA  3001               	movlw	low(01h)
  3607  04EB  02A4               	subwf	(mode1@submode),f
  3608  04EC  2CFF               	goto	l3261
  3609                           	
  3610  04ED                     l556:	
  3611                           	line	191
  3612                           ;PR22.c: 191: }
  3613  04ED  2CFF               	goto	l3261
  3614                           	line	192
  3615                           	
  3616  04EE                     l555:	
  3617                           ;PR22.c: 192: else if(!RA1)
  3618  04EE  1885               	btfsc	(41/8),(41)&7
  3619  04EF  2CF1               	goto	u3611
  3620  04F0  2CF2               	goto	u3610
  3621  04F1                     u3611:
  3622  04F1  2CFF               	goto	l3261
  3623  04F2                     u3610:
  3624                           	line	195
  3625                           	
  3626  04F2                     l3257:	
  3627                           ;PR22.c: 193: {
  3628                           ;PR22.c: 195: if(submode < 4)
  3629  04F2  3004               	movlw	(04h)
  3630  04F3  0224               	subwf	(mode1@submode),w
  3631  04F4  1803               	skipnc
  3632  04F5  2CF7               	goto	u3621
  3633  04F6  2CF8               	goto	u3620
  3634  04F7                     u3621:
  3635  04F7  2CFF               	goto	l3261
  3636  04F8                     u3620:
  3637                           	line	196
  3638                           	
  3639  04F8                     l3259:	
  3640                           ;PR22.c: 196: submode++;
  3641  04F8  3001               	movlw	(01h)
  3642  04F9  00A0               	movwf	(??_mode1+0)+0
  3643  04FA  0820               	movf	(??_mode1+0)+0,w
  3644  04FB  07A4               	addwf	(mode1@submode),f
  3645  04FC  2CFF               	goto	l3261
  3646                           	
  3647  04FD                     l559:	
  3648  04FD  2CFF               	goto	l3261
  3649                           	line	197
  3650                           	
  3651  04FE                     l558:	
  3652  04FE  2CFF               	goto	l3261
  3653                           	line	200
  3654                           	
  3655  04FF                     l557:	
  3656                           	
  3657  04FF                     l3261:	
  3658                           ;PR22.c: 197: }
  3659                           ;PR22.c: 200: lcd_goto(0);
  3660  04FF  3000               	movlw	(0)
  3661  0500  120A  158A  2164   	fcall	_lcd_goto
              120A  118A         
  3662                           	line	201
  3663                           ;PR22.c: 201: switch(submode)
  3664  0505  2D23               	goto	l3273
  3665                           	line	203
  3666                           ;PR22.c: 202: {
  3667                           ;PR22.c: 203: case 1 : send_string("Heading Output?");
  3668                           	
  3669  0506                     l561:	
  3670                           	
  3671  0506                     l3263:	
  3672  0506  3053               	movlw	((STR_9-__stringbase))&0ffh
  3673  0507  120A  158A  21CB   	fcall	_send_string
              120A  118A         
  3674                           	line	204
  3675                           ;PR22.c: 204: break;
  3676  050C  2D33               	goto	l562
  3677                           	line	206
  3678                           ;PR22.c: 206: case 2 : send_string("Calibration?   ");
  3679                           	
  3680  050D                     l563:	
  3681                           	
  3682  050D                     l3265:	
  3683  050D  3033               	movlw	((STR_10-__stringbase))&0ffh
  3684  050E  120A  158A  21CB   	fcall	_send_string
              120A  118A         
  3685                           	line	207
  3686                           ;PR22.c: 207: break;
  3687  0513  2D33               	goto	l562
  3688                           	line	209
  3689                           ;PR22.c: 209: case 3 : send_string("Reset Offset?  ");
  3690                           	
  3691  0514                     l564:	
  3692                           	
  3693  0514                     l3267:	
  3694  0514  3043               	movlw	((STR_11-__stringbase))&0ffh
  3695  0515  120A  158A  21CB   	fcall	_send_string
              120A  118A         
  3696                           	line	210
  3697                           ;PR22.c: 210: break;
  3698  051A  2D33               	goto	l562
  3699                           	line	212
  3700                           ;PR22.c: 212: case 4 : send_string("Exit?          ");
  3701                           	
  3702  051B                     l565:	
  3703                           	
  3704  051B                     l3269:	
  3705  051B  3023               	movlw	((STR_12-__stringbase))&0ffh
  3706  051C  120A  158A  21CB   	fcall	_send_string
              120A  118A         
  3707                           	line	213
  3708                           ;PR22.c: 213: break;
  3709  0521  2D33               	goto	l562
  3710                           	line	214
  3711                           	
  3712  0522                     l3271:	
  3713                           ;PR22.c: 214: }
  3714  0522  2D33               	goto	l562
  3715                           	line	201
  3716                           	
  3717  0523                     l560:	
  3718                           	
  3719  0523                     l3273:	
  3720  0523  1283               	bcf	status, 5	;RP0=0, select bank0
  3721  0524  1303               	bcf	status, 6	;RP1=0, select bank0
  3722  0525  0824               	movf	(mode1@submode),w
  3723                           	; Switch size 1, requested type "space"
  3724                           ; Number of cases is 4, Range of values is 1 to 4
  3725                           ; switch strategies available:
  3726                           ; Name         Bytes Cycles
  3727                           ; simple_byte    13     7 (average)
  3728                           ; direct_byte    34    22 (fixed)
  3729                           ;	Chosen strategy is simple_byte
  3730                           
  3731  0526  3A01               	xorlw	1^0	; case 1
  3732  0527  1903               	skipnz
  3733  0528  2D06               	goto	l3263
  3734  0529  3A03               	xorlw	2^1	; case 2
  3735  052A  1903               	skipnz
  3736  052B  2D0D               	goto	l3265
  3737  052C  3A01               	xorlw	3^2	; case 3
  3738  052D  1903               	skipnz
  3739  052E  2D14               	goto	l3267
  3740  052F  3A07               	xorlw	4^3	; case 4
  3741  0530  1903               	skipnz
  3742  0531  2D1B               	goto	l3269
  3743  0532  2D33               	goto	l562
  3744                           
  3745                           	line	214
  3746                           	
  3747  0533                     l562:	
  3748                           	line	216
  3749                           ;PR22.c: 216: if(!RA2)
  3750  0533  1283               	bcf	status, 5	;RP0=0, select bank0
  3751  0534  1303               	bcf	status, 6	;RP1=0, select bank0
  3752  0535  1905               	btfsc	(42/8),(42)&7
  3753  0536  2D38               	goto	u3631
  3754  0537  2D39               	goto	u3630
  3755  0538                     u3631:
  3756  0538  2FF0               	goto	l3383
  3757  0539                     u3630:
  3758                           	line	218
  3759                           	
  3760  0539                     l3275:	
  3761                           ;PR22.c: 217: {
  3762                           ;PR22.c: 218: delay(10000);
  3763  0539  3000               	movlw	0
  3764  053A  00F3               	movwf	(?_delay+3)
  3765  053B  3000               	movlw	0
  3766  053C  00F2               	movwf	(?_delay+2)
  3767  053D  3027               	movlw	027h
  3768  053E  00F1               	movwf	(?_delay+1)
  3769  053F  3010               	movlw	010h
  3770  0540  00F0               	movwf	(?_delay)
  3771                           
  3772  0541  120A  158A  21F1   	fcall	_delay
              120A  118A         
  3773                           	line	219
  3774                           ;PR22.c: 219: while(!RA2);
  3775  0546  2D47               	goto	l567
  3776                           	
  3777  0547                     l568:	
  3778                           	
  3779  0547                     l567:	
  3780  0547  1283               	bcf	status, 5	;RP0=0, select bank0
  3781  0548  1303               	bcf	status, 6	;RP1=0, select bank0
  3782  0549  1D05               	btfss	(42/8),(42)&7
  3783  054A  2D4C               	goto	u3641
  3784  054B  2D4D               	goto	u3640
  3785  054C                     u3641:
  3786  054C  2D47               	goto	l567
  3787  054D                     u3640:
  3788  054D  2D4E               	goto	l3277
  3789                           	
  3790  054E                     l569:	
  3791                           	line	220
  3792                           	
  3793  054E                     l3277:	
  3794                           ;PR22.c: 220: delay(10000);
  3795  054E  3000               	movlw	0
  3796  054F  00F3               	movwf	(?_delay+3)
  3797  0550  3000               	movlw	0
  3798  0551  00F2               	movwf	(?_delay+2)
  3799  0552  3027               	movlw	027h
  3800  0553  00F1               	movwf	(?_delay+1)
  3801  0554  3010               	movlw	010h
  3802  0555  00F0               	movwf	(?_delay)
  3803                           
  3804  0556  120A  158A  21F1   	fcall	_delay
              120A  118A         
  3805                           	line	222
  3806                           ;PR22.c: 222: lcd_clr();
  3807  055B  120A  158A  2150   	fcall	_lcd_clr
              120A  118A         
  3808                           	line	223
  3809                           ;PR22.c: 223: lcd_goto(0);
  3810  0560  3000               	movlw	(0)
  3811  0561  120A  158A  2164   	fcall	_lcd_goto
              120A  118A         
  3812                           	line	225
  3813                           ;PR22.c: 225: switch(submode)
  3814  0566  2FDF               	goto	l3381
  3815                           	line	227
  3816                           ;PR22.c: 226: {
  3817                           ;PR22.c: 227: case 1 :
  3818                           	
  3819  0567                     l571:	
  3820                           	line	229
  3821                           	
  3822  0567                     l3279:	
  3823                           ;PR22.c: 229: send_string("Heading:");
  3824  0567  3089               	movlw	((STR_13-__stringbase))&0ffh
  3825  0568  120A  158A  21CB   	fcall	_send_string
              120A  118A         
  3826                           	line	230
  3827                           	
  3828  056D                     l3281:	
  3829                           ;PR22.c: 230: lcd_goto(20);
  3830  056D  3014               	movlw	(014h)
  3831  056E  120A  158A  2164   	fcall	_lcd_goto
              120A  118A         
  3832                           	line	231
  3833                           	
  3834  0573                     l3283:	
  3835                           ;PR22.c: 231: send_string("Exit");
  3836  0573  30D3               	movlw	((STR_14-__stringbase))&0ffh
  3837  0574  120A  158A  21CB   	fcall	_send_string
              120A  118A         
  3838                           	line	234
  3839                           	
  3840  0579                     l3285:	
  3841                           ;PR22.c: 234: i2c_master_data[0] = 'O';
  3842  0579  304F               	movlw	(04Fh)
  3843  057A  1283               	bcf	status, 5	;RP0=0, select bank0
  3844  057B  1303               	bcf	status, 6	;RP1=0, select bank0
  3845  057C  00A0               	movwf	(??_mode1+0)+0
  3846  057D  0820               	movf	(??_mode1+0)+0,w
  3847  057E  00B7               	movwf	(_i2c_master_data)
  3848                           	line	235
  3849                           	
  3850  057F                     l3287:	
  3851                           ;PR22.c: 235: i2c_start(0x42, 1, 0);
  3852  057F  01F0               	clrf	(?_i2c_start)
  3853  0580  1403               	bsf	status,0
  3854  0581  0DF0               	rlf	(?_i2c_start),f
  3855  0582  3000               	movlw	low(0)
  3856  0583  00F1               	movwf	0+(?_i2c_start)+01h
  3857  0584  3000               	movlw	high(0)
  3858  0585  00F2               	movwf	(0+(?_i2c_start)+01h)+1
  3859  0586  3042               	movlw	(042h)
  3860  0587  120A  158A  2494   	fcall	_i2c_start
              120A  118A         
  3861                           	line	236
  3862                           	
  3863  058C                     l3289:	
  3864                           ;PR22.c: 236: delay(10000);
  3865  058C  3000               	movlw	0
  3866  058D  00F3               	movwf	(?_delay+3)
  3867  058E  3000               	movlw	0
  3868  058F  00F2               	movwf	(?_delay+2)
  3869  0590  3027               	movlw	027h
  3870  0591  00F1               	movwf	(?_delay+1)
  3871  0592  3010               	movlw	010h
  3872  0593  00F0               	movwf	(?_delay)
  3873                           
  3874  0594  120A  158A  21F1   	fcall	_delay
              120A  118A         
  3875                           	line	238
  3876                           ;PR22.c: 238: while(RA2)
  3877  0599  2E83               	goto	l3315
  3878                           	
  3879  059A                     l573:	
  3880                           	line	241
  3881                           	
  3882  059A                     l3291:	
  3883                           ;PR22.c: 239: {
  3884                           ;PR22.c: 241: i2c_master_data[0] = 'A';
  3885  059A  3041               	movlw	(041h)
  3886  059B  1283               	bcf	status, 5	;RP0=0, select bank0
  3887  059C  1303               	bcf	status, 6	;RP1=0, select bank0
  3888  059D  00A0               	movwf	(??_mode1+0)+0
  3889  059E  0820               	movf	(??_mode1+0)+0,w
  3890  059F  00B7               	movwf	(_i2c_master_data)
  3891                           	line	242
  3892                           	
  3893  05A0                     l3293:	
  3894                           ;PR22.c: 242: i2c_start(0x42, 1, 0);
  3895  05A0  01F0               	clrf	(?_i2c_start)
  3896  05A1  1403               	bsf	status,0
  3897  05A2  0DF0               	rlf	(?_i2c_start),f
  3898  05A3  3000               	movlw	low(0)
  3899  05A4  00F1               	movwf	0+(?_i2c_start)+01h
  3900  05A5  3000               	movlw	high(0)
  3901  05A6  00F2               	movwf	(0+(?_i2c_start)+01h)+1
  3902  05A7  3042               	movlw	(042h)
  3903  05A8  120A  158A  2494   	fcall	_i2c_start
              120A  118A         
  3904                           	line	243
  3905                           	
  3906  05AD                     l3295:	
  3907                           ;PR22.c: 243: delay(10000);
  3908  05AD  3000               	movlw	0
  3909  05AE  00F3               	movwf	(?_delay+3)
  3910  05AF  3000               	movlw	0
  3911  05B0  00F2               	movwf	(?_delay+2)
  3912  05B1  3027               	movlw	027h
  3913  05B2  00F1               	movwf	(?_delay+1)
  3914  05B3  3010               	movlw	010h
  3915  05B4  00F0               	movwf	(?_delay)
  3916                           
  3917  05B5  120A  158A  21F1   	fcall	_delay
              120A  118A         
  3918                           	line	245
  3919                           	
  3920  05BA                     l3297:	
  3921                           ;PR22.c: 245: i2c_start(0x42, 2, 1);
  3922  05BA  3002               	movlw	(02h)
  3923  05BB  1283               	bcf	status, 5	;RP0=0, select bank0
  3924  05BC  1303               	bcf	status, 6	;RP1=0, select bank0
  3925  05BD  00A0               	movwf	(??_mode1+0)+0
  3926  05BE  0820               	movf	(??_mode1+0)+0,w
  3927  05BF  00F0               	movwf	(?_i2c_start)
  3928  05C0  3001               	movlw	low(01h)
  3929  05C1  00F1               	movwf	0+(?_i2c_start)+01h
  3930  05C2  3000               	movlw	high(01h)
  3931  05C3  00F2               	movwf	(0+(?_i2c_start)+01h)+1
  3932  05C4  3042               	movlw	(042h)
  3933  05C5  120A  158A  2494   	fcall	_i2c_start
              120A  118A         
  3934                           	line	247
  3935                           	
  3936  05CA                     l3299:	
  3937                           ;PR22.c: 247: lcd_goto(9);
  3938  05CA  3009               	movlw	(09h)
  3939  05CB  120A  158A  2164   	fcall	_lcd_goto
              120A  118A         
  3940                           	line	250
  3941                           	
  3942  05D0                     l3301:	
  3943                           ;PR22.c: 250: result = (i2c_master_rcvb[0] << 8) + i2c_master_rcvb[1];
  3944  05D0  1283               	bcf	status, 5	;RP0=0, select bank0
  3945  05D1  1303               	bcf	status, 6	;RP1=0, select bank0
  3946  05D2  083E               	movf	(_i2c_master_rcvb),w
  3947  05D3  00A0               	movwf	(??_mode1+0)+0
  3948  05D4  01A1               	clrf	(??_mode1+0)+0+1
  3949  05D5  3008               	movlw	08h
  3950  05D6  00FF               	movwf	btemp+1
  3951  05D7                     u3655:
  3952  05D7  1003               	clrc
  3953  05D8  0DA0               	rlf	(??_mode1+0)+0,f
  3954  05D9  0DA1               	rlf	(??_mode1+0)+1,f
  3955  05DA  0BFF               	decfsz	btemp+1,f
  3956  05DB  2DD7               	goto	u3655
  3957  05DC  083F               	movf	0+(_i2c_master_rcvb)+01h,w
  3958  05DD  0720               	addwf	0+(??_mode1+0)+0,w
  3959  05DE  00A2               	movwf	(mode1@result)
  3960  05DF  3000               	movlw	0
  3961  05E0  1803               	skipnc
  3962  05E1  3001               	movlw	1
  3963  05E2  0721               	addwf	1+(??_mode1+0)+0,w
  3964  05E3  00A3               	movwf	1+(mode1@result)
  3965                           	line	253
  3966                           	
  3967  05E4                     l3303:	
  3968                           ;PR22.c: 253: send_char('0' + (result % 10000) / 1000);
  3969  05E4  30E8               	movlw	low(03E8h)
  3970  05E5  00F6               	movwf	(?___lwdiv)
  3971  05E6  3003               	movlw	high(03E8h)
  3972  05E7  00F7               	movwf	((?___lwdiv))+1
  3973  05E8  0823               	movf	(mode1@result+1),w
  3974  05E9  01F3               	clrf	1+(?___lwmod)+02h
  3975  05EA  07F3               	addwf	1+(?___lwmod)+02h
  3976  05EB  0822               	movf	(mode1@result),w
  3977  05EC  01F2               	clrf	0+(?___lwmod)+02h
  3978  05ED  07F2               	addwf	0+(?___lwmod)+02h
  3979                           
  3980  05EE  3010               	movlw	low(02710h)
  3981  05EF  00F0               	movwf	(?___lwmod)
  3982  05F0  3027               	movlw	high(02710h)
  3983  05F1  00F1               	movwf	((?___lwmod))+1
  3984  05F2  120A  158A  2221   	fcall	___lwmod
              120A  118A         
  3985  05F7  0871               	movf	(1+(?___lwmod)),w
  3986  05F8  01F9               	clrf	1+(?___lwdiv)+02h
  3987  05F9  07F9               	addwf	1+(?___lwdiv)+02h
  3988  05FA  0870               	movf	(0+(?___lwmod)),w
  3989  05FB  01F8               	clrf	0+(?___lwdiv)+02h
  3990  05FC  07F8               	addwf	0+(?___lwdiv)+02h
  3991                           
  3992  05FD  120A  158A  2265   	fcall	___lwdiv
              120A  118A         
  3993  0602  0876               	movf	(0+(?___lwdiv)),w
  3994  0603  3E30               	addlw	030h
  3995  0604  120A  158A  21A6   	fcall	_send_char
              120A  118A         
  3996                           	line	254
  3997                           	
  3998  0609                     l3305:	
  3999                           ;PR22.c: 254: send_char('0' + (result % 1000) / 100);
  4000  0609  3064               	movlw	low(064h)
  4001  060A  00F6               	movwf	(?___lwdiv)
  4002  060B  3000               	movlw	high(064h)
  4003  060C  00F7               	movwf	((?___lwdiv))+1
  4004  060D  1283               	bcf	status, 5	;RP0=0, select bank0
  4005  060E  1303               	bcf	status, 6	;RP1=0, select bank0
  4006  060F  0823               	movf	(mode1@result+1),w
  4007  0610  01F3               	clrf	1+(?___lwmod)+02h
  4008  0611  07F3               	addwf	1+(?___lwmod)+02h
  4009  0612  0822               	movf	(mode1@result),w
  4010  0613  01F2               	clrf	0+(?___lwmod)+02h
  4011  0614  07F2               	addwf	0+(?___lwmod)+02h
  4012                           
  4013  0615  30E8               	movlw	low(03E8h)
  4014  0616  00F0               	movwf	(?___lwmod)
  4015  0617  3003               	movlw	high(03E8h)
  4016  0618  00F1               	movwf	((?___lwmod))+1
  4017  0619  120A  158A  2221   	fcall	___lwmod
              120A  118A         
  4018  061E  0871               	movf	(1+(?___lwmod)),w
  4019  061F  01F9               	clrf	1+(?___lwdiv)+02h
  4020  0620  07F9               	addwf	1+(?___lwdiv)+02h
  4021  0621  0870               	movf	(0+(?___lwmod)),w
  4022  0622  01F8               	clrf	0+(?___lwdiv)+02h
  4023  0623  07F8               	addwf	0+(?___lwdiv)+02h
  4024                           
  4025  0624  120A  158A  2265   	fcall	___lwdiv
              120A  118A         
  4026  0629  0876               	movf	(0+(?___lwdiv)),w
  4027  062A  3E30               	addlw	030h
  4028  062B  120A  158A  21A6   	fcall	_send_char
              120A  118A         
  4029                           	line	255
  4030                           	
  4031  0630                     l3307:	
  4032                           ;PR22.c: 255: send_char('0' + (result % 100) / 10);
  4033  0630  300A               	movlw	low(0Ah)
  4034  0631  00F6               	movwf	(?___lwdiv)
  4035  0632  3000               	movlw	high(0Ah)
  4036  0633  00F7               	movwf	((?___lwdiv))+1
  4037  0634  1283               	bcf	status, 5	;RP0=0, select bank0
  4038  0635  1303               	bcf	status, 6	;RP1=0, select bank0
  4039  0636  0823               	movf	(mode1@result+1),w
  4040  0637  01F3               	clrf	1+(?___lwmod)+02h
  4041  0638  07F3               	addwf	1+(?___lwmod)+02h
  4042  0639  0822               	movf	(mode1@result),w
  4043  063A  01F2               	clrf	0+(?___lwmod)+02h
  4044  063B  07F2               	addwf	0+(?___lwmod)+02h
  4045                           
  4046  063C  3064               	movlw	low(064h)
  4047  063D  00F0               	movwf	(?___lwmod)
  4048  063E  3000               	movlw	high(064h)
  4049  063F  00F1               	movwf	((?___lwmod))+1
  4050  0640  120A  158A  2221   	fcall	___lwmod
              120A  118A         
  4051  0645  0871               	movf	(1+(?___lwmod)),w
  4052  0646  01F9               	clrf	1+(?___lwdiv)+02h
  4053  0647  07F9               	addwf	1+(?___lwdiv)+02h
  4054  0648  0870               	movf	(0+(?___lwmod)),w
  4055  0649  01F8               	clrf	0+(?___lwdiv)+02h
  4056  064A  07F8               	addwf	0+(?___lwdiv)+02h
  4057                           
  4058  064B  120A  158A  2265   	fcall	___lwdiv
              120A  118A         
  4059  0650  0876               	movf	(0+(?___lwdiv)),w
  4060  0651  3E30               	addlw	030h
  4061  0652  120A  158A  21A6   	fcall	_send_char
              120A  118A         
  4062                           	line	256
  4063                           	
  4064  0657                     l3309:	
  4065                           ;PR22.c: 256: send_char('.');
  4066  0657  302E               	movlw	(02Eh)
  4067  0658  120A  158A  21A6   	fcall	_send_char
              120A  118A         
  4068                           	line	257
  4069                           	
  4070  065D                     l3311:	
  4071                           ;PR22.c: 257: send_char('0' + (result % 10));
  4072  065D  300A               	movlw	low(0Ah)
  4073  065E  00F0               	movwf	(?___lwmod)
  4074  065F  3000               	movlw	high(0Ah)
  4075  0660  00F1               	movwf	((?___lwmod))+1
  4076  0661  1283               	bcf	status, 5	;RP0=0, select bank0
  4077  0662  1303               	bcf	status, 6	;RP1=0, select bank0
  4078  0663  0823               	movf	(mode1@result+1),w
  4079  0664  01F3               	clrf	1+(?___lwmod)+02h
  4080  0665  07F3               	addwf	1+(?___lwmod)+02h
  4081  0666  0822               	movf	(mode1@result),w
  4082  0667  01F2               	clrf	0+(?___lwmod)+02h
  4083  0668  07F2               	addwf	0+(?___lwmod)+02h
  4084                           
  4085  0669  120A  158A  2221   	fcall	___lwmod
              120A  118A         
  4086  066E  0870               	movf	(0+(?___lwmod)),w
  4087  066F  3E30               	addlw	030h
  4088  0670  120A  158A  21A6   	fcall	_send_char
              120A  118A         
  4089                           	line	258
  4090                           	
  4091  0675                     l3313:	
  4092                           ;PR22.c: 258: delay(10000);
  4093  0675  3000               	movlw	0
  4094  0676  00F3               	movwf	(?_delay+3)
  4095  0677  3000               	movlw	0
  4096  0678  00F2               	movwf	(?_delay+2)
  4097  0679  3027               	movlw	027h
  4098  067A  00F1               	movwf	(?_delay+1)
  4099  067B  3010               	movlw	010h
  4100  067C  00F0               	movwf	(?_delay)
  4101                           
  4102  067D  120A  158A  21F1   	fcall	_delay
              120A  118A         
  4103  0682  2E83               	goto	l3315
  4104                           	line	259
  4105                           	
  4106  0683                     l572:	
  4107                           	line	238
  4108                           	
  4109  0683                     l3315:	
  4110  0683  1283               	bcf	status, 5	;RP0=0, select bank0
  4111  0684  1303               	bcf	status, 6	;RP1=0, select bank0
  4112  0685  1905               	btfsc	(42/8),(42)&7
  4113  0686  2E88               	goto	u3661
  4114  0687  2E89               	goto	u3660
  4115  0688                     u3661:
  4116  0688  2D9A               	goto	l3291
  4117  0689                     u3660:
  4118  0689  2E8A               	goto	l3317
  4119                           	
  4120  068A                     l574:	
  4121                           	line	261
  4122                           	
  4123  068A                     l3317:	
  4124                           ;PR22.c: 259: }
  4125                           ;PR22.c: 261: delay(10000);
  4126  068A  3000               	movlw	0
  4127  068B  00F3               	movwf	(?_delay+3)
  4128  068C  3000               	movlw	0
  4129  068D  00F2               	movwf	(?_delay+2)
  4130  068E  3027               	movlw	027h
  4131  068F  00F1               	movwf	(?_delay+1)
  4132  0690  3010               	movlw	010h
  4133  0691  00F0               	movwf	(?_delay)
  4134                           
  4135  0692  120A  158A  21F1   	fcall	_delay
              120A  118A         
  4136                           	line	262
  4137                           ;PR22.c: 262: while(!RA2);
  4138  0697  2E98               	goto	l575
  4139                           	
  4140  0698                     l576:	
  4141                           	
  4142  0698                     l575:	
  4143  0698  1283               	bcf	status, 5	;RP0=0, select bank0
  4144  0699  1303               	bcf	status, 6	;RP1=0, select bank0
  4145  069A  1D05               	btfss	(42/8),(42)&7
  4146  069B  2E9D               	goto	u3671
  4147  069C  2E9E               	goto	u3670
  4148  069D                     u3671:
  4149  069D  2E98               	goto	l575
  4150  069E                     u3670:
  4151  069E  2E9F               	goto	l3319
  4152                           	
  4153  069F                     l577:	
  4154                           	line	263
  4155                           	
  4156  069F                     l3319:	
  4157                           ;PR22.c: 263: delay(10000);
  4158  069F  3000               	movlw	0
  4159  06A0  00F3               	movwf	(?_delay+3)
  4160  06A1  3000               	movlw	0
  4161  06A2  00F2               	movwf	(?_delay+2)
  4162  06A3  3027               	movlw	027h
  4163  06A4  00F1               	movwf	(?_delay+1)
  4164  06A5  3010               	movlw	010h
  4165  06A6  00F0               	movwf	(?_delay)
  4166                           
  4167  06A7  120A  158A  21F1   	fcall	_delay
              120A  118A         
  4168                           	line	265
  4169                           ;PR22.c: 265: lcd_clr();
  4170  06AC  120A  158A  2150   	fcall	_lcd_clr
              120A  118A         
  4171                           	line	266
  4172                           ;PR22.c: 266: break;
  4173  06B1  2FF0               	goto	l3383
  4174                           	line	268
  4175                           ;PR22.c: 268: case 2 :
  4176                           	
  4177  06B2                     l579:	
  4178                           	line	270
  4179                           	
  4180  06B2                     l3321:	
  4181                           ;PR22.c: 270: lcd_clr();
  4182  06B2  120A  158A  2150   	fcall	_lcd_clr
              120A  118A         
  4183                           	line	271
  4184                           ;PR22.c: 271: lcd_goto(0);
  4185  06B7  3000               	movlw	(0)
  4186  06B8  120A  158A  2164   	fcall	_lcd_goto
              120A  118A         
  4187                           	line	272
  4188                           	
  4189  06BD                     l3323:	
  4190                           ;PR22.c: 272: send_string("Calibrating...");
  4191  06BD  3063               	movlw	((STR_15-__stringbase))&0ffh
  4192  06BE  120A  158A  21CB   	fcall	_send_string
              120A  118A         
  4193                           	line	273
  4194                           	
  4195  06C3                     l3325:	
  4196                           ;PR22.c: 273: lcd_goto(20);
  4197  06C3  3014               	movlw	(014h)
  4198  06C4  120A  158A  2164   	fcall	_lcd_goto
              120A  118A         
  4199                           	line	274
  4200                           ;PR22.c: 274: send_string("Exit");
  4201  06C9  30D3               	movlw	((STR_16-__stringbase))&0ffh
  4202  06CA  120A  158A  21CB   	fcall	_send_string
              120A  118A         
  4203                           	line	277
  4204                           	
  4205  06CF                     l3327:	
  4206                           ;PR22.c: 277: i2c_master_data[0] = 'C';
  4207  06CF  3043               	movlw	(043h)
  4208  06D0  1283               	bcf	status, 5	;RP0=0, select bank0
  4209  06D1  1303               	bcf	status, 6	;RP1=0, select bank0
  4210  06D2  00A0               	movwf	(??_mode1+0)+0
  4211  06D3  0820               	movf	(??_mode1+0)+0,w
  4212  06D4  00B7               	movwf	(_i2c_master_data)
  4213                           	line	278
  4214                           	
  4215  06D5                     l3329:	
  4216                           ;PR22.c: 278: i2c_start(0x42, 1, 0);
  4217  06D5  01F0               	clrf	(?_i2c_start)
  4218  06D6  1403               	bsf	status,0
  4219  06D7  0DF0               	rlf	(?_i2c_start),f
  4220  06D8  3000               	movlw	low(0)
  4221  06D9  00F1               	movwf	0+(?_i2c_start)+01h
  4222  06DA  3000               	movlw	high(0)
  4223  06DB  00F2               	movwf	(0+(?_i2c_start)+01h)+1
  4224  06DC  3042               	movlw	(042h)
  4225  06DD  120A  158A  2494   	fcall	_i2c_start
              120A  118A         
  4226                           	line	280
  4227                           ;PR22.c: 280: while(RA2);
  4228  06E2  2EE3               	goto	l580
  4229                           	
  4230  06E3                     l581:	
  4231                           	
  4232  06E3                     l580:	
  4233  06E3  1283               	bcf	status, 5	;RP0=0, select bank0
  4234  06E4  1303               	bcf	status, 6	;RP1=0, select bank0
  4235  06E5  1905               	btfsc	(42/8),(42)&7
  4236  06E6  2EE8               	goto	u3681
  4237  06E7  2EE9               	goto	u3680
  4238  06E8                     u3681:
  4239  06E8  2EE3               	goto	l580
  4240  06E9                     u3680:
  4241  06E9  2EEA               	goto	l3331
  4242                           	
  4243  06EA                     l582:	
  4244                           	line	281
  4245                           	
  4246  06EA                     l3331:	
  4247                           ;PR22.c: 281: delay(10000);
  4248  06EA  3000               	movlw	0
  4249  06EB  00F3               	movwf	(?_delay+3)
  4250  06EC  3000               	movlw	0
  4251  06ED  00F2               	movwf	(?_delay+2)
  4252  06EE  3027               	movlw	027h
  4253  06EF  00F1               	movwf	(?_delay+1)
  4254  06F0  3010               	movlw	010h
  4255  06F1  00F0               	movwf	(?_delay)
  4256                           
  4257  06F2  120A  158A  21F1   	fcall	_delay
              120A  118A         
  4258                           	line	282
  4259                           ;PR22.c: 282: while(!RA2);
  4260  06F7  2EF8               	goto	l583
  4261                           	
  4262  06F8                     l584:	
  4263                           	
  4264  06F8                     l583:	
  4265  06F8  1283               	bcf	status, 5	;RP0=0, select bank0
  4266  06F9  1303               	bcf	status, 6	;RP1=0, select bank0
  4267  06FA  1D05               	btfss	(42/8),(42)&7
  4268  06FB  2EFD               	goto	u3691
  4269  06FC  2EFE               	goto	u3690
  4270  06FD                     u3691:
  4271  06FD  2EF8               	goto	l583
  4272  06FE                     u3690:
  4273  06FE  2EFF               	goto	l3333
  4274                           	
  4275  06FF                     l585:	
  4276                           	line	283
  4277                           	
  4278  06FF                     l3333:	
  4279                           ;PR22.c: 283: delay(10000);
  4280  06FF  3000               	movlw	0
  4281  0700  00F3               	movwf	(?_delay+3)
  4282  0701  3000               	movlw	0
  4283  0702  00F2               	movwf	(?_delay+2)
  4284  0703  3027               	movlw	027h
  4285  0704  00F1               	movwf	(?_delay+1)
  4286  0705  3010               	movlw	010h
  4287  0706  00F0               	movwf	(?_delay)
  4288                           
  4289  0707  120A  158A  21F1   	fcall	_delay
              120A  118A         
  4290                           	line	286
  4291                           	
  4292  070C                     l3335:	
  4293                           ;PR22.c: 286: i2c_master_data[0] = 'E';
  4294  070C  3045               	movlw	(045h)
  4295  070D  1283               	bcf	status, 5	;RP0=0, select bank0
  4296  070E  1303               	bcf	status, 6	;RP1=0, select bank0
  4297  070F  00A0               	movwf	(??_mode1+0)+0
  4298  0710  0820               	movf	(??_mode1+0)+0,w
  4299  0711  00B7               	movwf	(_i2c_master_data)
  4300                           	line	287
  4301                           	
  4302  0712                     l3337:	
  4303                           ;PR22.c: 287: i2c_start(0x42, 1, 0);
  4304  0712  01F0               	clrf	(?_i2c_start)
  4305  0713  1403               	bsf	status,0
  4306  0714  0DF0               	rlf	(?_i2c_start),f
  4307  0715  3000               	movlw	low(0)
  4308  0716  00F1               	movwf	0+(?_i2c_start)+01h
  4309  0717  3000               	movlw	high(0)
  4310  0718  00F2               	movwf	(0+(?_i2c_start)+01h)+1
  4311  0719  3042               	movlw	(042h)
  4312  071A  120A  158A  2494   	fcall	_i2c_start
              120A  118A         
  4313                           	line	289
  4314                           	
  4315  071F                     l3339:	
  4316                           ;PR22.c: 289: lcd_clr();
  4317  071F  120A  158A  2150   	fcall	_lcd_clr
              120A  118A         
  4318                           	line	290
  4319                           	
  4320  0724                     l3341:	
  4321                           ;PR22.c: 290: lcd_goto(0);
  4322  0724  3000               	movlw	(0)
  4323  0725  120A  158A  2164   	fcall	_lcd_goto
              120A  118A         
  4324                           	line	291
  4325                           	
  4326  072A                     l3343:	
  4327                           ;PR22.c: 291: send_string("Done");
  4328  072A  30CE               	movlw	((STR_17-__stringbase))&0ffh
  4329  072B  120A  158A  21CB   	fcall	_send_string
              120A  118A         
  4330                           	line	292
  4331                           	
  4332  0730                     l3345:	
  4333                           ;PR22.c: 292: delay(200000);
  4334  0730  3000               	movlw	0
  4335  0731  00F3               	movwf	(?_delay+3)
  4336  0732  3003               	movlw	03h
  4337  0733  00F2               	movwf	(?_delay+2)
  4338  0734  300D               	movlw	0Dh
  4339  0735  00F1               	movwf	(?_delay+1)
  4340  0736  3040               	movlw	040h
  4341  0737  00F0               	movwf	(?_delay)
  4342                           
  4343  0738  120A  158A  21F1   	fcall	_delay
              120A  118A         
  4344                           	line	293
  4345                           ;PR22.c: 293: break;
  4346  073D  2FF0               	goto	l3383
  4347                           	line	295
  4348                           ;PR22.c: 295: case 3 :
  4349                           	
  4350  073E                     l586:	
  4351                           	line	298
  4352                           	
  4353  073E                     l3347:	
  4354                           ;PR22.c: 298: i2c_master_data[0] = 'w';
  4355  073E  3077               	movlw	(077h)
  4356  073F  1283               	bcf	status, 5	;RP0=0, select bank0
  4357  0740  1303               	bcf	status, 6	;RP1=0, select bank0
  4358  0741  00A0               	movwf	(??_mode1+0)+0
  4359  0742  0820               	movf	(??_mode1+0)+0,w
  4360  0743  00B7               	movwf	(_i2c_master_data)
  4361                           	line	299
  4362                           	
  4363  0744                     l3349:	
  4364                           ;PR22.c: 299: i2c_master_data[1] = 0x01;
  4365  0744  01B8               	clrf	0+(_i2c_master_data)+01h
  4366  0745  1403               	bsf	status,0
  4367  0746  0DB8               	rlf	0+(_i2c_master_data)+01h,f
  4368                           	line	300
  4369                           ;PR22.c: 300: i2c_master_data[2] = 0;
  4370  0747  1003               	clrc
  4371  0748  3000               	movlw	0
  4372  0749  1803               	btfsc	status,0
  4373  074A  3001               	movlw	1
  4374  074B  00B9               	movwf	0+(_i2c_master_data)+02h
  4375                           	line	301
  4376                           	
  4377  074C                     l3351:	
  4378                           ;PR22.c: 301: i2c_start(0x42, 3, 0);
  4379  074C  3003               	movlw	(03h)
  4380  074D  00A0               	movwf	(??_mode1+0)+0
  4381  074E  0820               	movf	(??_mode1+0)+0,w
  4382  074F  00F0               	movwf	(?_i2c_start)
  4383  0750  3000               	movlw	low(0)
  4384  0751  00F1               	movwf	0+(?_i2c_start)+01h
  4385  0752  3000               	movlw	high(0)
  4386  0753  00F2               	movwf	(0+(?_i2c_start)+01h)+1
  4387  0754  3042               	movlw	(042h)
  4388  0755  120A  158A  2494   	fcall	_i2c_start
              120A  118A         
  4389                           	line	302
  4390                           	
  4391  075A                     l3353:	
  4392                           ;PR22.c: 302: delay(10000);
  4393  075A  3000               	movlw	0
  4394  075B  00F3               	movwf	(?_delay+3)
  4395  075C  3000               	movlw	0
  4396  075D  00F2               	movwf	(?_delay+2)
  4397  075E  3027               	movlw	027h
  4398  075F  00F1               	movwf	(?_delay+1)
  4399  0760  3010               	movlw	010h
  4400  0761  00F0               	movwf	(?_delay)
  4401                           
  4402  0762  120A  158A  21F1   	fcall	_delay
              120A  118A         
  4403                           	line	304
  4404                           	
  4405  0767                     l3355:	
  4406                           ;PR22.c: 304: i2c_master_data[1] = 0x02;
  4407  0767  3002               	movlw	(02h)
  4408  0768  1283               	bcf	status, 5	;RP0=0, select bank0
  4409  0769  1303               	bcf	status, 6	;RP1=0, select bank0
  4410  076A  00A0               	movwf	(??_mode1+0)+0
  4411  076B  0820               	movf	(??_mode1+0)+0,w
  4412  076C  00B8               	movwf	0+(_i2c_master_data)+01h
  4413                           	line	305
  4414                           	
  4415  076D                     l3357:	
  4416                           ;PR22.c: 305: i2c_start(0x42, 3, 0);
  4417  076D  3003               	movlw	(03h)
  4418  076E  00A0               	movwf	(??_mode1+0)+0
  4419  076F  0820               	movf	(??_mode1+0)+0,w
  4420  0770  00F0               	movwf	(?_i2c_start)
  4421  0771  3000               	movlw	low(0)
  4422  0772  00F1               	movwf	0+(?_i2c_start)+01h
  4423  0773  3000               	movlw	high(0)
  4424  0774  00F2               	movwf	(0+(?_i2c_start)+01h)+1
  4425  0775  3042               	movlw	(042h)
  4426  0776  120A  158A  2494   	fcall	_i2c_start
              120A  118A         
  4427                           	line	306
  4428                           	
  4429  077B                     l3359:	
  4430                           ;PR22.c: 306: delay(10000);
  4431  077B  3000               	movlw	0
  4432  077C  00F3               	movwf	(?_delay+3)
  4433  077D  3000               	movlw	0
  4434  077E  00F2               	movwf	(?_delay+2)
  4435  077F  3027               	movlw	027h
  4436  0780  00F1               	movwf	(?_delay+1)
  4437  0781  3010               	movlw	010h
  4438  0782  00F0               	movwf	(?_delay)
  4439                           
  4440  0783  120A  158A  21F1   	fcall	_delay
              120A  118A         
  4441                           	line	308
  4442                           	
  4443  0788                     l3361:	
  4444                           ;PR22.c: 308: i2c_master_data[1] = 0x03;
  4445  0788  3003               	movlw	(03h)
  4446  0789  1283               	bcf	status, 5	;RP0=0, select bank0
  4447  078A  1303               	bcf	status, 6	;RP1=0, select bank0
  4448  078B  00A0               	movwf	(??_mode1+0)+0
  4449  078C  0820               	movf	(??_mode1+0)+0,w
  4450  078D  00B8               	movwf	0+(_i2c_master_data)+01h
  4451                           	line	309
  4452                           	
  4453  078E                     l3363:	
  4454                           ;PR22.c: 309: i2c_start(0x42, 3, 0);
  4455  078E  3003               	movlw	(03h)
  4456  078F  00A0               	movwf	(??_mode1+0)+0
  4457  0790  0820               	movf	(??_mode1+0)+0,w
  4458  0791  00F0               	movwf	(?_i2c_start)
  4459  0792  3000               	movlw	low(0)
  4460  0793  00F1               	movwf	0+(?_i2c_start)+01h
  4461  0794  3000               	movlw	high(0)
  4462  0795  00F2               	movwf	(0+(?_i2c_start)+01h)+1
  4463  0796  3042               	movlw	(042h)
  4464  0797  120A  158A  2494   	fcall	_i2c_start
              120A  118A         
  4465                           	line	310
  4466                           	
  4467  079C                     l3365:	
  4468                           ;PR22.c: 310: delay(10000);
  4469  079C  3000               	movlw	0
  4470  079D  00F3               	movwf	(?_delay+3)
  4471  079E  3000               	movlw	0
  4472  079F  00F2               	movwf	(?_delay+2)
  4473  07A0  3027               	movlw	027h
  4474  07A1  00F1               	movwf	(?_delay+1)
  4475  07A2  3010               	movlw	010h
  4476  07A3  00F0               	movwf	(?_delay)
  4477                           
  4478  07A4  120A  158A  21F1   	fcall	_delay
              120A  118A         
  4479                           	line	312
  4480                           	
  4481  07A9                     l3367:	
  4482                           ;PR22.c: 312: i2c_master_data[1] = 0x04;
  4483  07A9  3004               	movlw	(04h)
  4484  07AA  1283               	bcf	status, 5	;RP0=0, select bank0
  4485  07AB  1303               	bcf	status, 6	;RP1=0, select bank0
  4486  07AC  00A0               	movwf	(??_mode1+0)+0
  4487  07AD  0820               	movf	(??_mode1+0)+0,w
  4488  07AE  00B8               	movwf	0+(_i2c_master_data)+01h
  4489                           	line	313
  4490                           	
  4491  07AF                     l3369:	
  4492                           ;PR22.c: 313: i2c_start(0x42, 3, 0);
  4493  07AF  3003               	movlw	(03h)
  4494  07B0  00A0               	movwf	(??_mode1+0)+0
  4495  07B1  0820               	movf	(??_mode1+0)+0,w
  4496  07B2  00F0               	movwf	(?_i2c_start)
  4497  07B3  3000               	movlw	low(0)
  4498  07B4  00F1               	movwf	0+(?_i2c_start)+01h
  4499  07B5  3000               	movlw	high(0)
  4500  07B6  00F2               	movwf	(0+(?_i2c_start)+01h)+1
  4501  07B7  3042               	movlw	(042h)
  4502  07B8  120A  158A  2494   	fcall	_i2c_start
              120A  118A         
  4503                           	line	315
  4504                           	
  4505  07BD                     l3371:	
  4506                           ;PR22.c: 315: lcd_clr();
  4507  07BD  120A  158A  2150   	fcall	_lcd_clr
              120A  118A         
  4508                           	line	316
  4509                           	
  4510  07C2                     l3373:	
  4511                           ;PR22.c: 316: lcd_goto(0);
  4512  07C2  3000               	movlw	(0)
  4513  07C3  120A  158A  2164   	fcall	_lcd_goto
              120A  118A         
  4514                           	line	317
  4515                           	
  4516  07C8                     l3375:	
  4517                           ;PR22.c: 317: send_string("Done");
  4518  07C8  30CE               	movlw	((STR_18-__stringbase))&0ffh
  4519  07C9  120A  158A  21CB   	fcall	_send_string
              120A  118A         
  4520                           	line	318
  4521                           	
  4522  07CE                     l3377:	
  4523                           ;PR22.c: 318: delay(200000);
  4524  07CE  3000               	movlw	0
  4525  07CF  00F3               	movwf	(?_delay+3)
  4526  07D0  3003               	movlw	03h
  4527  07D1  00F2               	movwf	(?_delay+2)
  4528  07D2  300D               	movlw	0Dh
  4529  07D3  00F1               	movwf	(?_delay+1)
  4530  07D4  3040               	movlw	040h
  4531  07D5  00F0               	movwf	(?_delay)
  4532                           
  4533  07D6  120A  158A  21F1   	fcall	_delay
              120A  118A         
  4534                           	line	319
  4535                           ;PR22.c: 319: break;
  4536  07DB  2FF0               	goto	l3383
  4537                           	line	321
  4538                           ;PR22.c: 321: case 4 :
  4539                           	
  4540  07DC                     l587:	
  4541                           	line	323
  4542                           ;PR22.c: 323: return;
  4543  07DC  2FFF               	goto	l588
  4544                           	line	325
  4545                           ;PR22.c: 325: default : break;
  4546                           	
  4547  07DD                     l589:	
  4548  07DD  2FF0               	goto	l3383
  4549                           	line	326
  4550                           	
  4551  07DE                     l3379:	
  4552                           ;PR22.c: 326: }
  4553  07DE  2FF0               	goto	l3383
  4554                           	line	225
  4555                           	
  4556  07DF                     l570:	
  4557                           	
  4558  07DF                     l3381:	
  4559  07DF  1283               	bcf	status, 5	;RP0=0, select bank0
  4560  07E0  1303               	bcf	status, 6	;RP1=0, select bank0
  4561  07E1  0824               	movf	(mode1@submode),w
  4562                           	; Switch size 1, requested type "space"
  4563                           ; Number of cases is 4, Range of values is 1 to 4
  4564                           ; switch strategies available:
  4565                           ; Name         Bytes Cycles
  4566                           ; simple_byte    13     7 (average)
  4567                           ; direct_byte    34    22 (fixed)
  4568                           ;	Chosen strategy is simple_byte
  4569                           
  4570  07E2  3A01               	xorlw	1^0	; case 1
  4571  07E3  1903               	skipnz
  4572  07E4  2D67               	goto	l3279
  4573  07E5  3A03               	xorlw	2^1	; case 2
  4574  07E6  1903               	skipnz
  4575  07E7  2EB2               	goto	l3321
  4576  07E8  3A01               	xorlw	3^2	; case 3
  4577  07E9  1903               	skipnz
  4578  07EA  2F3E               	goto	l3347
  4579  07EB  3A07               	xorlw	4^3	; case 4
  4580  07EC  1903               	skipnz
  4581  07ED  2FFF               	goto	l588
  4582  07EE  2FF0               	goto	l3383
  4583                           
  4584                           	line	326
  4585                           	
  4586  07EF                     l578:	
  4587  07EF  2FF0               	goto	l3383
  4588                           	line	327
  4589                           	
  4590  07F0                     l566:	
  4591                           	line	328
  4592                           	
  4593  07F0                     l3383:	
  4594                           ;PR22.c: 327: }
  4595                           ;PR22.c: 328: delay(30000);
  4596  07F0  3000               	movlw	0
  4597  07F1  00F3               	movwf	(?_delay+3)
  4598  07F2  3000               	movlw	0
  4599  07F3  00F2               	movwf	(?_delay+2)
  4600  07F4  3075               	movlw	075h
  4601  07F5  00F1               	movwf	(?_delay+1)
  4602  07F6  3030               	movlw	030h
  4603  07F7  00F0               	movwf	(?_delay)
  4604                           
  4605  07F8  120A  158A  21F1   	fcall	_delay
              120A  118A         
  4606  07FD  2CD2               	goto	l3247
  4607                           	line	330
  4608                           	
  4609  07FE                     l590:	
  4610                           	line	181
  4611  07FE  2CD2               	goto	l3247
  4612                           	
  4613  07FF                     l591:	
  4614                           	line	331
  4615                           	
  4616  07FF                     l588:	
  4617  07FF  0008               	return
  4618                           	opt stack 0
  4619                           GLOBAL	__end_of_mode1
  4620  0800                     	__end_of_mode1:
  4621 ;; =============== function _mode1 ends ============
  4622                           
  4623                           	signat	_mode1,88
  4624                           	global	_spi_baro
  4625                           psect	text382,local,class=CODE,delta=2
  4626                           global __ptext382
  4627  0AB5                     __ptext382:
  4628                           
  4629 ;; *************** function _spi_baro *****************
  4630 ;; Defined at:
  4631 ;;		line 640 in file "C:\Users\Phang\Desktop\9.80\PR 22\PR22.c"
  4632 ;; Parameters:    Size  Location     Type
  4633 ;;  register_add    1    wreg     unsigned char 
  4634 ;;  data            1    0[BANK0 ] unsigned char 
  4635 ;;  operation       2    1[BANK0 ] unsigned int 
  4636 ;; Auto vars:     Size  Location     Type
  4637 ;;  register_add    1    3[BANK0 ] unsigned char 
  4638 ;; Return value:  Size  Location     Type
  4639 ;;		None               void
  4640 ;; Registers used:
  4641 ;;		wreg, status,2, status,0, pclath, cstack
  4642 ;; Tracked objects:
  4643 ;;		On entry : 0/0
  4644 ;;		On exit  : 0/0
  4645 ;;		Unchanged: 0/0
  4646 ;; Data sizes:     COMMON   BANK0   BANK1   BANK3   BANK2
  4647 ;;      Params:         0       3       0       0       0
  4648 ;;      Locals:         0       1       0       0       0
  4649 ;;      Temps:          2       0       0       0       0
  4650 ;;      Totals:         2       4       0       0       0
  4651 ;;Total ram usage:        6 bytes
  4652 ;; Hardware stack levels used:    1
  4653 ;; Hardware stack levels required when called:    2
  4654 ;; This function calls:
  4655 ;;		_spi_start
  4656 ;; This function is called by:
  4657 ;;		_mode3
  4658 ;; This function uses a non-reentrant model
  4659 ;;
  4660                           psect	text382
  4661                           	file	"C:\Users\Phang\Desktop\9.80\PR 22\PR22.c"
  4662                           	line	640
  4663                           	global	__size_of_spi_baro
  4664  0051                     	__size_of_spi_baro	equ	__end_of_spi_baro-_spi_baro
  4665                           	
  4666  0AB5                     _spi_baro:	
  4667                           	opt	stack 4
  4668                           ; Regs used in _spi_baro: [wreg+status,2+status,0+pclath+cstack]
  4669                           ;spi_baro@register_address stored from wreg
  4670  0AB5  1283               	bcf	status, 5	;RP0=0, select bank0
  4671  0AB6  1303               	bcf	status, 6	;RP1=0, select bank0
  4672  0AB7  00A3               	movwf	(spi_baro@register_address)
  4673                           	line	641
  4674                           	
  4675  0AB8                     l3225:	
  4676                           ;PR22.c: 641: RA3 = 0;
  4677  0AB8  1185               	bcf	(43/8),(43)&7
  4678                           	line	642
  4679                           	
  4680  0AB9                     l3227:	
  4681                           ;PR22.c: 642: spi_start(((register_address << 1) + !operation) << 1);
  4682  0AB9  0823               	movf	(spi_baro@register_address),w
  4683  0ABA  00FC               	movwf	(??_spi_baro+0)+0
  4684  0ABB  3001               	movlw	01h
  4685  0ABC                     u3555:
  4686  0ABC  1003               	clrc
  4687  0ABD  0DFC               	rlf	(??_spi_baro+0)+0,f
  4688  0ABE  3EFF               	addlw	-1
  4689  0ABF  1D03               	skipz
  4690  0AC0  2ABC               	goto	u3555
  4691  0AC1  0822               	movf	(spi_baro@operation+1),w
  4692  0AC2  0421               	iorwf	(spi_baro@operation),w
  4693  0AC3  3000               	movlw	0
  4694  0AC4  1903               	skipnz
  4695  0AC5  3001               	movlw	1
  4696  0AC6  077C               	addwf	0+(??_spi_baro+0)+0,w
  4697  0AC7  00FD               	movwf	(??_spi_baro+1)+0
  4698  0AC8  077D               	addwf	(??_spi_baro+1)+0,w
  4699  0AC9  120A  158A  2306   	fcall	_spi_start
              120A  158A         
  4700                           	line	644
  4701                           	
  4702  0ACE                     l3229:	
  4703                           ;PR22.c: 644: if(operation == 0)
  4704  0ACE  1283               	bcf	status, 5	;RP0=0, select bank0
  4705  0ACF  1303               	bcf	status, 6	;RP1=0, select bank0
  4706  0AD0  0822               	movf	((spi_baro@operation+1)),w
  4707  0AD1  0421               	iorwf	((spi_baro@operation)),w
  4708  0AD2  1D03               	skipz
  4709  0AD3  2AD5               	goto	u3561
  4710  0AD4  2AD6               	goto	u3560
  4711  0AD5                     u3561:
  4712  0AD5  2ADD               	goto	l3233
  4713  0AD6                     u3560:
  4714                           	line	645
  4715                           	
  4716  0AD6                     l3231:	
  4717                           ;PR22.c: 645: spi_start(data);
  4718  0AD6  0820               	movf	(spi_baro@data),w
  4719  0AD7  120A  158A  2306   	fcall	_spi_start
              120A  158A         
  4720  0ADC  2B02               	goto	l3241
  4721                           	line	646
  4722                           	
  4723  0ADD                     l691:	
  4724                           	line	649
  4725                           	
  4726  0ADD                     l3233:	
  4727                           ;PR22.c: 646: else
  4728                           ;PR22.c: 647: {
  4729                           ;PR22.c: 649: spi_baro_rcvb[0] = spi_start(0);
  4730  0ADD  3000               	movlw	(0)
  4731  0ADE  120A  158A  2306   	fcall	_spi_start
              120A  158A         
  4732  0AE3  00FC               	movwf	(??_spi_baro+0)+0
  4733  0AE4  087C               	movf	(??_spi_baro+0)+0,w
  4734  0AE5  1283               	bcf	status, 5	;RP0=0, select bank0
  4735  0AE6  1303               	bcf	status, 6	;RP1=0, select bank0
  4736  0AE7  00C6               	movwf	(_spi_baro_rcvb)
  4737                           	line	651
  4738                           	
  4739  0AE8                     l3235:	
  4740                           ;PR22.c: 651: if((register_address == 0x20) || (register_address == 0x21))
  4741  0AE8  0823               	movf	(spi_baro@register_address),w
  4742  0AE9  3A20               	xorlw	020h
  4743  0AEA  1903               	skipnz
  4744  0AEB  2AED               	goto	u3571
  4745  0AEC  2AEE               	goto	u3570
  4746  0AED                     u3571:
  4747  0AED  2AF5               	goto	l3239
  4748  0AEE                     u3570:
  4749                           	
  4750  0AEE                     l3237:	
  4751  0AEE  0823               	movf	(spi_baro@register_address),w
  4752  0AEF  3A21               	xorlw	021h
  4753  0AF0  1D03               	skipz
  4754  0AF1  2AF3               	goto	u3581
  4755  0AF2  2AF4               	goto	u3580
  4756  0AF3                     u3581:
  4757  0AF3  2B02               	goto	l3241
  4758  0AF4                     u3580:
  4759  0AF4  2AF5               	goto	l3239
  4760                           	
  4761  0AF5                     l695:	
  4762                           	line	653
  4763                           	
  4764  0AF5                     l3239:	
  4765                           ;PR22.c: 653: spi_baro_rcvb[1] = spi_start(0);
  4766  0AF5  3000               	movlw	(0)
  4767  0AF6  120A  158A  2306   	fcall	_spi_start
              120A  158A         
  4768  0AFB  00FC               	movwf	(??_spi_baro+0)+0
  4769  0AFC  087C               	movf	(??_spi_baro+0)+0,w
  4770  0AFD  1283               	bcf	status, 5	;RP0=0, select bank0
  4771  0AFE  1303               	bcf	status, 6	;RP1=0, select bank0
  4772  0AFF  00C7               	movwf	0+(_spi_baro_rcvb)+01h
  4773  0B00  2B02               	goto	l3241
  4774                           	
  4775  0B01                     l693:	
  4776  0B01  2B02               	goto	l3241
  4777                           	line	654
  4778                           	
  4779  0B02                     l692:	
  4780                           	line	655
  4781                           	
  4782  0B02                     l3241:	
  4783                           ;PR22.c: 654: }
  4784                           ;PR22.c: 655: RA3 = 1;
  4785  0B02  1283               	bcf	status, 5	;RP0=0, select bank0
  4786  0B03  1303               	bcf	status, 6	;RP1=0, select bank0
  4787  0B04  1585               	bsf	(43/8),(43)&7
  4788                           	line	656
  4789                           	
  4790  0B05                     l696:	
  4791  0B05  0008               	return
  4792                           	opt stack 0
  4793                           GLOBAL	__end_of_spi_baro
  4794  0B06                     	__end_of_spi_baro:
  4795 ;; =============== function _spi_baro ends ============
  4796                           
  4797                           	signat	_spi_baro,12408
  4798                           	global	_send_string
  4799                           psect	text383,local,class=CODE,delta=2
  4800                           global __ptext383
  4801  09CB                     __ptext383:
  4802                           
  4803 ;; *************** function _send_string *****************
  4804 ;; Defined at:
  4805 ;;		line 591 in file "C:\Users\Phang\Desktop\9.80\PR 22\PR22.c"
  4806 ;; Parameters:    Size  Location     Type
  4807 ;;  s               1    wreg     PTR const unsigned char 
  4808 ;;		 -> STR_27(4), STR_26(6), STR_25(6), STR_24(5), 
  4809 ;;		 -> STR_23(10), STR_22(6), STR_21(6), STR_20(17), 
  4810 ;;		 -> STR_19(17), STR_18(5), STR_17(5), STR_16(5), 
  4811 ;;		 -> STR_15(15), STR_14(5), STR_13(9), STR_12(16), 
  4812 ;;		 -> STR_11(16), STR_10(16), STR_9(16), STR_8(3), 
  4813 ;;		 -> STR_7(8), STR_6(8), STR_5(8), STR_4(3), 
  4814 ;;		 -> STR_3(8), STR_2(5), STR_1(13), 
  4815 ;; Auto vars:     Size  Location     Type
  4816 ;;  s               1   10[COMMON] PTR const unsigned char 
  4817 ;;		 -> STR_27(4), STR_26(6), STR_25(6), STR_24(5), 
  4818 ;;		 -> STR_23(10), STR_22(6), STR_21(6), STR_20(17), 
  4819 ;;		 -> STR_19(17), STR_18(5), STR_17(5), STR_16(5), 
  4820 ;;		 -> STR_15(15), STR_14(5), STR_13(9), STR_12(16), 
  4821 ;;		 -> STR_11(16), STR_10(16), STR_9(16), STR_8(3), 
  4822 ;;		 -> STR_7(8), STR_6(8), STR_5(8), STR_4(3), 
  4823 ;;		 -> STR_3(8), STR_2(5), STR_1(13), 
  4824 ;; Return value:  Size  Location     Type
  4825 ;;		None               void
  4826 ;; Registers used:
  4827 ;;		wreg, fsr0l, fsr0h, status,2, status,0, pclath, cstack
  4828 ;; Tracked objects:
  4829 ;;		On entry : 0/0
  4830 ;;		On exit  : 0/0
  4831 ;;		Unchanged: 0/0
  4832 ;; Data sizes:     COMMON   BANK0   BANK1   BANK3   BANK2
  4833 ;;      Params:         0       0       0       0       0
  4834 ;;      Locals:         1       0       0       0       0
  4835 ;;      Temps:          1       0       0       0       0
  4836 ;;      Totals:         2       0       0       0       0
  4837 ;;Total ram usage:        2 bytes
  4838 ;; Hardware stack levels used:    1
  4839 ;; Hardware stack levels required when called:    2
  4840 ;; This function calls:
  4841 ;;		_send_char
  4842 ;; This function is called by:
  4843 ;;		_main
  4844 ;;		_mode1
  4845 ;;		_mode2
  4846 ;;		_mode3
  4847 ;; This function uses a non-reentrant model
  4848 ;;
  4849                           psect	text383
  4850                           	file	"C:\Users\Phang\Desktop\9.80\PR 22\PR22.c"
  4851                           	line	591
  4852                           	global	__size_of_send_string
  4853  0026                     	__size_of_send_string	equ	__end_of_send_string-_send_string
  4854                           	
  4855  09CB                     _send_string:	
  4856                           	opt	stack 4
  4857                           ; Regs used in _send_string: [wreg-fsr0h+status,2+status,0+pclath+cstack]
  4858                           ;send_string@s stored from wreg
  4859  09CB  00FA               	movwf	(send_string@s)
  4860                           	line	592
  4861                           	
  4862  09CC                     l3215:	
  4863                           ;PR22.c: 592: while (s && *s)send_char (*s++);
  4864  09CC  29DE               	goto	l3221
  4865                           	
  4866  09CD                     l649:	
  4867                           	
  4868  09CD                     l3217:	
  4869  09CD  087A               	movf	(send_string@s),w
  4870  09CE  0084               	movwf	fsr0
  4871  09CF  120A  158A  2000   	fcall	stringdir
              120A  158A         
  4872  09D4  120A  158A  21A6   	fcall	_send_char
              120A  158A         
  4873                           	
  4874  09D9                     l3219:	
  4875  09D9  3001               	movlw	(01h)
  4876  09DA  00F9               	movwf	(??_send_string+0)+0
  4877  09DB  0879               	movf	(??_send_string+0)+0,w
  4878  09DC  07FA               	addwf	(send_string@s),f
  4879  09DD  29DE               	goto	l3221
  4880                           	
  4881  09DE                     l648:	
  4882                           	
  4883  09DE                     l3221:	
  4884  09DE  087A               	movf	(send_string@s),w
  4885  09DF  1D03               	skipz
  4886  09E0  29E2               	goto	u3530
  4887  09E1  29F0               	goto	l653
  4888  09E2                     u3530:
  4889                           	
  4890  09E2                     l3223:	
  4891  09E2  087A               	movf	(send_string@s),w
  4892  09E3  0084               	movwf	fsr0
  4893  09E4  120A  158A  2000   	fcall	stringdir
              120A  158A         
  4894  09E9  3800               	iorlw	0
  4895  09EA  1D03               	skipz
  4896  09EB  29ED               	goto	u3541
  4897  09EC  29EE               	goto	u3540
  4898  09ED                     u3541:
  4899  09ED  29CD               	goto	l3217
  4900  09EE                     u3540:
  4901  09EE  29F0               	goto	l653
  4902                           	
  4903  09EF                     l651:	
  4904  09EF  29F0               	goto	l653
  4905                           	
  4906  09F0                     l652:	
  4907                           	line	593
  4908                           	
  4909  09F0                     l653:	
  4910  09F0  0008               	return
  4911                           	opt stack 0
  4912                           GLOBAL	__end_of_send_string
  4913  09F1                     	__end_of_send_string:
  4914 ;; =============== function _send_string ends ============
  4915                           
  4916                           	signat	_send_string,4216
  4917                           	global	_lcd_goto
  4918                           psect	text384,local,class=CODE,delta=2
  4919                           global __ptext384
  4920  0964                     __ptext384:
  4921                           
  4922 ;; *************** function _lcd_goto *****************
  4923 ;; Defined at:
  4924 ;;		line 572 in file "C:\Users\Phang\Desktop\9.80\PR 22\PR22.c"
  4925 ;; Parameters:    Size  Location     Type
  4926 ;;  data            1    wreg     unsigned char 
  4927 ;; Auto vars:     Size  Location     Type
  4928 ;;  data            1   10[COMMON] unsigned char 
  4929 ;; Return value:  Size  Location     Type
  4930 ;;		None               void
  4931 ;; Registers used:
  4932 ;;		wreg, status,2, status,0, pclath, cstack
  4933 ;; Tracked objects:
  4934 ;;		On entry : 0/0
  4935 ;;		On exit  : 0/0
  4936 ;;		Unchanged: 0/0
  4937 ;; Data sizes:     COMMON   BANK0   BANK1   BANK3   BANK2
  4938 ;;      Params:         0       0       0       0       0
  4939 ;;      Locals:         1       0       0       0       0
  4940 ;;      Temps:          1       0       0       0       0
  4941 ;;      Totals:         2       0       0       0       0
  4942 ;;Total ram usage:        2 bytes
  4943 ;; Hardware stack levels used:    1
  4944 ;; Hardware stack levels required when called:    2
  4945 ;; This function calls:
  4946 ;;		_send_config
  4947 ;; This function is called by:
  4948 ;;		_main
  4949 ;;		_mode1
  4950 ;;		_mode2
  4951 ;;		_mode3
  4952 ;; This function uses a non-reentrant model
  4953 ;;
  4954                           psect	text384
  4955                           	file	"C:\Users\Phang\Desktop\9.80\PR 22\PR22.c"
  4956                           	line	572
  4957                           	global	__size_of_lcd_goto
  4958  001D                     	__size_of_lcd_goto	equ	__end_of_lcd_goto-_lcd_goto
  4959                           	
  4960  0964                     _lcd_goto:	
  4961                           	opt	stack 4
  4962                           ; Regs used in _lcd_goto: [wreg+status,2+status,0+pclath+cstack]
  4963                           ;lcd_goto@data stored from wreg
  4964  0964  00FA               	movwf	(lcd_goto@data)
  4965                           	line	573
  4966                           	
  4967  0965                     l3207:	
  4968                           ;PR22.c: 573: if(data<16)
  4969  0965  3010               	movlw	(010h)
  4970  0966  027A               	subwf	(lcd_goto@data),w
  4971  0967  1803               	skipnc
  4972  0968  296A               	goto	u3521
  4973  0969  296B               	goto	u3520
  4974  096A                     u3521:
  4975  096A  2973               	goto	l3211
  4976  096B                     u3520:
  4977                           	line	575
  4978                           	
  4979  096B                     l3209:	
  4980                           ;PR22.c: 574: {
  4981                           ;PR22.c: 575: send_config(0x80+data);
  4982  096B  087A               	movf	(lcd_goto@data),w
  4983  096C  3E80               	addlw	080h
  4984  096D  120A  158A  2181   	fcall	_send_config
              120A  158A         
  4985                           	line	576
  4986                           ;PR22.c: 576: }
  4987  0972  2980               	goto	l642
  4988                           	line	577
  4989                           	
  4990  0973                     l640:	
  4991                           	line	579
  4992                           	
  4993  0973                     l3211:	
  4994                           ;PR22.c: 577: else
  4995                           ;PR22.c: 578: {
  4996                           ;PR22.c: 579: data=data-20;
  4997  0973  087A               	movf	(lcd_goto@data),w
  4998  0974  3EEC               	addlw	0ECh
  4999  0975  00F9               	movwf	(??_lcd_goto+0)+0
  5000  0976  0879               	movf	(??_lcd_goto+0)+0,w
  5001  0977  00FA               	movwf	(lcd_goto@data)
  5002                           	line	580
  5003                           	
  5004  0978                     l3213:	
  5005                           ;PR22.c: 580: send_config(0xc0+data);
  5006  0978  087A               	movf	(lcd_goto@data),w
  5007  0979  3EC0               	addlw	0C0h
  5008  097A  120A  158A  2181   	fcall	_send_config
              120A  158A         
  5009  097F  2980               	goto	l642
  5010                           	line	581
  5011                           	
  5012  0980                     l641:	
  5013                           	line	582
  5014                           	
  5015  0980                     l642:	
  5016  0980  0008               	return
  5017                           	opt stack 0
  5018                           GLOBAL	__end_of_lcd_goto
  5019  0981                     	__end_of_lcd_goto:
  5020 ;; =============== function _lcd_goto ends ============
  5021                           
  5022                           	signat	_lcd_goto,4216
  5023                           	global	_lcd_clr
  5024                           psect	text385,local,class=CODE,delta=2
  5025                           global __ptext385
  5026  0950                     __ptext385:
  5027                           
  5028 ;; *************** function _lcd_clr *****************
  5029 ;; Defined at:
  5030 ;;		line 585 in file "C:\Users\Phang\Desktop\9.80\PR 22\PR22.c"
  5031 ;; Parameters:    Size  Location     Type
  5032 ;;		None
  5033 ;; Auto vars:     Size  Location     Type
  5034 ;;		None
  5035 ;; Return value:  Size  Location     Type
  5036 ;;		None               void
  5037 ;; Registers used:
  5038 ;;		wreg, status,2, status,0, pclath, cstack
  5039 ;; Tracked objects:
  5040 ;;		On entry : 0/0
  5041 ;;		On exit  : 0/0
  5042 ;;		Unchanged: 0/0
  5043 ;; Data sizes:     COMMON   BANK0   BANK1   BANK3   BANK2
  5044 ;;      Params:         0       0       0       0       0
  5045 ;;      Locals:         0       0       0       0       0
  5046 ;;      Temps:          0       0       0       0       0
  5047 ;;      Totals:         0       0       0       0       0
  5048 ;;Total ram usage:        0 bytes
  5049 ;; Hardware stack levels used:    1
  5050 ;; Hardware stack levels required when called:    2
  5051 ;; This function calls:
  5052 ;;		_send_config
  5053 ;;		_delay
  5054 ;; This function is called by:
  5055 ;;		_main
  5056 ;;		_mode1
  5057 ;;		_mode2
  5058 ;;		_mode3
  5059 ;; This function uses a non-reentrant model
  5060 ;;
  5061                           psect	text385
  5062                           	file	"C:\Users\Phang\Desktop\9.80\PR 22\PR22.c"
  5063                           	line	585
  5064                           	global	__size_of_lcd_clr
  5065  0014                     	__size_of_lcd_clr	equ	__end_of_lcd_clr-_lcd_clr
  5066                           	
  5067  0950                     _lcd_clr:	
  5068                           	opt	stack 4
  5069                           ; Regs used in _lcd_clr: [wreg+status,2+status,0+pclath+cstack]
  5070                           	line	586
  5071                           	
  5072  0950                     l3205:	
  5073                           ;PR22.c: 586: send_config(0x01);
  5074  0950  3001               	movlw	(01h)
  5075  0951  120A  158A  2181   	fcall	_send_config
              120A  158A         
  5076                           	line	587
  5077                           ;PR22.c: 587: delay(600);
  5078  0956  3000               	movlw	0
  5079  0957  00F3               	movwf	(?_delay+3)
  5080  0958  3000               	movlw	0
  5081  0959  00F2               	movwf	(?_delay+2)
  5082  095A  3002               	movlw	02h
  5083  095B  00F1               	movwf	(?_delay+1)
  5084  095C  3058               	movlw	058h
  5085  095D  00F0               	movwf	(?_delay)
  5086                           
  5087  095E  120A  158A  21F1   	fcall	_delay
              120A  158A         
  5088                           	line	588
  5089                           	
  5090  0963                     l645:	
  5091  0963  0008               	return
  5092                           	opt stack 0
  5093                           GLOBAL	__end_of_lcd_clr
  5094  0964                     	__end_of_lcd_clr:
  5095 ;; =============== function _lcd_clr ends ============
  5096                           
  5097                           	signat	_lcd_clr,88
  5098                           	global	_spi_start
  5099                           psect	text386,local,class=CODE,delta=2
  5100                           global __ptext386
  5101  0B06                     __ptext386:
  5102                           
  5103 ;; *************** function _spi_start *****************
  5104 ;; Defined at:
  5105 ;;		line 659 in file "C:\Users\Phang\Desktop\9.80\PR 22\PR22.c"
  5106 ;; Parameters:    Size  Location     Type
  5107 ;;  data            1    wreg     unsigned char 
  5108 ;; Auto vars:     Size  Location     Type
  5109 ;;  data            1    9[COMMON] unsigned char 
  5110 ;;  i               1   11[COMMON] unsigned char 
  5111 ;;  rcvb            1   10[COMMON] unsigned char 
  5112 ;; Return value:  Size  Location     Type
  5113 ;;                  1    wreg      unsigned char 
  5114 ;; Registers used:
  5115 ;;		wreg, status,2, status,0, pclath, cstack
  5116 ;; Tracked objects:
  5117 ;;		On entry : 0/0
  5118 ;;		On exit  : 0/0
  5119 ;;		Unchanged: 0/0
  5120 ;; Data sizes:     COMMON   BANK0   BANK1   BANK3   BANK2
  5121 ;;      Params:         0       0       0       0       0
  5122 ;;      Locals:         3       0       0       0       0
  5123 ;;      Temps:          1       0       0       0       0
  5124 ;;      Totals:         4       0       0       0       0
  5125 ;;Total ram usage:        4 bytes
  5126 ;; Hardware stack levels used:    1
  5127 ;; Hardware stack levels required when called:    1
  5128 ;; This function calls:
  5129 ;;		_delay
  5130 ;; This function is called by:
  5131 ;;		_spi_baro
  5132 ;; This function uses a non-reentrant model
  5133 ;;
  5134                           psect	text386
  5135                           	file	"C:\Users\Phang\Desktop\9.80\PR 22\PR22.c"
  5136                           	line	659
  5137                           	global	__size_of_spi_start
  5138  005A                     	__size_of_spi_start	equ	__end_of_spi_start-_spi_start
  5139                           	
  5140  0B06                     _spi_start:	
  5141                           	opt	stack 4
  5142                           ; Regs used in _spi_start: [wreg+status,2+status,0+pclath+cstack]
  5143                           ;spi_start@data stored from wreg
  5144  0B06  00F9               	movwf	(spi_start@data)
  5145                           	line	660
  5146                           	
  5147  0B07                     l3175:	
  5148                           ;PR22.c: 660: unsigned char rcvb = 0;
  5149  0B07  1003               	clrc
  5150  0B08  3000               	movlw	0
  5151  0B09  1803               	btfsc	status,0
  5152  0B0A  3001               	movlw	1
  5153  0B0B  00FA               	movwf	(spi_start@rcvb)
  5154                           	line	663
  5155                           ;PR22.c: 661: unsigned char i;
  5156                           ;PR22.c: 663: for(i = 0; i < 8; i ++)
  5157  0B0C  1003               	clrc
  5158  0B0D  3000               	movlw	0
  5159  0B0E  1803               	btfsc	status,0
  5160  0B0F  3001               	movlw	1
  5161  0B10  00FB               	movwf	(spi_start@i)
  5162                           	
  5163  0B11                     l3177:	
  5164  0B11  3008               	movlw	(08h)
  5165  0B12  027B               	subwf	(spi_start@i),w
  5166  0B13  1C03               	skipc
  5167  0B14  2B16               	goto	u3471
  5168  0B15  2B17               	goto	u3470
  5169  0B16                     u3471:
  5170  0B16  2B19               	goto	l699
  5171  0B17                     u3470:
  5172  0B17  2B5D               	goto	l3201
  5173                           	
  5174  0B18                     l3179:	
  5175  0B18  2B5D               	goto	l3201
  5176                           	line	664
  5177                           	
  5178  0B19                     l699:	
  5179                           	line	665
  5180                           ;PR22.c: 664: {
  5181                           ;PR22.c: 665: RC6 = 0;
  5182  0B19  1283               	bcf	status, 5	;RP0=0, select bank0
  5183  0B1A  1303               	bcf	status, 6	;RP1=0, select bank0
  5184  0B1B  1307               	bcf	(62/8),(62)&7
  5185                           	line	666
  5186                           	
  5187  0B1C                     l3181:	
  5188                           ;PR22.c: 666: delay(100);
  5189  0B1C  3000               	movlw	0
  5190  0B1D  00F3               	movwf	(?_delay+3)
  5191  0B1E  3000               	movlw	0
  5192  0B1F  00F2               	movwf	(?_delay+2)
  5193  0B20  3000               	movlw	0
  5194  0B21  00F1               	movwf	(?_delay+1)
  5195  0B22  3064               	movlw	064h
  5196  0B23  00F0               	movwf	(?_delay)
  5197                           
  5198  0B24  120A  158A  21F1   	fcall	_delay
              120A  158A         
  5199                           	line	667
  5200                           	
  5201  0B29                     l3183:	
  5202                           ;PR22.c: 667: RC7 = (data & 0x80)? 1: 0;
  5203  0B29  1BF9               	btfsc	(spi_start@data),(7)&7
  5204  0B2A  2B2C               	goto	u3481
  5205  0B2B  2B30               	goto	u3480
  5206                           	
  5207  0B2C                     u3481:
  5208  0B2C  1283               	bcf	status, 5	;RP0=0, select bank0
  5209  0B2D  1303               	bcf	status, 6	;RP1=0, select bank0
  5210  0B2E  1787               	bsf	(63/8),(63)&7
  5211  0B2F  2B33               	goto	u3494
  5212  0B30                     u3480:
  5213  0B30  1283               	bcf	status, 5	;RP0=0, select bank0
  5214  0B31  1303               	bcf	status, 6	;RP1=0, select bank0
  5215  0B32  1387               	bcf	(63/8),(63)&7
  5216  0B33                     u3494:
  5217                           	line	668
  5218                           	
  5219  0B33                     l3185:	
  5220                           ;PR22.c: 668: rcvb += RC5;
  5221  0B33  3000               	movlw	0
  5222  0B34  1A87               	btfsc	(61/8),(61)&7
  5223  0B35  3001               	movlw	1
  5224  0B36  00F8               	movwf	(??_spi_start+0)+0
  5225  0B37  0878               	movf	(??_spi_start+0)+0,w
  5226  0B38  07FA               	addwf	(spi_start@rcvb),f
  5227                           	line	669
  5228                           	
  5229  0B39                     l3187:	
  5230                           ;PR22.c: 669: data <<= 1;
  5231  0B39  1003               	clrc
  5232  0B3A  0DF9               	rlf	(spi_start@data),f
  5233                           
  5234                           	line	670
  5235                           	
  5236  0B3B                     l3189:	
  5237                           ;PR22.c: 670: if(i < 7)
  5238  0B3B  3007               	movlw	(07h)
  5239  0B3C  027B               	subwf	(spi_start@i),w
  5240  0B3D  1803               	skipnc
  5241  0B3E  2B40               	goto	u3501
  5242  0B3F  2B41               	goto	u3500
  5243  0B40                     u3501:
  5244  0B40  2B44               	goto	l3193
  5245  0B41                     u3500:
  5246                           	line	671
  5247                           	
  5248  0B41                     l3191:	
  5249                           ;PR22.c: 671: rcvb <<= 1;
  5250  0B41  1003               	clrc
  5251  0B42  0DFA               	rlf	(spi_start@rcvb),f
  5252                           
  5253  0B43  2B44               	goto	l3193
  5254                           	
  5255  0B44                     l701:	
  5256                           	line	672
  5257                           	
  5258  0B44                     l3193:	
  5259                           ;PR22.c: 672: RC6 = 1;
  5260  0B44  1707               	bsf	(62/8),(62)&7
  5261                           	line	673
  5262                           	
  5263  0B45                     l3195:	
  5264                           ;PR22.c: 673: delay(100);
  5265  0B45  3000               	movlw	0
  5266  0B46  00F3               	movwf	(?_delay+3)
  5267  0B47  3000               	movlw	0
  5268  0B48  00F2               	movwf	(?_delay+2)
  5269  0B49  3000               	movlw	0
  5270  0B4A  00F1               	movwf	(?_delay+1)
  5271  0B4B  3064               	movlw	064h
  5272  0B4C  00F0               	movwf	(?_delay)
  5273                           
  5274  0B4D  120A  158A  21F1   	fcall	_delay
              120A  158A         
  5275                           	line	663
  5276                           	
  5277  0B52                     l3197:	
  5278  0B52  3001               	movlw	(01h)
  5279  0B53  00F8               	movwf	(??_spi_start+0)+0
  5280  0B54  0878               	movf	(??_spi_start+0)+0,w
  5281  0B55  07FB               	addwf	(spi_start@i),f
  5282                           	
  5283  0B56                     l3199:	
  5284  0B56  3008               	movlw	(08h)
  5285  0B57  027B               	subwf	(spi_start@i),w
  5286  0B58  1C03               	skipc
  5287  0B59  2B5B               	goto	u3511
  5288  0B5A  2B5C               	goto	u3510
  5289  0B5B                     u3511:
  5290  0B5B  2B19               	goto	l699
  5291  0B5C                     u3510:
  5292  0B5C  2B5D               	goto	l3201
  5293                           	
  5294  0B5D                     l700:	
  5295                           	line	675
  5296                           	
  5297  0B5D                     l3201:	
  5298                           ;PR22.c: 674: }
  5299                           ;PR22.c: 675: return rcvb;
  5300  0B5D  087A               	movf	(spi_start@rcvb),w
  5301  0B5E  2B5F               	goto	l702
  5302                           	
  5303  0B5F                     l3203:	
  5304                           	line	676
  5305                           	
  5306  0B5F                     l702:	
  5307  0B5F  0008               	return
  5308                           	opt stack 0
  5309                           GLOBAL	__end_of_spi_start
  5310  0B60                     	__end_of_spi_start:
  5311 ;; =============== function _spi_start ends ============
  5312                           
  5313                           	signat	_spi_start,4217
  5314                           	global	_send_char
  5315                           psect	text387,local,class=CODE,delta=2
  5316                           global __ptext387
  5317  09A6                     __ptext387:
  5318                           
  5319 ;; *************** function _send_char *****************
  5320 ;; Defined at:
  5321 ;;		line 562 in file "C:\Users\Phang\Desktop\9.80\PR 22\PR22.c"
  5322 ;; Parameters:    Size  Location     Type
  5323 ;;  data            1    wreg     unsigned char 
  5324 ;; Auto vars:     Size  Location     Type
  5325 ;;  data            1    8[COMMON] unsigned char 
  5326 ;; Return value:  Size  Location     Type
  5327 ;;		None               void
  5328 ;; Registers used:
  5329 ;;		wreg, status,2, status,0, pclath, cstack
  5330 ;; Tracked objects:
  5331 ;;		On entry : 0/0
  5332 ;;		On exit  : 0/0
  5333 ;;		Unchanged: 0/0
  5334 ;; Data sizes:     COMMON   BANK0   BANK1   BANK3   BANK2
  5335 ;;      Params:         0       0       0       0       0
  5336 ;;      Locals:         1       0       0       0       0
  5337 ;;      Temps:          0       0       0       0       0
  5338 ;;      Totals:         1       0       0       0       0
  5339 ;;Total ram usage:        1 bytes
  5340 ;; Hardware stack levels used:    1
  5341 ;; Hardware stack levels required when called:    1
  5342 ;; This function calls:
  5343 ;;		_delay
  5344 ;; This function is called by:
  5345 ;;		_mode1
  5346 ;;		_mode2
  5347 ;;		_mode3
  5348 ;;		_send_string
  5349 ;; This function uses a non-reentrant model
  5350 ;;
  5351                           psect	text387
  5352                           	file	"C:\Users\Phang\Desktop\9.80\PR 22\PR22.c"
  5353                           	line	562
  5354                           	global	__size_of_send_char
  5355  0025                     	__size_of_send_char	equ	__end_of_send_char-_send_char
  5356                           	
  5357  09A6                     _send_char:	
  5358                           	opt	stack 5
  5359                           ; Regs used in _send_char: [wreg+status,2+status,0+pclath+cstack]
  5360                           ;send_char@data stored from wreg
  5361  09A6  00F8               	movwf	(send_char@data)
  5362                           	line	563
  5363                           	
  5364  09A7                     l3163:	
  5365                           ;PR22.c: 563: RC0=1;
  5366  09A7  1283               	bcf	status, 5	;RP0=0, select bank0
  5367  09A8  1303               	bcf	status, 6	;RP1=0, select bank0
  5368  09A9  1407               	bsf	(56/8),(56)&7
  5369                           	line	564
  5370                           	
  5371  09AA                     l3165:	
  5372                           ;PR22.c: 564: PORTB=data;
  5373  09AA  0878               	movf	(send_char@data),w
  5374  09AB  0086               	movwf	(6)	;volatile
  5375                           	line	565
  5376                           	
  5377  09AC                     l3167:	
  5378                           ;PR22.c: 565: RA5=1;
  5379  09AC  1685               	bsf	(45/8),(45)&7
  5380                           	line	566
  5381                           	
  5382  09AD                     l3169:	
  5383                           ;PR22.c: 566: delay(10);
  5384  09AD  3000               	movlw	0
  5385  09AE  00F3               	movwf	(?_delay+3)
  5386  09AF  3000               	movlw	0
  5387  09B0  00F2               	movwf	(?_delay+2)
  5388  09B1  3000               	movlw	0
  5389  09B2  00F1               	movwf	(?_delay+1)
  5390  09B3  300A               	movlw	0Ah
  5391  09B4  00F0               	movwf	(?_delay)
  5392                           
  5393  09B5  120A  158A  21F1   	fcall	_delay
              120A  158A         
  5394                           	line	567
  5395                           	
  5396  09BA                     l3171:	
  5397                           ;PR22.c: 567: RA5=0;
  5398  09BA  1283               	bcf	status, 5	;RP0=0, select bank0
  5399  09BB  1303               	bcf	status, 6	;RP1=0, select bank0
  5400  09BC  1285               	bcf	(45/8),(45)&7
  5401                           	line	568
  5402                           	
  5403  09BD                     l3173:	
  5404                           ;PR22.c: 568: delay(10);
  5405  09BD  3000               	movlw	0
  5406  09BE  00F3               	movwf	(?_delay+3)
  5407  09BF  3000               	movlw	0
  5408  09C0  00F2               	movwf	(?_delay+2)
  5409  09C1  3000               	movlw	0
  5410  09C2  00F1               	movwf	(?_delay+1)
  5411  09C3  300A               	movlw	0Ah
  5412  09C4  00F0               	movwf	(?_delay)
  5413                           
  5414  09C5  120A  158A  21F1   	fcall	_delay
              120A  158A         
  5415                           	line	569
  5416                           	
  5417  09CA                     l637:	
  5418  09CA  0008               	return
  5419                           	opt stack 0
  5420                           GLOBAL	__end_of_send_char
  5421  09CB                     	__end_of_send_char:
  5422 ;; =============== function _send_char ends ============
  5423                           
  5424                           	signat	_send_char,4216
  5425                           	global	_send_config
  5426                           psect	text388,local,class=CODE,delta=2
  5427                           global __ptext388
  5428  0981                     __ptext388:
  5429                           
  5430 ;; *************** function _send_config *****************
  5431 ;; Defined at:
  5432 ;;		line 552 in file "C:\Users\Phang\Desktop\9.80\PR 22\PR22.c"
  5433 ;; Parameters:    Size  Location     Type
  5434 ;;  data            1    wreg     unsigned char 
  5435 ;; Auto vars:     Size  Location     Type
  5436 ;;  data            1    8[COMMON] unsigned char 
  5437 ;; Return value:  Size  Location     Type
  5438 ;;		None               void
  5439 ;; Registers used:
  5440 ;;		wreg, status,2, status,0, pclath, cstack
  5441 ;; Tracked objects:
  5442 ;;		On entry : 0/0
  5443 ;;		On exit  : 0/0
  5444 ;;		Unchanged: 0/0
  5445 ;; Data sizes:     COMMON   BANK0   BANK1   BANK3   BANK2
  5446 ;;      Params:         0       0       0       0       0
  5447 ;;      Locals:         1       0       0       0       0
  5448 ;;      Temps:          0       0       0       0       0
  5449 ;;      Totals:         1       0       0       0       0
  5450 ;;Total ram usage:        1 bytes
  5451 ;; Hardware stack levels used:    1
  5452 ;; Hardware stack levels required when called:    1
  5453 ;; This function calls:
  5454 ;;		_delay
  5455 ;; This function is called by:
  5456 ;;		_main
  5457 ;;		_lcd_goto
  5458 ;;		_lcd_clr
  5459 ;; This function uses a non-reentrant model
  5460 ;;
  5461                           psect	text388
  5462                           	file	"C:\Users\Phang\Desktop\9.80\PR 22\PR22.c"
  5463                           	line	552
  5464                           	global	__size_of_send_config
  5465  0025                     	__size_of_send_config	equ	__end_of_send_config-_send_config
  5466                           	
  5467  0981                     _send_config:	
  5468                           	opt	stack 4
  5469                           ; Regs used in _send_config: [wreg+status,2+status,0+pclath+cstack]
  5470                           ;send_config@data stored from wreg
  5471  0981  00F8               	movwf	(send_config@data)
  5472                           	line	553
  5473                           	
  5474  0982                     l3151:	
  5475                           ;PR22.c: 553: RC0=0;
  5476  0982  1283               	bcf	status, 5	;RP0=0, select bank0
  5477  0983  1303               	bcf	status, 6	;RP1=0, select bank0
  5478  0984  1007               	bcf	(56/8),(56)&7
  5479                           	line	554
  5480                           	
  5481  0985                     l3153:	
  5482                           ;PR22.c: 554: PORTB=data;
  5483  0985  0878               	movf	(send_config@data),w
  5484  0986  0086               	movwf	(6)	;volatile
  5485                           	line	555
  5486                           	
  5487  0987                     l3155:	
  5488                           ;PR22.c: 555: RA5=1;
  5489  0987  1685               	bsf	(45/8),(45)&7
  5490                           	line	556
  5491                           	
  5492  0988                     l3157:	
  5493                           ;PR22.c: 556: delay(50);
  5494  0988  3000               	movlw	0
  5495  0989  00F3               	movwf	(?_delay+3)
  5496  098A  3000               	movlw	0
  5497  098B  00F2               	movwf	(?_delay+2)
  5498  098C  3000               	movlw	0
  5499  098D  00F1               	movwf	(?_delay+1)
  5500  098E  3032               	movlw	032h
  5501  098F  00F0               	movwf	(?_delay)
  5502                           
  5503  0990  120A  158A  21F1   	fcall	_delay
              120A  158A         
  5504                           	line	557
  5505                           	
  5506  0995                     l3159:	
  5507                           ;PR22.c: 557: RA5=0;
  5508  0995  1283               	bcf	status, 5	;RP0=0, select bank0
  5509  0996  1303               	bcf	status, 6	;RP1=0, select bank0
  5510  0997  1285               	bcf	(45/8),(45)&7
  5511                           	line	558
  5512                           	
  5513  0998                     l3161:	
  5514                           ;PR22.c: 558: delay(50);
  5515  0998  3000               	movlw	0
  5516  0999  00F3               	movwf	(?_delay+3)
  5517  099A  3000               	movlw	0
  5518  099B  00F2               	movwf	(?_delay+2)
  5519  099C  3000               	movlw	0
  5520  099D  00F1               	movwf	(?_delay+1)
  5521  099E  3032               	movlw	032h
  5522  099F  00F0               	movwf	(?_delay)
  5523                           
  5524  09A0  120A  158A  21F1   	fcall	_delay
              120A  158A         
  5525                           	line	559
  5526                           	
  5527  09A5                     l634:	
  5528  09A5  0008               	return
  5529                           	opt stack 0
  5530                           GLOBAL	__end_of_send_config
  5531  09A6                     	__end_of_send_config:
  5532 ;; =============== function _send_config ends ============
  5533                           
  5534                           	signat	_send_config,4216
  5535                           	global	___awmod
  5536                           psect	text389,local,class=CODE,delta=2
  5537                           global __ptext389
  5538  0BBC                     __ptext389:
  5539                           
  5540 ;; *************** function ___awmod *****************
  5541 ;; Defined at:
  5542 ;;		line 5 in file "C:\Program Files\HI-TECH Software\sources\awmod.c"
  5543 ;; Parameters:    Size  Location     Type
  5544 ;;  divisor         2    0[COMMON] int 
  5545 ;;  dividend        2    2[COMMON] int 
  5546 ;; Auto vars:     Size  Location     Type
  5547 ;;  sign            1    6[COMMON] unsigned char 
  5548 ;;  counter         1    5[COMMON] unsigned char 
  5549 ;; Return value:  Size  Location     Type
  5550 ;;                  2    0[COMMON] int 
  5551 ;; Registers used:
  5552 ;;		wreg, status,2, status,0
  5553 ;; Tracked objects:
  5554 ;;		On entry : 0/0
  5555 ;;		On exit  : 0/0
  5556 ;;		Unchanged: 0/0
  5557 ;; Data sizes:     COMMON   BANK0   BANK1   BANK3   BANK2
  5558 ;;      Params:         4       0       0       0       0
  5559 ;;      Locals:         2       0       0       0       0
  5560 ;;      Temps:          1       0       0       0       0
  5561 ;;      Totals:         7       0       0       0       0
  5562 ;;Total ram usage:        7 bytes
  5563 ;; Hardware stack levels used:    1
  5564 ;; This function calls:
  5565 ;;		Nothing
  5566 ;; This function is called by:
  5567 ;;		_mode2
  5568 ;; This function uses a non-reentrant model
  5569 ;;
  5570                           psect	text389
  5571                           	file	"C:\Program Files\HI-TECH Software\sources\awmod.c"
  5572                           	line	5
  5573                           	global	__size_of___awmod
  5574  006A                     	__size_of___awmod	equ	__end_of___awmod-___awmod
  5575                           	
  5576  0BBC                     ___awmod:	
  5577                           	opt	stack 6
  5578                           ; Regs used in ___awmod: [wreg+status,2+status,0]
  5579                           	line	8
  5580                           	
  5581  0BBC                     l3115:	
  5582  0BBC  1003               	clrc
  5583  0BBD  3000               	movlw	0
  5584  0BBE  1803               	btfsc	status,0
  5585  0BBF  3001               	movlw	1
  5586  0BC0  00F6               	movwf	(___awmod@sign)
  5587                           	line	9
  5588                           	
  5589  0BC1                     l3117:	
  5590  0BC1  1FF3               	btfss	(___awmod@dividend+1),7
  5591  0BC2  2BC4               	goto	u3381
  5592  0BC3  2BC5               	goto	u3380
  5593  0BC4                     u3381:
  5594  0BC4  2BCE               	goto	l3121
  5595  0BC5                     u3380:
  5596                           	line	10
  5597                           	
  5598  0BC5                     l3119:	
  5599  0BC5  09F2               	comf	(___awmod@dividend),f
  5600  0BC6  09F3               	comf	(___awmod@dividend+1),f
  5601  0BC7  0AF2               	incf	(___awmod@dividend),f
  5602  0BC8  1903               	skipnz
  5603  0BC9  0AF3               	incf	(___awmod@dividend+1),f
  5604                           	line	11
  5605  0BCA  01F6               	clrf	(___awmod@sign)
  5606  0BCB  1403               	bsf	status,0
  5607  0BCC  0DF6               	rlf	(___awmod@sign),f
  5608  0BCD  2BCE               	goto	l3121
  5609                           	line	12
  5610                           	
  5611  0BCE                     l919:	
  5612                           	line	13
  5613                           	
  5614  0BCE                     l3121:	
  5615  0BCE  1FF1               	btfss	(___awmod@divisor+1),7
  5616  0BCF  2BD1               	goto	u3391
  5617  0BD0  2BD2               	goto	u3390
  5618  0BD1                     u3391:
  5619  0BD1  2BD8               	goto	l3125
  5620  0BD2                     u3390:
  5621                           	line	14
  5622                           	
  5623  0BD2                     l3123:	
  5624  0BD2  09F0               	comf	(___awmod@divisor),f
  5625  0BD3  09F1               	comf	(___awmod@divisor+1),f
  5626  0BD4  0AF0               	incf	(___awmod@divisor),f
  5627  0BD5  1903               	skipnz
  5628  0BD6  0AF1               	incf	(___awmod@divisor+1),f
  5629  0BD7  2BD8               	goto	l3125
  5630                           	
  5631  0BD8                     l920:	
  5632                           	line	15
  5633                           	
  5634  0BD8                     l3125:	
  5635  0BD8  0871               	movf	(___awmod@divisor+1),w
  5636  0BD9  0470               	iorwf	(___awmod@divisor),w
  5637  0BDA  1903               	skipnz
  5638  0BDB  2BDD               	goto	u3401
  5639  0BDC  2BDE               	goto	u3400
  5640  0BDD                     u3401:
  5641  0BDD  2C14               	goto	l3143
  5642  0BDE                     u3400:
  5643                           	line	16
  5644                           	
  5645  0BDE                     l3127:	
  5646  0BDE  01F5               	clrf	(___awmod@counter)
  5647  0BDF  1403               	bsf	status,0
  5648  0BE0  0DF5               	rlf	(___awmod@counter),f
  5649                           	line	17
  5650  0BE1  2BEE               	goto	l3133
  5651                           	
  5652  0BE2                     l923:	
  5653                           	line	18
  5654                           	
  5655  0BE2                     l3129:	
  5656  0BE2  3001               	movlw	01h
  5657                           	
  5658  0BE3                     u3415:
  5659  0BE3  1003               	clrc
  5660  0BE4  0DF0               	rlf	(___awmod@divisor),f
  5661  0BE5  0DF1               	rlf	(___awmod@divisor+1),f
  5662  0BE6  3EFF               	addlw	-1
  5663  0BE7  1D03               	skipz
  5664  0BE8  2BE3               	goto	u3415
  5665                           	line	19
  5666                           	
  5667  0BE9                     l3131:	
  5668  0BE9  3001               	movlw	(01h)
  5669  0BEA  00F4               	movwf	(??___awmod+0)+0
  5670  0BEB  0874               	movf	(??___awmod+0)+0,w
  5671  0BEC  07F5               	addwf	(___awmod@counter),f
  5672  0BED  2BEE               	goto	l3133
  5673                           	line	20
  5674                           	
  5675  0BEE                     l922:	
  5676                           	line	17
  5677                           	
  5678  0BEE                     l3133:	
  5679  0BEE  1FF1               	btfss	(___awmod@divisor+1),(15)&7
  5680  0BEF  2BF1               	goto	u3421
  5681  0BF0  2BF2               	goto	u3420
  5682  0BF1                     u3421:
  5683  0BF1  2BE2               	goto	l3129
  5684  0BF2                     u3420:
  5685  0BF2  2BF4               	goto	l3135
  5686                           	
  5687  0BF3                     l924:	
  5688  0BF3  2BF4               	goto	l3135
  5689                           	line	21
  5690                           	
  5691  0BF4                     l925:	
  5692                           	line	22
  5693                           	
  5694  0BF4                     l3135:	
  5695  0BF4  0871               	movf	(___awmod@divisor+1),w
  5696  0BF5  0273               	subwf	(___awmod@dividend+1),w
  5697  0BF6  1D03               	skipz
  5698  0BF7  2BFA               	goto	u3435
  5699  0BF8  0870               	movf	(___awmod@divisor),w
  5700  0BF9  0272               	subwf	(___awmod@dividend),w
  5701  0BFA                     u3435:
  5702  0BFA  1C03               	skipc
  5703  0BFB  2BFD               	goto	u3431
  5704  0BFC  2BFE               	goto	u3430
  5705  0BFD                     u3431:
  5706  0BFD  2C05               	goto	l3139
  5707  0BFE                     u3430:
  5708                           	line	23
  5709                           	
  5710  0BFE                     l3137:	
  5711  0BFE  0870               	movf	(___awmod@divisor),w
  5712  0BFF  02F2               	subwf	(___awmod@dividend),f
  5713  0C00  0871               	movf	(___awmod@divisor+1),w
  5714  0C01  1C03               	skipc
  5715  0C02  03F3               	decf	(___awmod@dividend+1),f
  5716  0C03  02F3               	subwf	(___awmod@dividend+1),f
  5717  0C04  2C05               	goto	l3139
  5718                           	
  5719  0C05                     l926:	
  5720                           	line	24
  5721                           	
  5722  0C05                     l3139:	
  5723  0C05  3001               	movlw	01h
  5724                           	
  5725  0C06                     u3445:
  5726  0C06  1003               	clrc
  5727  0C07  0CF1               	rrf	(___awmod@divisor+1),f
  5728  0C08  0CF0               	rrf	(___awmod@divisor),f
  5729  0C09  3EFF               	addlw	-1
  5730  0C0A  1D03               	skipz
  5731  0C0B  2C06               	goto	u3445
  5732                           	line	25
  5733                           	
  5734  0C0C                     l3141:	
  5735  0C0C  3001               	movlw	low(01h)
  5736  0C0D  02F5               	subwf	(___awmod@counter),f
  5737  0C0E  1D03               	btfss	status,2
  5738  0C0F  2C11               	goto	u3451
  5739  0C10  2C12               	goto	u3450
  5740  0C11                     u3451:
  5741  0C11  2BF4               	goto	l3135
  5742  0C12                     u3450:
  5743  0C12  2C14               	goto	l3143
  5744                           	
  5745  0C13                     l927:	
  5746  0C13  2C14               	goto	l3143
  5747                           	line	26
  5748                           	
  5749  0C14                     l921:	
  5750                           	line	27
  5751                           	
  5752  0C14                     l3143:	
  5753  0C14  0876               	movf	(___awmod@sign),w
  5754  0C15  1D03               	skipz
  5755  0C16  2C18               	goto	u3460
  5756  0C17  2C1E               	goto	l3147
  5757  0C18                     u3460:
  5758                           	line	28
  5759                           	
  5760  0C18                     l3145:	
  5761  0C18  09F2               	comf	(___awmod@dividend),f
  5762  0C19  09F3               	comf	(___awmod@dividend+1),f
  5763  0C1A  0AF2               	incf	(___awmod@dividend),f
  5764  0C1B  1903               	skipnz
  5765  0C1C  0AF3               	incf	(___awmod@dividend+1),f
  5766  0C1D  2C1E               	goto	l3147
  5767                           	
  5768  0C1E                     l928:	
  5769                           	line	29
  5770                           	
  5771  0C1E                     l3147:	
  5772  0C1E  0873               	movf	(___awmod@dividend+1),w
  5773  0C1F  01F1               	clrf	(?___awmod+1)
  5774  0C20  07F1               	addwf	(?___awmod+1)
  5775  0C21  0872               	movf	(___awmod@dividend),w
  5776  0C22  01F0               	clrf	(?___awmod)
  5777  0C23  07F0               	addwf	(?___awmod)
  5778                           
  5779  0C24  2C25               	goto	l929
  5780                           	
  5781  0C25                     l3149:	
  5782                           	line	30
  5783                           	
  5784  0C25                     l929:	
  5785  0C25  0008               	return
  5786                           	opt stack 0
  5787                           GLOBAL	__end_of___awmod
  5788  0C26                     	__end_of___awmod:
  5789 ;; =============== function ___awmod ends ============
  5790                           
  5791                           	signat	___awmod,8314
  5792                           	global	___lldiv
  5793                           psect	text390,local,class=CODE,delta=2
  5794                           global __ptext390
  5795  0C26                     __ptext390:
  5796                           
  5797 ;; *************** function ___lldiv *****************
  5798 ;; Defined at:
  5799 ;;		line 5 in file "C:\Program Files\HI-TECH Software\sources\lldiv.c"
  5800 ;; Parameters:    Size  Location     Type
  5801 ;;  divisor         4    0[COMMON] unsigned long 
  5802 ;;  dividend        4    4[COMMON] unsigned long 
  5803 ;; Auto vars:     Size  Location     Type
  5804 ;;  quotient        4    9[COMMON] unsigned long 
  5805 ;;  counter         1   13[COMMON] unsigned char 
  5806 ;; Return value:  Size  Location     Type
  5807 ;;                  4    0[COMMON] unsigned long 
  5808 ;; Registers used:
  5809 ;;		wreg, status,2, status,0
  5810 ;; Tracked objects:
  5811 ;;		On entry : 0/0
  5812 ;;		On exit  : 0/0
  5813 ;;		Unchanged: 0/0
  5814 ;; Data sizes:     COMMON   BANK0   BANK1   BANK3   BANK2
  5815 ;;      Params:         8       0       0       0       0
  5816 ;;      Locals:         5       0       0       0       0
  5817 ;;      Temps:          1       0       0       0       0
  5818 ;;      Totals:        14       0       0       0       0
  5819 ;;Total ram usage:       14 bytes
  5820 ;; Hardware stack levels used:    1
  5821 ;; This function calls:
  5822 ;;		Nothing
  5823 ;; This function is called by:
  5824 ;;		_mode3
  5825 ;; This function uses a non-reentrant model
  5826 ;;
  5827                           psect	text390
  5828                           	file	"C:\Program Files\HI-TECH Software\sources\lldiv.c"
  5829                           	line	5
  5830                           	global	__size_of___lldiv
  5831  006E                     	__size_of___lldiv	equ	__end_of___lldiv-___lldiv
  5832                           	
  5833  0C26                     ___lldiv:	
  5834                           	opt	stack 6
  5835                           ; Regs used in ___lldiv: [wreg+status,2+status,0]
  5836                           	line	9
  5837                           	
  5838  0C26                     l3091:	
  5839  0C26  3000               	movlw	0
  5840  0C27  00FC               	movwf	(___lldiv@quotient+3)
  5841  0C28  3000               	movlw	0
  5842  0C29  00FB               	movwf	(___lldiv@quotient+2)
  5843  0C2A  3000               	movlw	0
  5844  0C2B  00FA               	movwf	(___lldiv@quotient+1)
  5845  0C2C  3000               	movlw	0
  5846  0C2D  00F9               	movwf	(___lldiv@quotient)
  5847                           
  5848                           	line	10
  5849  0C2E  0873               	movf	(___lldiv@divisor+3),w
  5850  0C2F  0472               	iorwf	(___lldiv@divisor+2),w
  5851  0C30  0471               	iorwf	(___lldiv@divisor+1),w
  5852  0C31  0470               	iorwf	(___lldiv@divisor),w
  5853  0C32  1903               	skipnz
  5854  0C33  2C35               	goto	u3311
  5855  0C34  2C36               	goto	u3310
  5856  0C35                     u3311:
  5857  0C35  2C8A               	goto	l3111
  5858  0C36                     u3310:
  5859                           	line	11
  5860                           	
  5861  0C36                     l3093:	
  5862  0C36  01FD               	clrf	(___lldiv@counter)
  5863  0C37  1403               	bsf	status,0
  5864  0C38  0DFD               	rlf	(___lldiv@counter),f
  5865                           	line	12
  5866  0C39  2C48               	goto	l3097
  5867                           	
  5868  0C3A                     l885:	
  5869                           	line	13
  5870                           	
  5871  0C3A                     l3095:	
  5872  0C3A  3001               	movlw	01h
  5873  0C3B  00F8               	movwf	(??___lldiv+0)+0
  5874  0C3C                     u3325:
  5875  0C3C  1003               	clrc
  5876  0C3D  0DF0               	rlf	(___lldiv@divisor),f
  5877  0C3E  0DF1               	rlf	(___lldiv@divisor+1),f
  5878  0C3F  0DF2               	rlf	(___lldiv@divisor+2),f
  5879  0C40  0DF3               	rlf	(___lldiv@divisor+3),f
  5880  0C41  0BF8               	decfsz	(??___lldiv+0)+0
  5881  0C42  2C3C               	goto	u3325
  5882                           	line	14
  5883  0C43  3001               	movlw	(01h)
  5884  0C44  00F8               	movwf	(??___lldiv+0)+0
  5885  0C45  0878               	movf	(??___lldiv+0)+0,w
  5886  0C46  07FD               	addwf	(___lldiv@counter),f
  5887  0C47  2C48               	goto	l3097
  5888                           	line	15
  5889                           	
  5890  0C48                     l884:	
  5891                           	line	12
  5892                           	
  5893  0C48                     l3097:	
  5894  0C48  1FF3               	btfss	(___lldiv@divisor+3),(31)&7
  5895  0C49  2C4B               	goto	u3331
  5896  0C4A  2C4C               	goto	u3330
  5897  0C4B                     u3331:
  5898  0C4B  2C3A               	goto	l3095
  5899  0C4C                     u3330:
  5900  0C4C  2C4E               	goto	l3099
  5901                           	
  5902  0C4D                     l886:	
  5903  0C4D  2C4E               	goto	l3099
  5904                           	line	16
  5905                           	
  5906  0C4E                     l887:	
  5907                           	line	17
  5908                           	
  5909  0C4E                     l3099:	
  5910  0C4E  3001               	movlw	01h
  5911  0C4F  00F8               	movwf	(??___lldiv+0)+0
  5912  0C50                     u3345:
  5913  0C50  1003               	clrc
  5914  0C51  0DF9               	rlf	(___lldiv@quotient),f
  5915  0C52  0DFA               	rlf	(___lldiv@quotient+1),f
  5916  0C53  0DFB               	rlf	(___lldiv@quotient+2),f
  5917  0C54  0DFC               	rlf	(___lldiv@quotient+3),f
  5918  0C55  0BF8               	decfsz	(??___lldiv+0)+0
  5919  0C56  2C50               	goto	u3345
  5920                           	line	18
  5921                           	
  5922  0C57                     l3101:	
  5923  0C57  0873               	movf	(___lldiv@divisor+3),w
  5924  0C58  0277               	subwf	(___lldiv@dividend+3),w
  5925  0C59  1D03               	skipz
  5926  0C5A  2C65               	goto	u3355
  5927  0C5B  0872               	movf	(___lldiv@divisor+2),w
  5928  0C5C  0276               	subwf	(___lldiv@dividend+2),w
  5929  0C5D  1D03               	skipz
  5930  0C5E  2C65               	goto	u3355
  5931  0C5F  0871               	movf	(___lldiv@divisor+1),w
  5932  0C60  0275               	subwf	(___lldiv@dividend+1),w
  5933  0C61  1D03               	skipz
  5934  0C62  2C65               	goto	u3355
  5935  0C63  0870               	movf	(___lldiv@divisor),w
  5936  0C64  0274               	subwf	(___lldiv@dividend),w
  5937  0C65                     u3355:
  5938  0C65  1C03               	skipc
  5939  0C66  2C68               	goto	u3351
  5940  0C67  2C69               	goto	u3350
  5941  0C68                     u3351:
  5942  0C68  2C79               	goto	l3107
  5943  0C69                     u3350:
  5944                           	line	19
  5945                           	
  5946  0C69                     l3103:	
  5947  0C69  0870               	movf	(___lldiv@divisor),w
  5948  0C6A  02F4               	subwf	(___lldiv@dividend),f
  5949  0C6B  0871               	movf	(___lldiv@divisor+1),w
  5950  0C6C  1C03               	skipc
  5951  0C6D  0F71               	incfsz	(___lldiv@divisor+1),w
  5952  0C6E  02F5               	subwf	(___lldiv@dividend+1),f
  5953  0C6F  0872               	movf	(___lldiv@divisor+2),w
  5954  0C70  1C03               	skipc
  5955  0C71  0F72               	incfsz	(___lldiv@divisor+2),w
  5956  0C72  02F6               	subwf	(___lldiv@dividend+2),f
  5957  0C73  0873               	movf	(___lldiv@divisor+3),w
  5958  0C74  1C03               	skipc
  5959  0C75  0F73               	incfsz	(___lldiv@divisor+3),w
  5960  0C76  02F7               	subwf	(___lldiv@dividend+3),f
  5961                           	line	20
  5962                           	
  5963  0C77                     l3105:	
  5964  0C77  1479               	bsf	(___lldiv@quotient)+(0/8),(0)&7
  5965  0C78  2C79               	goto	l3107
  5966                           	line	21
  5967                           	
  5968  0C79                     l888:	
  5969                           	line	22
  5970                           	
  5971  0C79                     l3107:	
  5972  0C79  3001               	movlw	01h
  5973  0C7A                     u3365:
  5974  0C7A  1003               	clrc
  5975  0C7B  0CF3               	rrf	(___lldiv@divisor+3),f
  5976  0C7C  0CF2               	rrf	(___lldiv@divisor+2),f
  5977  0C7D  0CF1               	rrf	(___lldiv@divisor+1),f
  5978  0C7E  0CF0               	rrf	(___lldiv@divisor),f
  5979  0C7F  3EFF               	addlw	-1
  5980  0C80  1D03               	skipz
  5981  0C81  2C7A               	goto	u3365
  5982                           
  5983                           	line	23
  5984                           	
  5985  0C82                     l3109:	
  5986  0C82  3001               	movlw	low(01h)
  5987  0C83  02FD               	subwf	(___lldiv@counter),f
  5988  0C84  1D03               	btfss	status,2
  5989  0C85  2C87               	goto	u3371
  5990  0C86  2C88               	goto	u3370
  5991  0C87                     u3371:
  5992  0C87  2C4E               	goto	l3099
  5993  0C88                     u3370:
  5994  0C88  2C8A               	goto	l3111
  5995                           	
  5996  0C89                     l889:	
  5997  0C89  2C8A               	goto	l3111
  5998                           	line	24
  5999                           	
  6000  0C8A                     l883:	
  6001                           	line	25
  6002                           	
  6003  0C8A                     l3111:	
  6004  0C8A  087C               	movf	(___lldiv@quotient+3),w
  6005  0C8B  00F3               	movwf	(?___lldiv+3)
  6006  0C8C  087B               	movf	(___lldiv@quotient+2),w
  6007  0C8D  00F2               	movwf	(?___lldiv+2)
  6008  0C8E  087A               	movf	(___lldiv@quotient+1),w
  6009  0C8F  00F1               	movwf	(?___lldiv+1)
  6010  0C90  0879               	movf	(___lldiv@quotient),w
  6011  0C91  00F0               	movwf	(?___lldiv)
  6012                           
  6013  0C92  2C93               	goto	l890
  6014                           	
  6015  0C93                     l3113:	
  6016                           	line	26
  6017                           	
  6018  0C93                     l890:	
  6019  0C93  0008               	return
  6020                           	opt stack 0
  6021                           GLOBAL	__end_of___lldiv
  6022  0C94                     	__end_of___lldiv:
  6023 ;; =============== function ___lldiv ends ============
  6024                           
  6025                           	signat	___lldiv,8316
  6026                           	global	___llmod
  6027                           psect	text391,local,class=CODE,delta=2
  6028                           global __ptext391
  6029  0B60                     __ptext391:
  6030                           
  6031 ;; *************** function ___llmod *****************
  6032 ;; Defined at:
  6033 ;;		line 5 in file "C:\Program Files\HI-TECH Software\sources\llmod.c"
  6034 ;; Parameters:    Size  Location     Type
  6035 ;;  divisor         4    0[COMMON] unsigned long 
  6036 ;;  dividend        4    4[COMMON] unsigned long 
  6037 ;; Auto vars:     Size  Location     Type
  6038 ;;  counter         1    9[COMMON] unsigned char 
  6039 ;; Return value:  Size  Location     Type
  6040 ;;                  4    0[COMMON] unsigned long 
  6041 ;; Registers used:
  6042 ;;		wreg, status,2, status,0
  6043 ;; Tracked objects:
  6044 ;;		On entry : 0/0
  6045 ;;		On exit  : 0/0
  6046 ;;		Unchanged: 0/0
  6047 ;; Data sizes:     COMMON   BANK0   BANK1   BANK3   BANK2
  6048 ;;      Params:         8       0       0       0       0
  6049 ;;      Locals:         1       0       0       0       0
  6050 ;;      Temps:          1       0       0       0       0
  6051 ;;      Totals:        10       0       0       0       0
  6052 ;;Total ram usage:       10 bytes
  6053 ;; Hardware stack levels used:    1
  6054 ;; This function calls:
  6055 ;;		Nothing
  6056 ;; This function is called by:
  6057 ;;		_mode3
  6058 ;; This function uses a non-reentrant model
  6059 ;;
  6060                           psect	text391
  6061                           	file	"C:\Program Files\HI-TECH Software\sources\llmod.c"
  6062                           	line	5
  6063                           	global	__size_of___llmod
  6064  005C                     	__size_of___llmod	equ	__end_of___llmod-___llmod
  6065                           	
  6066  0B60                     ___llmod:	
  6067                           	opt	stack 6
  6068                           ; Regs used in ___llmod: [wreg+status,2+status,0]
  6069                           	line	8
  6070                           	
  6071  0B60                     l3071:	
  6072  0B60  0873               	movf	(___llmod@divisor+3),w
  6073  0B61  0472               	iorwf	(___llmod@divisor+2),w
  6074  0B62  0471               	iorwf	(___llmod@divisor+1),w
  6075  0B63  0470               	iorwf	(___llmod@divisor),w
  6076  0B64  1903               	skipnz
  6077  0B65  2B67               	goto	u3251
  6078  0B66  2B68               	goto	u3250
  6079  0B67                     u3251:
  6080  0B67  2BB2               	goto	l3087
  6081  0B68                     u3250:
  6082                           	line	9
  6083                           	
  6084  0B68                     l3073:	
  6085  0B68  01F9               	clrf	(___llmod@counter)
  6086  0B69  1403               	bsf	status,0
  6087  0B6A  0DF9               	rlf	(___llmod@counter),f
  6088                           	line	10
  6089  0B6B  2B7A               	goto	l3077
  6090                           	
  6091  0B6C                     l866:	
  6092                           	line	11
  6093                           	
  6094  0B6C                     l3075:	
  6095  0B6C  3001               	movlw	01h
  6096  0B6D  00F8               	movwf	(??___llmod+0)+0
  6097  0B6E                     u3265:
  6098  0B6E  1003               	clrc
  6099  0B6F  0DF0               	rlf	(___llmod@divisor),f
  6100  0B70  0DF1               	rlf	(___llmod@divisor+1),f
  6101  0B71  0DF2               	rlf	(___llmod@divisor+2),f
  6102  0B72  0DF3               	rlf	(___llmod@divisor+3),f
  6103  0B73  0BF8               	decfsz	(??___llmod+0)+0
  6104  0B74  2B6E               	goto	u3265
  6105                           	line	12
  6106  0B75  3001               	movlw	(01h)
  6107  0B76  00F8               	movwf	(??___llmod+0)+0
  6108  0B77  0878               	movf	(??___llmod+0)+0,w
  6109  0B78  07F9               	addwf	(___llmod@counter),f
  6110  0B79  2B7A               	goto	l3077
  6111                           	line	13
  6112                           	
  6113  0B7A                     l865:	
  6114                           	line	10
  6115                           	
  6116  0B7A                     l3077:	
  6117  0B7A  1FF3               	btfss	(___llmod@divisor+3),(31)&7
  6118  0B7B  2B7D               	goto	u3271
  6119  0B7C  2B7E               	goto	u3270
  6120  0B7D                     u3271:
  6121  0B7D  2B6C               	goto	l3075
  6122  0B7E                     u3270:
  6123  0B7E  2B80               	goto	l3079
  6124                           	
  6125  0B7F                     l867:	
  6126  0B7F  2B80               	goto	l3079
  6127                           	line	14
  6128                           	
  6129  0B80                     l868:	
  6130                           	line	15
  6131                           	
  6132  0B80                     l3079:	
  6133  0B80  0873               	movf	(___llmod@divisor+3),w
  6134  0B81  0277               	subwf	(___llmod@dividend+3),w
  6135  0B82  1D03               	skipz
  6136  0B83  2B8E               	goto	u3285
  6137  0B84  0872               	movf	(___llmod@divisor+2),w
  6138  0B85  0276               	subwf	(___llmod@dividend+2),w
  6139  0B86  1D03               	skipz
  6140  0B87  2B8E               	goto	u3285
  6141  0B88  0871               	movf	(___llmod@divisor+1),w
  6142  0B89  0275               	subwf	(___llmod@dividend+1),w
  6143  0B8A  1D03               	skipz
  6144  0B8B  2B8E               	goto	u3285
  6145  0B8C  0870               	movf	(___llmod@divisor),w
  6146  0B8D  0274               	subwf	(___llmod@dividend),w
  6147  0B8E                     u3285:
  6148  0B8E  1C03               	skipc
  6149  0B8F  2B91               	goto	u3281
  6150  0B90  2B92               	goto	u3280
  6151  0B91                     u3281:
  6152  0B91  2BA1               	goto	l3083
  6153  0B92                     u3280:
  6154                           	line	16
  6155                           	
  6156  0B92                     l3081:	
  6157  0B92  0870               	movf	(___llmod@divisor),w
  6158  0B93  02F4               	subwf	(___llmod@dividend),f
  6159  0B94  0871               	movf	(___llmod@divisor+1),w
  6160  0B95  1C03               	skipc
  6161  0B96  0F71               	incfsz	(___llmod@divisor+1),w
  6162  0B97  02F5               	subwf	(___llmod@dividend+1),f
  6163  0B98  0872               	movf	(___llmod@divisor+2),w
  6164  0B99  1C03               	skipc
  6165  0B9A  0F72               	incfsz	(___llmod@divisor+2),w
  6166  0B9B  02F6               	subwf	(___llmod@dividend+2),f
  6167  0B9C  0873               	movf	(___llmod@divisor+3),w
  6168  0B9D  1C03               	skipc
  6169  0B9E  0F73               	incfsz	(___llmod@divisor+3),w
  6170  0B9F  02F7               	subwf	(___llmod@dividend+3),f
  6171  0BA0  2BA1               	goto	l3083
  6172                           	
  6173  0BA1                     l869:	
  6174                           	line	17
  6175                           	
  6176  0BA1                     l3083:	
  6177  0BA1  3001               	movlw	01h
  6178  0BA2                     u3295:
  6179  0BA2  1003               	clrc
  6180  0BA3  0CF3               	rrf	(___llmod@divisor+3),f
  6181  0BA4  0CF2               	rrf	(___llmod@divisor+2),f
  6182  0BA5  0CF1               	rrf	(___llmod@divisor+1),f
  6183  0BA6  0CF0               	rrf	(___llmod@divisor),f
  6184  0BA7  3EFF               	addlw	-1
  6185  0BA8  1D03               	skipz
  6186  0BA9  2BA2               	goto	u3295
  6187                           
  6188                           	line	18
  6189                           	
  6190  0BAA                     l3085:	
  6191  0BAA  3001               	movlw	low(01h)
  6192  0BAB  02F9               	subwf	(___llmod@counter),f
  6193  0BAC  1D03               	btfss	status,2
  6194  0BAD  2BAF               	goto	u3301
  6195  0BAE  2BB0               	goto	u3300
  6196  0BAF                     u3301:
  6197  0BAF  2B80               	goto	l3079
  6198  0BB0                     u3300:
  6199  0BB0  2BB2               	goto	l3087
  6200                           	
  6201  0BB1                     l870:	
  6202  0BB1  2BB2               	goto	l3087
  6203                           	line	19
  6204                           	
  6205  0BB2                     l864:	
  6206                           	line	20
  6207                           	
  6208  0BB2                     l3087:	
  6209  0BB2  0877               	movf	(___llmod@dividend+3),w
  6210  0BB3  00F3               	movwf	(?___llmod+3)
  6211  0BB4  0876               	movf	(___llmod@dividend+2),w
  6212  0BB5  00F2               	movwf	(?___llmod+2)
  6213  0BB6  0875               	movf	(___llmod@dividend+1),w
  6214  0BB7  00F1               	movwf	(?___llmod+1)
  6215  0BB8  0874               	movf	(___llmod@dividend),w
  6216  0BB9  00F0               	movwf	(?___llmod)
  6217                           
  6218  0BBA  2BBB               	goto	l871
  6219                           	
  6220  0BBB                     l3089:	
  6221                           	line	21
  6222                           	
  6223  0BBB                     l871:	
  6224  0BBB  0008               	return
  6225                           	opt stack 0
  6226                           GLOBAL	__end_of___llmod
  6227  0BBC                     	__end_of___llmod:
  6228 ;; =============== function ___llmod ends ============
  6229                           
  6230                           	signat	___llmod,8316
  6231                           	global	___awdiv
  6232                           psect	text392,local,class=CODE,delta=2
  6233                           global __ptext392
  6234  000B                     __ptext392:
  6235                           
  6236 ;; *************** function ___awdiv *****************
  6237 ;; Defined at:
  6238 ;;		line 5 in file "C:\Program Files\HI-TECH Software\sources\awdiv.c"
  6239 ;; Parameters:    Size  Location     Type
  6240 ;;  divisor         2    7[COMMON] int 
  6241 ;;  dividend        2    9[COMMON] int 
  6242 ;; Auto vars:     Size  Location     Type
  6243 ;;  quotient        2    2[BANK0 ] int 
  6244 ;;  sign            1    1[BANK0 ] unsigned char 
  6245 ;;  counter         1    0[BANK0 ] unsigned char 
  6246 ;; Return value:  Size  Location     Type
  6247 ;;                  2    7[COMMON] int 
  6248 ;; Registers used:
  6249 ;;		wreg, status,2, status,0
  6250 ;; Tracked objects:
  6251 ;;		On entry : 0/0
  6252 ;;		On exit  : 0/0
  6253 ;;		Unchanged: 0/0
  6254 ;; Data sizes:     COMMON   BANK0   BANK1   BANK3   BANK2
  6255 ;;      Params:         4       0       0       0       0
  6256 ;;      Locals:         0       4       0       0       0
  6257 ;;      Temps:          1       0       0       0       0
  6258 ;;      Totals:         5       4       0       0       0
  6259 ;;Total ram usage:        9 bytes
  6260 ;; Hardware stack levels used:    1
  6261 ;; This function calls:
  6262 ;;		Nothing
  6263 ;; This function is called by:
  6264 ;;		_mode2
  6265 ;; This function uses a non-reentrant model
  6266 ;;
  6267                           psect	text392
  6268                           	file	"C:\Program Files\HI-TECH Software\sources\awdiv.c"
  6269                           	line	5
  6270                           	global	__size_of___awdiv
  6271  007B                     	__size_of___awdiv	equ	__end_of___awdiv-___awdiv
  6272                           	
  6273  000B                     ___awdiv:	
  6274                           	opt	stack 6
  6275                           ; Regs used in ___awdiv: [wreg+status,2+status,0]
  6276                           	line	9
  6277                           	
  6278  000B                     l3033:	
  6279  000B  1003               	clrc
  6280  000C  3000               	movlw	0
  6281  000D  1803               	btfsc	status,0
  6282  000E  3001               	movlw	1
  6283  000F  1283               	bcf	status, 5	;RP0=0, select bank0
  6284  0010  1303               	bcf	status, 6	;RP1=0, select bank0
  6285  0011  00A1               	movwf	(___awdiv@sign)
  6286                           	line	10
  6287                           	
  6288  0012                     l3035:	
  6289  0012  1FF8               	btfss	(___awdiv@divisor+1),7
  6290  0013  2815               	goto	u3151
  6291  0014  2816               	goto	u3150
  6292  0015                     u3151:
  6293  0015  281F               	goto	l3039
  6294  0016                     u3150:
  6295                           	line	11
  6296                           	
  6297  0016                     l3037:	
  6298  0016  09F7               	comf	(___awdiv@divisor),f
  6299  0017  09F8               	comf	(___awdiv@divisor+1),f
  6300  0018  0AF7               	incf	(___awdiv@divisor),f
  6301  0019  1903               	skipnz
  6302  001A  0AF8               	incf	(___awdiv@divisor+1),f
  6303                           	line	12
  6304  001B  01A1               	clrf	(___awdiv@sign)
  6305  001C  1403               	bsf	status,0
  6306  001D  0DA1               	rlf	(___awdiv@sign),f
  6307  001E  281F               	goto	l3039
  6308                           	line	13
  6309                           	
  6310  001F                     l851:	
  6311                           	line	14
  6312                           	
  6313  001F                     l3039:	
  6314  001F  1FFA               	btfss	(___awdiv@dividend+1),7
  6315  0020  2822               	goto	u3161
  6316  0021  2823               	goto	u3160
  6317  0022                     u3161:
  6318  0022  282C               	goto	l852
  6319  0023                     u3160:
  6320                           	line	15
  6321                           	
  6322  0023                     l3041:	
  6323  0023  09F9               	comf	(___awdiv@dividend),f
  6324  0024  09FA               	comf	(___awdiv@dividend+1),f
  6325  0025  0AF9               	incf	(___awdiv@dividend),f
  6326  0026  1903               	skipnz
  6327  0027  0AFA               	incf	(___awdiv@dividend+1),f
  6328                           	line	16
  6329                           	
  6330  0028                     l3043:	
  6331  0028  3001               	movlw	(01h)
  6332  0029  00FB               	movwf	(??___awdiv+0)+0
  6333  002A  087B               	movf	(??___awdiv+0)+0,w
  6334  002B  06A1               	xorwf	(___awdiv@sign),f
  6335                           	line	17
  6336                           	
  6337  002C                     l852:	
  6338                           	line	18
  6339  002C  3000               	movlw	low(0)
  6340  002D  00A2               	movwf	(___awdiv@quotient)
  6341  002E  3000               	movlw	high(0)
  6342  002F  00A3               	movwf	((___awdiv@quotient))+1
  6343                           	line	19
  6344  0030  0878               	movf	(___awdiv@divisor+1),w
  6345  0031  0477               	iorwf	(___awdiv@divisor),w
  6346  0032  1903               	skipnz
  6347  0033  2835               	goto	u3171
  6348  0034  2836               	goto	u3170
  6349  0035                     u3171:
  6350  0035  2874               	goto	l3063
  6351  0036                     u3170:
  6352                           	line	20
  6353                           	
  6354  0036                     l3045:	
  6355  0036  01A0               	clrf	(___awdiv@counter)
  6356  0037  1403               	bsf	status,0
  6357  0038  0DA0               	rlf	(___awdiv@counter),f
  6358                           	line	21
  6359  0039  2846               	goto	l3051
  6360                           	
  6361  003A                     l855:	
  6362                           	line	22
  6363                           	
  6364  003A                     l3047:	
  6365  003A  3001               	movlw	01h
  6366                           	
  6367  003B                     u3185:
  6368  003B  1003               	clrc
  6369  003C  0DF7               	rlf	(___awdiv@divisor),f
  6370  003D  0DF8               	rlf	(___awdiv@divisor+1),f
  6371  003E  3EFF               	addlw	-1
  6372  003F  1D03               	skipz
  6373  0040  283B               	goto	u3185
  6374                           	line	23
  6375                           	
  6376  0041                     l3049:	
  6377  0041  3001               	movlw	(01h)
  6378  0042  00FB               	movwf	(??___awdiv+0)+0
  6379  0043  087B               	movf	(??___awdiv+0)+0,w
  6380  0044  07A0               	addwf	(___awdiv@counter),f
  6381  0045  2846               	goto	l3051
  6382                           	line	24
  6383                           	
  6384  0046                     l854:	
  6385                           	line	21
  6386                           	
  6387  0046                     l3051:	
  6388  0046  1FF8               	btfss	(___awdiv@divisor+1),(15)&7
  6389  0047  2849               	goto	u3191
  6390  0048  284A               	goto	u3190
  6391  0049                     u3191:
  6392  0049  283A               	goto	l3047
  6393  004A                     u3190:
  6394  004A  284C               	goto	l3053
  6395                           	
  6396  004B                     l856:	
  6397  004B  284C               	goto	l3053
  6398                           	line	25
  6399                           	
  6400  004C                     l857:	
  6401                           	line	26
  6402                           	
  6403  004C                     l3053:	
  6404  004C  3001               	movlw	01h
  6405                           	
  6406  004D                     u3205:
  6407  004D  1003               	clrc
  6408  004E  0DA2               	rlf	(___awdiv@quotient),f
  6409  004F  0DA3               	rlf	(___awdiv@quotient+1),f
  6410  0050  3EFF               	addlw	-1
  6411  0051  1D03               	skipz
  6412  0052  284D               	goto	u3205
  6413                           	line	27
  6414  0053  0878               	movf	(___awdiv@divisor+1),w
  6415  0054  027A               	subwf	(___awdiv@dividend+1),w
  6416  0055  1D03               	skipz
  6417  0056  2859               	goto	u3215
  6418  0057  0877               	movf	(___awdiv@divisor),w
  6419  0058  0279               	subwf	(___awdiv@dividend),w
  6420  0059                     u3215:
  6421  0059  1C03               	skipc
  6422  005A  285C               	goto	u3211
  6423  005B  285D               	goto	u3210
  6424  005C                     u3211:
  6425  005C  2865               	goto	l3059
  6426  005D                     u3210:
  6427                           	line	28
  6428                           	
  6429  005D                     l3055:	
  6430  005D  0877               	movf	(___awdiv@divisor),w
  6431  005E  02F9               	subwf	(___awdiv@dividend),f
  6432  005F  0878               	movf	(___awdiv@divisor+1),w
  6433  0060  1C03               	skipc
  6434  0061  03FA               	decf	(___awdiv@dividend+1),f
  6435  0062  02FA               	subwf	(___awdiv@dividend+1),f
  6436                           	line	29
  6437                           	
  6438  0063                     l3057:	
  6439  0063  1422               	bsf	(___awdiv@quotient)+(0/8),(0)&7
  6440  0064  2865               	goto	l3059
  6441                           	line	30
  6442                           	
  6443  0065                     l858:	
  6444                           	line	31
  6445                           	
  6446  0065                     l3059:	
  6447  0065  3001               	movlw	01h
  6448                           	
  6449  0066                     u3225:
  6450  0066  1003               	clrc
  6451  0067  0CF8               	rrf	(___awdiv@divisor+1),f
  6452  0068  0CF7               	rrf	(___awdiv@divisor),f
  6453  0069  3EFF               	addlw	-1
  6454  006A  1D03               	skipz
  6455  006B  2866               	goto	u3225
  6456                           	line	32
  6457                           	
  6458  006C                     l3061:	
  6459  006C  3001               	movlw	low(01h)
  6460  006D  02A0               	subwf	(___awdiv@counter),f
  6461  006E  1D03               	btfss	status,2
  6462  006F  2871               	goto	u3231
  6463  0070  2872               	goto	u3230
  6464  0071                     u3231:
  6465  0071  284C               	goto	l3053
  6466  0072                     u3230:
  6467  0072  2874               	goto	l3063
  6468                           	
  6469  0073                     l859:	
  6470  0073  2874               	goto	l3063
  6471                           	line	33
  6472                           	
  6473  0074                     l853:	
  6474                           	line	34
  6475                           	
  6476  0074                     l3063:	
  6477  0074  0821               	movf	(___awdiv@sign),w
  6478  0075  1D03               	skipz
  6479  0076  2878               	goto	u3240
  6480  0077  287E               	goto	l3067
  6481  0078                     u3240:
  6482                           	line	35
  6483                           	
  6484  0078                     l3065:	
  6485  0078  09A2               	comf	(___awdiv@quotient),f
  6486  0079  09A3               	comf	(___awdiv@quotient+1),f
  6487  007A  0AA2               	incf	(___awdiv@quotient),f
  6488  007B  1903               	skipnz
  6489  007C  0AA3               	incf	(___awdiv@quotient+1),f
  6490  007D  287E               	goto	l3067
  6491                           	
  6492  007E                     l860:	
  6493                           	line	36
  6494                           	
  6495  007E                     l3067:	
  6496  007E  0823               	movf	(___awdiv@quotient+1),w
  6497  007F  01F8               	clrf	(?___awdiv+1)
  6498  0080  07F8               	addwf	(?___awdiv+1)
  6499  0081  0822               	movf	(___awdiv@quotient),w
  6500  0082  01F7               	clrf	(?___awdiv)
  6501  0083  07F7               	addwf	(?___awdiv)
  6502                           
  6503  0084  2885               	goto	l861
  6504                           	
  6505  0085                     l3069:	
  6506                           	line	37
  6507                           	
  6508  0085                     l861:	
  6509  0085  0008               	return
  6510                           	opt stack 0
  6511                           GLOBAL	__end_of___awdiv
  6512  0086                     	__end_of___awdiv:
  6513 ;; =============== function ___awdiv ends ============
  6514                           
  6515                           	signat	___awdiv,8314
  6516                           	global	___lwmod
  6517                           psect	text393,local,class=CODE,delta=2
  6518                           global __ptext393
  6519  0A21                     __ptext393:
  6520                           
  6521 ;; *************** function ___lwmod *****************
  6522 ;; Defined at:
  6523 ;;		line 5 in file "C:\Program Files\HI-TECH Software\sources\lwmod.c"
  6524 ;; Parameters:    Size  Location     Type
  6525 ;;  divisor         2    0[COMMON] unsigned int 
  6526 ;;  dividend        2    2[COMMON] unsigned int 
  6527 ;; Auto vars:     Size  Location     Type
  6528 ;;  counter         1    5[COMMON] unsigned char 
  6529 ;; Return value:  Size  Location     Type
  6530 ;;                  2    0[COMMON] unsigned int 
  6531 ;; Registers used:
  6532 ;;		wreg, status,2, status,0
  6533 ;; Tracked objects:
  6534 ;;		On entry : 0/0
  6535 ;;		On exit  : 0/0
  6536 ;;		Unchanged: 0/0
  6537 ;; Data sizes:     COMMON   BANK0   BANK1   BANK3   BANK2
  6538 ;;      Params:         4       0       0       0       0
  6539 ;;      Locals:         1       0       0       0       0
  6540 ;;      Temps:          1       0       0       0       0
  6541 ;;      Totals:         6       0       0       0       0
  6542 ;;Total ram usage:        6 bytes
  6543 ;; Hardware stack levels used:    1
  6544 ;; This function calls:
  6545 ;;		Nothing
  6546 ;; This function is called by:
  6547 ;;		_mode1
  6548 ;;		_mode2
  6549 ;;		_mode3
  6550 ;; This function uses a non-reentrant model
  6551 ;;
  6552                           psect	text393
  6553                           	file	"C:\Program Files\HI-TECH Software\sources\lwmod.c"
  6554                           	line	5
  6555                           	global	__size_of___lwmod
  6556  0044                     	__size_of___lwmod	equ	__end_of___lwmod-___lwmod
  6557                           	
  6558  0A21                     ___lwmod:	
  6559                           	opt	stack 6
  6560                           ; Regs used in ___lwmod: [wreg+status,2+status,0]
  6561                           	line	8
  6562                           	
  6563  0A21                     l3011:	
  6564  0A21  0871               	movf	(___lwmod@divisor+1),w
  6565  0A22  0470               	iorwf	(___lwmod@divisor),w
  6566  0A23  1903               	skipnz
  6567  0A24  2A26               	goto	u3091
  6568  0A25  2A27               	goto	u3090
  6569  0A26                     u3091:
  6570  0A26  2A5D               	goto	l3029
  6571  0A27                     u3090:
  6572                           	line	9
  6573                           	
  6574  0A27                     l3013:	
  6575  0A27  01F5               	clrf	(___lwmod@counter)
  6576  0A28  1403               	bsf	status,0
  6577  0A29  0DF5               	rlf	(___lwmod@counter),f
  6578                           	line	10
  6579  0A2A  2A37               	goto	l3019
  6580                           	
  6581  0A2B                     l729:	
  6582                           	line	11
  6583                           	
  6584  0A2B                     l3015:	
  6585  0A2B  3001               	movlw	01h
  6586                           	
  6587  0A2C                     u3105:
  6588  0A2C  1003               	clrc
  6589  0A2D  0DF0               	rlf	(___lwmod@divisor),f
  6590  0A2E  0DF1               	rlf	(___lwmod@divisor+1),f
  6591  0A2F  3EFF               	addlw	-1
  6592  0A30  1D03               	skipz
  6593  0A31  2A2C               	goto	u3105
  6594                           	line	12
  6595                           	
  6596  0A32                     l3017:	
  6597  0A32  3001               	movlw	(01h)
  6598  0A33  00F4               	movwf	(??___lwmod+0)+0
  6599  0A34  0874               	movf	(??___lwmod+0)+0,w
  6600  0A35  07F5               	addwf	(___lwmod@counter),f
  6601  0A36  2A37               	goto	l3019
  6602                           	line	13
  6603                           	
  6604  0A37                     l728:	
  6605                           	line	10
  6606                           	
  6607  0A37                     l3019:	
  6608  0A37  1FF1               	btfss	(___lwmod@divisor+1),(15)&7
  6609  0A38  2A3A               	goto	u3111
  6610  0A39  2A3B               	goto	u3110
  6611  0A3A                     u3111:
  6612  0A3A  2A2B               	goto	l3015
  6613  0A3B                     u3110:
  6614  0A3B  2A3D               	goto	l3021
  6615                           	
  6616  0A3C                     l730:	
  6617  0A3C  2A3D               	goto	l3021
  6618                           	line	14
  6619                           	
  6620  0A3D                     l731:	
  6621                           	line	15
  6622                           	
  6623  0A3D                     l3021:	
  6624  0A3D  0871               	movf	(___lwmod@divisor+1),w
  6625  0A3E  0273               	subwf	(___lwmod@dividend+1),w
  6626  0A3F  1D03               	skipz
  6627  0A40  2A43               	goto	u3125
  6628  0A41  0870               	movf	(___lwmod@divisor),w
  6629  0A42  0272               	subwf	(___lwmod@dividend),w
  6630  0A43                     u3125:
  6631  0A43  1C03               	skipc
  6632  0A44  2A46               	goto	u3121
  6633  0A45  2A47               	goto	u3120
  6634  0A46                     u3121:
  6635  0A46  2A4E               	goto	l3025
  6636  0A47                     u3120:
  6637                           	line	16
  6638                           	
  6639  0A47                     l3023:	
  6640  0A47  0870               	movf	(___lwmod@divisor),w
  6641  0A48  02F2               	subwf	(___lwmod@dividend),f
  6642  0A49  0871               	movf	(___lwmod@divisor+1),w
  6643  0A4A  1C03               	skipc
  6644  0A4B  03F3               	decf	(___lwmod@dividend+1),f
  6645  0A4C  02F3               	subwf	(___lwmod@dividend+1),f
  6646  0A4D  2A4E               	goto	l3025
  6647                           	
  6648  0A4E                     l732:	
  6649                           	line	17
  6650                           	
  6651  0A4E                     l3025:	
  6652  0A4E  3001               	movlw	01h
  6653                           	
  6654  0A4F                     u3135:
  6655  0A4F  1003               	clrc
  6656  0A50  0CF1               	rrf	(___lwmod@divisor+1),f
  6657  0A51  0CF0               	rrf	(___lwmod@divisor),f
  6658  0A52  3EFF               	addlw	-1
  6659  0A53  1D03               	skipz
  6660  0A54  2A4F               	goto	u3135
  6661                           	line	18
  6662                           	
  6663  0A55                     l3027:	
  6664  0A55  3001               	movlw	low(01h)
  6665  0A56  02F5               	subwf	(___lwmod@counter),f
  6666  0A57  1D03               	btfss	status,2
  6667  0A58  2A5A               	goto	u3141
  6668  0A59  2A5B               	goto	u3140
  6669  0A5A                     u3141:
  6670  0A5A  2A3D               	goto	l3021
  6671  0A5B                     u3140:
  6672  0A5B  2A5D               	goto	l3029
  6673                           	
  6674  0A5C                     l733:	
  6675  0A5C  2A5D               	goto	l3029
  6676                           	line	19
  6677                           	
  6678  0A5D                     l727:	
  6679                           	line	20
  6680                           	
  6681  0A5D                     l3029:	
  6682  0A5D  0873               	movf	(___lwmod@dividend+1),w
  6683  0A5E  01F1               	clrf	(?___lwmod+1)
  6684  0A5F  07F1               	addwf	(?___lwmod+1)
  6685  0A60  0872               	movf	(___lwmod@dividend),w
  6686  0A61  01F0               	clrf	(?___lwmod)
  6687  0A62  07F0               	addwf	(?___lwmod)
  6688                           
  6689  0A63  2A64               	goto	l734
  6690                           	
  6691  0A64                     l3031:	
  6692                           	line	21
  6693                           	
  6694  0A64                     l734:	
  6695  0A64  0008               	return
  6696                           	opt stack 0
  6697                           GLOBAL	__end_of___lwmod
  6698  0A65                     	__end_of___lwmod:
  6699 ;; =============== function ___lwmod ends ============
  6700                           
  6701                           	signat	___lwmod,8314
  6702                           	global	___lwdiv
  6703                           psect	text394,local,class=CODE,delta=2
  6704                           global __ptext394
  6705  0A65                     __ptext394:
  6706                           
  6707 ;; *************** function ___lwdiv *****************
  6708 ;; Defined at:
  6709 ;;		line 5 in file "C:\Program Files\HI-TECH Software\sources\lwdiv.c"
  6710 ;; Parameters:    Size  Location     Type
  6711 ;;  divisor         2    6[COMMON] unsigned int 
  6712 ;;  dividend        2    8[COMMON] unsigned int 
  6713 ;; Auto vars:     Size  Location     Type
  6714 ;;  quotient        2   11[COMMON] unsigned int 
  6715 ;;  counter         1   13[COMMON] unsigned char 
  6716 ;; Return value:  Size  Location     Type
  6717 ;;                  2    6[COMMON] unsigned int 
  6718 ;; Registers used:
  6719 ;;		wreg, status,2, status,0
  6720 ;; Tracked objects:
  6721 ;;		On entry : 0/0
  6722 ;;		On exit  : 0/0
  6723 ;;		Unchanged: 0/0
  6724 ;; Data sizes:     COMMON   BANK0   BANK1   BANK3   BANK2
  6725 ;;      Params:         4       0       0       0       0
  6726 ;;      Locals:         3       0       0       0       0
  6727 ;;      Temps:          1       0       0       0       0
  6728 ;;      Totals:         8       0       0       0       0
  6729 ;;Total ram usage:        8 bytes
  6730 ;; Hardware stack levels used:    1
  6731 ;; This function calls:
  6732 ;;		Nothing
  6733 ;; This function is called by:
  6734 ;;		_mode1
  6735 ;;		_mode2
  6736 ;;		_mode3
  6737 ;; This function uses a non-reentrant model
  6738 ;;
  6739                           psect	text394
  6740                           	file	"C:\Program Files\HI-TECH Software\sources\lwdiv.c"
  6741                           	line	5
  6742                           	global	__size_of___lwdiv
  6743  0050                     	__size_of___lwdiv	equ	__end_of___lwdiv-___lwdiv
  6744                           	
  6745  0A65                     ___lwdiv:	
  6746                           	opt	stack 6
  6747                           ; Regs used in ___lwdiv: [wreg+status,2+status,0]
  6748                           	line	9
  6749                           	
  6750  0A65                     l2987:	
  6751  0A65  3000               	movlw	low(0)
  6752  0A66  00FB               	movwf	(___lwdiv@quotient)
  6753  0A67  3000               	movlw	high(0)
  6754  0A68  00FC               	movwf	((___lwdiv@quotient))+1
  6755                           	line	10
  6756  0A69  0877               	movf	(___lwdiv@divisor+1),w
  6757  0A6A  0476               	iorwf	(___lwdiv@divisor),w
  6758  0A6B  1903               	skipnz
  6759  0A6C  2A6E               	goto	u3021
  6760  0A6D  2A6F               	goto	u3020
  6761  0A6E                     u3021:
  6762  0A6E  2AAD               	goto	l3007
  6763  0A6F                     u3020:
  6764                           	line	11
  6765                           	
  6766  0A6F                     l2989:	
  6767  0A6F  01FD               	clrf	(___lwdiv@counter)
  6768  0A70  1403               	bsf	status,0
  6769  0A71  0DFD               	rlf	(___lwdiv@counter),f
  6770                           	line	12
  6771  0A72  2A7F               	goto	l2995
  6772                           	
  6773  0A73                     l719:	
  6774                           	line	13
  6775                           	
  6776  0A73                     l2991:	
  6777  0A73  3001               	movlw	01h
  6778                           	
  6779  0A74                     u3035:
  6780  0A74  1003               	clrc
  6781  0A75  0DF6               	rlf	(___lwdiv@divisor),f
  6782  0A76  0DF7               	rlf	(___lwdiv@divisor+1),f
  6783  0A77  3EFF               	addlw	-1
  6784  0A78  1D03               	skipz
  6785  0A79  2A74               	goto	u3035
  6786                           	line	14
  6787                           	
  6788  0A7A                     l2993:	
  6789  0A7A  3001               	movlw	(01h)
  6790  0A7B  00FA               	movwf	(??___lwdiv+0)+0
  6791  0A7C  087A               	movf	(??___lwdiv+0)+0,w
  6792  0A7D  07FD               	addwf	(___lwdiv@counter),f
  6793  0A7E  2A7F               	goto	l2995
  6794                           	line	15
  6795                           	
  6796  0A7F                     l718:	
  6797                           	line	12
  6798                           	
  6799  0A7F                     l2995:	
  6800  0A7F  1FF7               	btfss	(___lwdiv@divisor+1),(15)&7
  6801  0A80  2A82               	goto	u3041
  6802  0A81  2A83               	goto	u3040
  6803  0A82                     u3041:
  6804  0A82  2A73               	goto	l2991
  6805  0A83                     u3040:
  6806  0A83  2A85               	goto	l2997
  6807                           	
  6808  0A84                     l720:	
  6809  0A84  2A85               	goto	l2997
  6810                           	line	16
  6811                           	
  6812  0A85                     l721:	
  6813                           	line	17
  6814                           	
  6815  0A85                     l2997:	
  6816  0A85  3001               	movlw	01h
  6817                           	
  6818  0A86                     u3055:
  6819  0A86  1003               	clrc
  6820  0A87  0DFB               	rlf	(___lwdiv@quotient),f
  6821  0A88  0DFC               	rlf	(___lwdiv@quotient+1),f
  6822  0A89  3EFF               	addlw	-1
  6823  0A8A  1D03               	skipz
  6824  0A8B  2A86               	goto	u3055
  6825                           	line	18
  6826  0A8C  0877               	movf	(___lwdiv@divisor+1),w
  6827  0A8D  0279               	subwf	(___lwdiv@dividend+1),w
  6828  0A8E  1D03               	skipz
  6829  0A8F  2A92               	goto	u3065
  6830  0A90  0876               	movf	(___lwdiv@divisor),w
  6831  0A91  0278               	subwf	(___lwdiv@dividend),w
  6832  0A92                     u3065:
  6833  0A92  1C03               	skipc
  6834  0A93  2A95               	goto	u3061
  6835  0A94  2A96               	goto	u3060
  6836  0A95                     u3061:
  6837  0A95  2A9E               	goto	l3003
  6838  0A96                     u3060:
  6839                           	line	19
  6840                           	
  6841  0A96                     l2999:	
  6842  0A96  0876               	movf	(___lwdiv@divisor),w
  6843  0A97  02F8               	subwf	(___lwdiv@dividend),f
  6844  0A98  0877               	movf	(___lwdiv@divisor+1),w
  6845  0A99  1C03               	skipc
  6846  0A9A  03F9               	decf	(___lwdiv@dividend+1),f
  6847  0A9B  02F9               	subwf	(___lwdiv@dividend+1),f
  6848                           	line	20
  6849                           	
  6850  0A9C                     l3001:	
  6851  0A9C  147B               	bsf	(___lwdiv@quotient)+(0/8),(0)&7
  6852  0A9D  2A9E               	goto	l3003
  6853                           	line	21
  6854                           	
  6855  0A9E                     l722:	
  6856                           	line	22
  6857                           	
  6858  0A9E                     l3003:	
  6859  0A9E  3001               	movlw	01h
  6860                           	
  6861  0A9F                     u3075:
  6862  0A9F  1003               	clrc
  6863  0AA0  0CF7               	rrf	(___lwdiv@divisor+1),f
  6864  0AA1  0CF6               	rrf	(___lwdiv@divisor),f
  6865  0AA2  3EFF               	addlw	-1
  6866  0AA3  1D03               	skipz
  6867  0AA4  2A9F               	goto	u3075
  6868                           	line	23
  6869                           	
  6870  0AA5                     l3005:	
  6871  0AA5  3001               	movlw	low(01h)
  6872  0AA6  02FD               	subwf	(___lwdiv@counter),f
  6873  0AA7  1D03               	btfss	status,2
  6874  0AA8  2AAA               	goto	u3081
  6875  0AA9  2AAB               	goto	u3080
  6876  0AAA                     u3081:
  6877  0AAA  2A85               	goto	l2997
  6878  0AAB                     u3080:
  6879  0AAB  2AAD               	goto	l3007
  6880                           	
  6881  0AAC                     l723:	
  6882  0AAC  2AAD               	goto	l3007
  6883                           	line	24
  6884                           	
  6885  0AAD                     l717:	
  6886                           	line	25
  6887                           	
  6888  0AAD                     l3007:	
  6889  0AAD  087C               	movf	(___lwdiv@quotient+1),w
  6890  0AAE  01F7               	clrf	(?___lwdiv+1)
  6891  0AAF  07F7               	addwf	(?___lwdiv+1)
  6892  0AB0  087B               	movf	(___lwdiv@quotient),w
  6893  0AB1  01F6               	clrf	(?___lwdiv)
  6894  0AB2  07F6               	addwf	(?___lwdiv)
  6895                           
  6896  0AB3  2AB4               	goto	l724
  6897                           	
  6898  0AB4                     l3009:	
  6899                           	line	26
  6900                           	
  6901  0AB4                     l724:	
  6902  0AB4  0008               	return
  6903                           	opt stack 0
  6904                           GLOBAL	__end_of___lwdiv
  6905  0AB5                     	__end_of___lwdiv:
  6906 ;; =============== function ___lwdiv ends ============
  6907                           
  6908                           	signat	___lwdiv,8314
  6909                           	global	_i2c_start
  6910                           psect	text395,local,class=CODE,delta=2
  6911                           global __ptext395
  6912  0C94                     __ptext395:
  6913                           
  6914 ;; *************** function _i2c_start *****************
  6915 ;; Defined at:
  6916 ;;		line 596 in file "C:\Users\Phang\Desktop\9.80\PR 22\PR22.c"
  6917 ;; Parameters:    Size  Location     Type
  6918 ;;  address         1    wreg     unsigned char 
  6919 ;;  size            1    0[COMMON] unsigned char 
  6920 ;;  operation       2    1[COMMON] unsigned int 
  6921 ;; Auto vars:     Size  Location     Type
  6922 ;;  address         1    5[COMMON] unsigned char 
  6923 ;;  i               1    6[COMMON] unsigned char 
  6924 ;; Return value:  Size  Location     Type
  6925 ;;		None               void
  6926 ;; Registers used:
  6927 ;;		wreg, fsr0l, fsr0h, status,2, status,0
  6928 ;; Tracked objects:
  6929 ;;		On entry : 0/0
  6930 ;;		On exit  : 0/0
  6931 ;;		Unchanged: 0/0
  6932 ;; Data sizes:     COMMON   BANK0   BANK1   BANK3   BANK2
  6933 ;;      Params:         3       0       0       0       0
  6934 ;;      Locals:         2       0       0       0       0
  6935 ;;      Temps:          2       0       0       0       0
  6936 ;;      Totals:         7       0       0       0       0
  6937 ;;Total ram usage:        7 bytes
  6938 ;; Hardware stack levels used:    1
  6939 ;; This function calls:
  6940 ;;		Nothing
  6941 ;; This function is called by:
  6942 ;;		_mode1
  6943 ;;		_mode2
  6944 ;; This function uses a non-reentrant model
  6945 ;;
  6946                           psect	text395
  6947                           	file	"C:\Users\Phang\Desktop\9.80\PR 22\PR22.c"
  6948                           	line	596
  6949                           	global	__size_of_i2c_start
  6950  0096                     	__size_of_i2c_start	equ	__end_of_i2c_start-_i2c_start
  6951                           	
  6952  0C94                     _i2c_start:	
  6953                           	opt	stack 6
  6954                           ; Regs used in _i2c_start: [wreg-fsr0h+status,2+status,0]
  6955                           ;i2c_start@address stored from wreg
  6956                           	line	599
  6957  0C94  00F5               	movwf	(i2c_start@address)
  6958                           	
  6959  0C95                     l2959:	
  6960                           ;PR22.c: 597: unsigned char i;
  6961                           ;PR22.c: 599: SEN = 1;
  6962  0C95  1683               	bsf	status, 5	;RP0=1, select bank1
  6963  0C96  1303               	bcf	status, 6	;RP1=0, select bank1
  6964  0C97  1411               	bsf	(1160/8)^080h,(1160)&7
  6965                           	line	600
  6966                           ;PR22.c: 600: while(!SSPIF);
  6967  0C98  2C99               	goto	l656
  6968                           	
  6969  0C99                     l657:	
  6970                           	
  6971  0C99                     l656:	
  6972  0C99  1283               	bcf	status, 5	;RP0=0, select bank0
  6973  0C9A  1D8C               	btfss	(99/8),(99)&7
  6974  0C9B  2C9D               	goto	u2901
  6975  0C9C  2C9E               	goto	u2900
  6976  0C9D                     u2901:
  6977  0C9D  2C99               	goto	l656
  6978  0C9E                     u2900:
  6979                           	
  6980  0C9E                     l658:	
  6981                           	line	601
  6982                           ;PR22.c: 601: SSPIF = 0;
  6983  0C9E  118C               	bcf	(99/8),(99)&7
  6984                           	line	602
  6985                           	
  6986  0C9F                     l2961:	
  6987                           ;PR22.c: 602: SSPBUF = address + operation;
  6988  0C9F  0871               	movf	(i2c_start@operation),w
  6989  0CA0  0775               	addwf	(i2c_start@address),w
  6990  0CA1  0093               	movwf	(19)	;volatile
  6991                           	line	603
  6992                           ;PR22.c: 603: while(!SSPIF);
  6993  0CA2  2CA3               	goto	l659
  6994                           	
  6995  0CA3                     l660:	
  6996                           	
  6997  0CA3                     l659:	
  6998  0CA3  1D8C               	btfss	(99/8),(99)&7
  6999  0CA4  2CA6               	goto	u2911
  7000  0CA5  2CA7               	goto	u2910
  7001  0CA6                     u2911:
  7002  0CA6  2CA3               	goto	l659
  7003  0CA7                     u2910:
  7004                           	
  7005  0CA7                     l661:	
  7006                           	line	604
  7007                           ;PR22.c: 604: SSPIF = 0;
  7008  0CA7  118C               	bcf	(99/8),(99)&7
  7009                           	line	605
  7010                           	
  7011  0CA8                     l2963:	
  7012                           ;PR22.c: 605: if(operation == 0)
  7013  0CA8  0872               	movf	((i2c_start@operation+1)),w
  7014  0CA9  0471               	iorwf	((i2c_start@operation)),w
  7015  0CAA  1D03               	skipz
  7016  0CAB  2CAD               	goto	u2921
  7017  0CAC  2CAE               	goto	u2920
  7018  0CAD                     u2921:
  7019  0CAD  2CD6               	goto	l2973
  7020  0CAE                     u2920:
  7021                           	line	607
  7022                           	
  7023  0CAE                     l2965:	
  7024                           ;PR22.c: 606: {
  7025                           ;PR22.c: 607: for(i = 0; i < size; i++)
  7026  0CAE  1003               	clrc
  7027  0CAF  3000               	movlw	0
  7028  0CB0  1803               	btfsc	status,0
  7029  0CB1  3001               	movlw	1
  7030  0CB2  00F6               	movwf	(i2c_start@i)
  7031  0CB3  2CC5               	goto	l2971
  7032                           	line	608
  7033                           	
  7034  0CB4                     l664:	
  7035                           	line	609
  7036                           	
  7037  0CB4                     l2967:	
  7038                           ;PR22.c: 608: {
  7039                           ;PR22.c: 609: SSPBUF = i2c_master_data[i];
  7040  0CB4  0876               	movf	(i2c_start@i),w
  7041  0CB5  3E37               	addlw	_i2c_master_data&0ffh
  7042  0CB6  0084               	movwf	fsr0
  7043  0CB7  1383               	bcf	status, 7	;select IRP bank0
  7044  0CB8  0800               	movf	indf,w
  7045  0CB9  0093               	movwf	(19)	;volatile
  7046                           	line	610
  7047                           ;PR22.c: 610: while(!SSPIF);
  7048  0CBA  2CBB               	goto	l665
  7049                           	
  7050  0CBB                     l666:	
  7051                           	
  7052  0CBB                     l665:	
  7053  0CBB  1D8C               	btfss	(99/8),(99)&7
  7054  0CBC  2CBE               	goto	u2931
  7055  0CBD  2CBF               	goto	u2930
  7056  0CBE                     u2931:
  7057  0CBE  2CBB               	goto	l665
  7058  0CBF                     u2930:
  7059                           	
  7060  0CBF                     l667:	
  7061                           	line	611
  7062                           ;PR22.c: 611: SSPIF = 0;
  7063  0CBF  118C               	bcf	(99/8),(99)&7
  7064                           	line	607
  7065                           	
  7066  0CC0                     l2969:	
  7067  0CC0  3001               	movlw	(01h)
  7068  0CC1  00F3               	movwf	(??_i2c_start+0)+0
  7069  0CC2  0873               	movf	(??_i2c_start+0)+0,w
  7070  0CC3  07F6               	addwf	(i2c_start@i),f
  7071  0CC4  2CC5               	goto	l2971
  7072                           	
  7073  0CC5                     l663:	
  7074                           	
  7075  0CC5                     l2971:	
  7076  0CC5  0870               	movf	(i2c_start@size),w
  7077  0CC6  0276               	subwf	(i2c_start@i),w
  7078  0CC7  1C03               	skipc
  7079  0CC8  2CCA               	goto	u2941
  7080  0CC9  2CCB               	goto	u2940
  7081  0CCA                     u2941:
  7082  0CCA  2CB4               	goto	l2967
  7083  0CCB                     u2940:
  7084                           	
  7085  0CCB                     l668:	
  7086                           	line	613
  7087                           ;PR22.c: 612: }
  7088                           ;PR22.c: 613: PEN = 1;
  7089  0CCB  1683               	bsf	status, 5	;RP0=1, select bank1
  7090  0CCC  1303               	bcf	status, 6	;RP1=0, select bank1
  7091  0CCD  1511               	bsf	(1162/8)^080h,(1162)&7
  7092                           	line	614
  7093                           ;PR22.c: 614: while(!SSPIF);
  7094  0CCE  2CCF               	goto	l669
  7095                           	
  7096  0CCF                     l670:	
  7097                           	
  7098  0CCF                     l669:	
  7099  0CCF  1283               	bcf	status, 5	;RP0=0, select bank0
  7100  0CD0  1D8C               	btfss	(99/8),(99)&7
  7101  0CD1  2CD3               	goto	u2951
  7102  0CD2  2CD4               	goto	u2950
  7103  0CD3                     u2951:
  7104  0CD3  2CCF               	goto	l669
  7105  0CD4                     u2950:
  7106                           	
  7107  0CD4                     l671:	
  7108                           	line	615
  7109                           ;PR22.c: 615: SSPIF = 0;
  7110  0CD4  118C               	bcf	(99/8),(99)&7
  7111                           	line	616
  7112                           ;PR22.c: 616: }
  7113  0CD5  2D29               	goto	l688
  7114                           	line	617
  7115                           	
  7116  0CD6                     l662:	
  7117                           	
  7118  0CD6                     l2973:	
  7119                           ;PR22.c: 617: else if(operation == 1)
  7120  0CD6  3001               	movlw	01h
  7121  0CD7  0671               	xorwf	(i2c_start@operation),w
  7122  0CD8  0472               	iorwf	(i2c_start@operation+1),w
  7123  0CD9  1D03               	skipz
  7124  0CDA  2CDC               	goto	u2961
  7125  0CDB  2CDD               	goto	u2960
  7126  0CDC                     u2961:
  7127  0CDC  2D29               	goto	l688
  7128  0CDD                     u2960:
  7129                           	line	619
  7130                           	
  7131  0CDD                     l2975:	
  7132                           ;PR22.c: 618: {
  7133                           ;PR22.c: 619: for(i = 0; i < size; i++)
  7134  0CDD  1003               	clrc
  7135  0CDE  3000               	movlw	0
  7136  0CDF  1803               	btfsc	status,0
  7137  0CE0  3001               	movlw	1
  7138  0CE1  00F6               	movwf	(i2c_start@i)
  7139  0CE2  2D17               	goto	l2985
  7140                           	line	620
  7141                           	
  7142  0CE3                     l675:	
  7143                           	line	621
  7144                           ;PR22.c: 620: {
  7145                           ;PR22.c: 621: RCEN = 1;
  7146  0CE3  1683               	bsf	status, 5	;RP0=1, select bank1
  7147  0CE4  1303               	bcf	status, 6	;RP1=0, select bank1
  7148  0CE5  1591               	bsf	(1163/8)^080h,(1163)&7
  7149                           	line	622
  7150                           ;PR22.c: 622: while(!SSPIF);
  7151  0CE6  2CE7               	goto	l676
  7152                           	
  7153  0CE7                     l677:	
  7154                           	
  7155  0CE7                     l676:	
  7156  0CE7  1283               	bcf	status, 5	;RP0=0, select bank0
  7157  0CE8  1D8C               	btfss	(99/8),(99)&7
  7158  0CE9  2CEB               	goto	u2971
  7159  0CEA  2CEC               	goto	u2970
  7160  0CEB                     u2971:
  7161  0CEB  2CE7               	goto	l676
  7162  0CEC                     u2970:
  7163                           	
  7164  0CEC                     l678:	
  7165                           	line	623
  7166                           ;PR22.c: 623: SSPIF = 0;
  7167  0CEC  118C               	bcf	(99/8),(99)&7
  7168                           	line	624
  7169                           	
  7170  0CED                     l2977:	
  7171                           ;PR22.c: 624: i2c_master_rcvb[i] = SSPBUF;
  7172  0CED  0813               	movf	(19),w	;volatile
  7173  0CEE  00F3               	movwf	(??_i2c_start+0)+0
  7174  0CEF  0876               	movf	(i2c_start@i),w
  7175  0CF0  3E3E               	addlw	_i2c_master_rcvb&0ffh
  7176  0CF1  0084               	movwf	fsr0
  7177  0CF2  0873               	movf	(??_i2c_start+0)+0,w
  7178  0CF3  1383               	bcf	status, 7	;select IRP bank0
  7179  0CF4  0080               	movwf	indf
  7180                           	line	625
  7181                           	
  7182  0CF5                     l2979:	
  7183                           ;PR22.c: 625: if(i == (size - 1))
  7184  0CF5  0870               	movf	(i2c_start@size),w
  7185  0CF6  3EFF               	addlw	low(-1)
  7186  0CF7  00F3               	movwf	(??_i2c_start+0)+0
  7187  0CF8  30FF               	movlw	high(-1)
  7188  0CF9  1803               	skipnc
  7189  0CFA  3000               	movlw	(high(-1)+1)&0ffh
  7190  0CFB  00F4               	movwf	((??_i2c_start+0)+0)+1
  7191  0CFC  0876               	movf	(i2c_start@i),w
  7192  0CFD  0673               	xorwf	0+(??_i2c_start+0)+0,w
  7193  0CFE  0474               	iorwf	1+(??_i2c_start+0)+0,w
  7194  0CFF  1D03               	skipz
  7195  0D00  2D02               	goto	u2981
  7196  0D01  2D03               	goto	u2980
  7197  0D02                     u2981:
  7198  0D02  2D07               	goto	l679
  7199  0D03                     u2980:
  7200                           	line	626
  7201                           	
  7202  0D03                     l2981:	
  7203                           ;PR22.c: 626: ACKDT = 1;
  7204  0D03  1683               	bsf	status, 5	;RP0=1, select bank1
  7205  0D04  1303               	bcf	status, 6	;RP1=0, select bank1
  7206  0D05  1691               	bsf	(1165/8)^080h,(1165)&7
  7207  0D06  2D0A               	goto	l680
  7208                           	line	627
  7209                           	
  7210  0D07                     l679:	
  7211                           	line	628
  7212                           ;PR22.c: 627: else
  7213                           ;PR22.c: 628: ACKDT = 0;
  7214  0D07  1683               	bsf	status, 5	;RP0=1, select bank1
  7215  0D08  1303               	bcf	status, 6	;RP1=0, select bank1
  7216  0D09  1291               	bcf	(1165/8)^080h,(1165)&7
  7217                           	
  7218  0D0A                     l680:	
  7219                           	line	629
  7220                           ;PR22.c: 629: ACKEN = 1;
  7221  0D0A  1611               	bsf	(1164/8)^080h,(1164)&7
  7222                           	line	630
  7223                           ;PR22.c: 630: while(!SSPIF);
  7224  0D0B  2D0C               	goto	l681
  7225                           	
  7226  0D0C                     l682:	
  7227                           	
  7228  0D0C                     l681:	
  7229  0D0C  1283               	bcf	status, 5	;RP0=0, select bank0
  7230  0D0D  1D8C               	btfss	(99/8),(99)&7
  7231  0D0E  2D10               	goto	u2991
  7232  0D0F  2D11               	goto	u2990
  7233  0D10                     u2991:
  7234  0D10  2D0C               	goto	l681
  7235  0D11                     u2990:
  7236                           	
  7237  0D11                     l683:	
  7238                           	line	631
  7239                           ;PR22.c: 631: SSPIF = 0;
  7240  0D11  118C               	bcf	(99/8),(99)&7
  7241                           	line	619
  7242                           	
  7243  0D12                     l2983:	
  7244  0D12  3001               	movlw	(01h)
  7245  0D13  00F3               	movwf	(??_i2c_start+0)+0
  7246  0D14  0873               	movf	(??_i2c_start+0)+0,w
  7247  0D15  07F6               	addwf	(i2c_start@i),f
  7248  0D16  2D17               	goto	l2985
  7249                           	
  7250  0D17                     l674:	
  7251                           	
  7252  0D17                     l2985:	
  7253  0D17  0870               	movf	(i2c_start@size),w
  7254  0D18  0276               	subwf	(i2c_start@i),w
  7255  0D19  1C03               	skipc
  7256  0D1A  2D1C               	goto	u3001
  7257  0D1B  2D1D               	goto	u3000
  7258  0D1C                     u3001:
  7259  0D1C  2CE3               	goto	l675
  7260  0D1D                     u3000:
  7261                           	
  7262  0D1D                     l684:	
  7263                           	line	633
  7264                           ;PR22.c: 632: }
  7265                           ;PR22.c: 633: PEN = 1;
  7266  0D1D  1683               	bsf	status, 5	;RP0=1, select bank1
  7267  0D1E  1303               	bcf	status, 6	;RP1=0, select bank1
  7268  0D1F  1511               	bsf	(1162/8)^080h,(1162)&7
  7269                           	line	634
  7270                           ;PR22.c: 634: while(!SSPIF);
  7271  0D20  2D21               	goto	l685
  7272                           	
  7273  0D21                     l686:	
  7274                           	
  7275  0D21                     l685:	
  7276  0D21  1283               	bcf	status, 5	;RP0=0, select bank0
  7277  0D22  1D8C               	btfss	(99/8),(99)&7
  7278  0D23  2D25               	goto	u3011
  7279  0D24  2D26               	goto	u3010
  7280  0D25                     u3011:
  7281  0D25  2D21               	goto	l685
  7282  0D26                     u3010:
  7283                           	
  7284  0D26                     l687:	
  7285                           	line	635
  7286                           ;PR22.c: 635: SSPIF = 0;
  7287  0D26  118C               	bcf	(99/8),(99)&7
  7288  0D27  2D29               	goto	l688
  7289                           	line	636
  7290                           	
  7291  0D28                     l673:	
  7292  0D28  2D29               	goto	l688
  7293                           	line	637
  7294                           	
  7295  0D29                     l672:	
  7296                           	
  7297  0D29                     l688:	
  7298  0D29  0008               	return
  7299                           	opt stack 0
  7300                           GLOBAL	__end_of_i2c_start
  7301  0D2A                     	__end_of_i2c_start:
  7302 ;; =============== function _i2c_start ends ============
  7303                           
  7304                           	signat	_i2c_start,12408
  7305                           	global	_delay
  7306                           psect	text396,local,class=CODE,delta=2
  7307                           global __ptext396
  7308  09F1                     __ptext396:
  7309                           
  7310 ;; *************** function _delay *****************
  7311 ;; Defined at:
  7312 ;;		line 547 in file "C:\Users\Phang\Desktop\9.80\PR 22\PR22.c"
  7313 ;; Parameters:    Size  Location     Type
  7314 ;;  data            4    0[COMMON] unsigned long 
  7315 ;; Auto vars:     Size  Location     Type
  7316 ;;		None
  7317 ;; Return value:  Size  Location     Type
  7318 ;;		None               void
  7319 ;; Registers used:
  7320 ;;		wreg
  7321 ;; Tracked objects:
  7322 ;;		On entry : 0/0
  7323 ;;		On exit  : 0/0
  7324 ;;		Unchanged: 0/0
  7325 ;; Data sizes:     COMMON   BANK0   BANK1   BANK3   BANK2
  7326 ;;      Params:         4       0       0       0       0
  7327 ;;      Locals:         0       0       0       0       0
  7328 ;;      Temps:          4       0       0       0       0
  7329 ;;      Totals:         8       0       0       0       0
  7330 ;;Total ram usage:        8 bytes
  7331 ;; Hardware stack levels used:    1
  7332 ;; This function calls:
  7333 ;;		Nothing
  7334 ;; This function is called by:
  7335 ;;		_main
  7336 ;;		_mode1
  7337 ;;		_mode2
  7338 ;;		_mode3
  7339 ;;		_send_config
  7340 ;;		_send_char
  7341 ;;		_lcd_clr
  7342 ;;		_spi_start
  7343 ;; This function uses a non-reentrant model
  7344 ;;
  7345                           psect	text396
  7346                           	file	"C:\Users\Phang\Desktop\9.80\PR 22\PR22.c"
  7347                           	line	547
  7348                           	global	__size_of_delay
  7349  0030                     	__size_of_delay	equ	__end_of_delay-_delay
  7350                           	
  7351  09F1                     _delay:	
  7352                           	opt	stack 6
  7353                           ; Regs used in _delay: [wreg]
  7354                           	line	548
  7355                           	
  7356  09F1                     l2953:	
  7357                           ;PR22.c: 548: for( ;data>0;data--);
  7358  09F1  0873               	movf	(delay@data+3),w
  7359  09F2  0472               	iorwf	(delay@data+2),w
  7360  09F3  0471               	iorwf	(delay@data+1),w
  7361  09F4  0470               	iorwf	(delay@data),w
  7362  09F5  1D03               	skipz
  7363  09F6  29F8               	goto	u2871
  7364  09F7  29F9               	goto	u2870
  7365  09F8                     u2871:
  7366  09F8  29FB               	goto	l2957
  7367  09F9                     u2870:
  7368  09F9  2A20               	goto	l631
  7369                           	
  7370  09FA                     l2955:	
  7371  09FA  2A20               	goto	l631
  7372                           	
  7373  09FB                     l629:	
  7374                           	
  7375  09FB                     l2957:	
  7376  09FB  3001               	movlw	01h
  7377  09FC  00F4               	movwf	((??_delay+0)+0)
  7378  09FD  3000               	movlw	0
  7379  09FE  00F5               	movwf	((??_delay+0)+0+1)
  7380  09FF  3000               	movlw	0
  7381  0A00  00F6               	movwf	((??_delay+0)+0+2)
  7382  0A01  3000               	movlw	0
  7383  0A02  00F7               	movwf	((??_delay+0)+0+3)
  7384  0A03  0874               	movf	0+(??_delay+0)+0,w
  7385  0A04  02F0               	subwf	(delay@data),f
  7386  0A05  0875               	movf	1+(??_delay+0)+0,w
  7387  0A06  1C03               	skipc
  7388  0A07  0F75               	incfsz	1+(??_delay+0)+0,w
  7389  0A08  2A0A               	goto	u2885
  7390  0A09  2A0B               	goto	u2886
  7391  0A0A                     u2885:
  7392  0A0A  02F1               	subwf	(delay@data+1),f
  7393  0A0B                     u2886:
  7394  0A0B  0876               	movf	2+(??_delay+0)+0,w
  7395  0A0C  1C03               	skipc
  7396  0A0D  0F76               	incfsz	2+(??_delay+0)+0,w
  7397  0A0E  2A10               	goto	u2887
  7398  0A0F  2A11               	goto	u2888
  7399  0A10                     u2887:
  7400  0A10  02F2               	subwf	(delay@data+2),f
  7401  0A11                     u2888:
  7402  0A11  0877               	movf	3+(??_delay+0)+0,w
  7403  0A12  1C03               	skipc
  7404  0A13  0F77               	incfsz	3+(??_delay+0)+0,w
  7405  0A14  2A16               	goto	u2889
  7406  0A15  2A17               	goto	u2880
  7407  0A16                     u2889:
  7408  0A16  02F3               	subwf	(delay@data+3),f
  7409  0A17                     u2880:
  7410                           
  7411  0A17  0873               	movf	(delay@data+3),w
  7412  0A18  0472               	iorwf	(delay@data+2),w
  7413  0A19  0471               	iorwf	(delay@data+1),w
  7414  0A1A  0470               	iorwf	(delay@data),w
  7415  0A1B  1D03               	skipz
  7416  0A1C  2A1E               	goto	u2891
  7417  0A1D  2A1F               	goto	u2890
  7418  0A1E                     u2891:
  7419  0A1E  29FB               	goto	l2957
  7420  0A1F                     u2890:
  7421  0A1F  2A20               	goto	l631
  7422                           	
  7423  0A20                     l630:	
  7424                           	line	549
  7425                           	
  7426  0A20                     l631:	
  7427  0A20  0008               	return
  7428                           	opt stack 0
  7429                           GLOBAL	__end_of_delay
  7430  0A21                     	__end_of_delay:
  7431 ;; =============== function _delay ends ============
  7432                           
  7433                           	signat	_delay,4216
  7434                           psect	text397,local,class=CODE,delta=2
  7435                           global __ptext397
  7436  0000                     __ptext397:
  7437                           	global	btemp
  7438  007E                     	btemp set 07Eh
  7439                           
  7440                           	DABS	1,126,2	;btemp
  7441                           	global	wtemp0
  7442  007E                     	wtemp0 set btemp


HI-TECH Software PICC Macro Assembler V9.80 build 6738 
Symbol Table                                                                                   Wed Jun 20 23:06:02 2012

            spi_baro@data 0020                         pc 0002              ___awdiv@sign 0021  
                      fsr 0004                       l600 0258                       l601 0279  
                     l610 04A4                       l602 04C6                       l530 0132  
                     l611 04B2                       l603 0281                       l531 0131  
                     l700 0B5D                       l612 04B2                       l604 049D  
                     l620 0F36                       l540 0182                       l532 0143  
                     l701 0B44                       l613 04B9                       l605 029F  
                     l621 0F3C                       l541 0190                       l533 0142  
                     l630 0A20                       l702 0B5F                       l606 02A0  
                     l622 0FCE                       l550 01C7                       l542 0190  
                     l534 0141                       l631 0A20                       l607 02B5  
                     l623 0FDC                       l551 01C7                       l543 0197  
                     l535 0160                       l527 0106                       l720 0A84  
                     l640 0973                       l560 0523                       l608 03B7  
                     l624 0FDC                       l616 0FC7                       l544 01B8  
                     l528 017B                       l536 014A                       l721 0A85  
                     l641 0980                       l561 0506                       l609 0442  
                     l625 0FE3                       l617 0D58                       l545 01A5  
                     l537 016D                       l529 0124                       l722 0A9E  
                     l730 0A3C                       l634 09A5                       l642 0980  
                     l570 07DF                       l562 0533                       l554 04D2  
                     l626 0FFF                       l618 0D59                       l546 01C5  
                     l538 0151                       l723 0AAC                       l731 0A3D  
                     l651 09EF                       l571 0567                       l563 050D  
                     l555 04EE                       l619 0D71                       l547 01AB  
                     l539 0158                       l660 0CA3                       l724 0AB4  
                     l732 0A4E                       l652 09F0                       l580 06E3  
                     l572 0683                       l564 0514                       l556 04ED  
                     l548 01B1                       l629 09FB                       l661 0CA7  
                     l717 0AAD                       l733 0A5C                       l637 09CA  
                     l645 0963                       l653 09F0                       l581 06E3  
                     l573 059A                       l565 051B                       l557 04FF  
                     l549 01C6                       l662 0CD6                       l670 0CCF  
                     l718 0A7F                       l734 0A64                       l590 07FE  
                     l566 07F0                       l582 06EA                       l574 068A  
                     l558 04FE                       l671 0CD4                       l663 0CC5  
                     l719 0A73                       l727 0A5D                       l591 07FF  
                     l583 06F8                       l575 0698                       l567 0547  
                     l559 04FD                       l672 0D29                       l680 0D0A  
                     l664 0CB4                       l656 0C99                       l728 0A37  
                     l920 0BD8                       l648 09DE                       l584 06F8  
                     l576 0698                       l568 0547                       l673 0D28  
                     l681 0D0C                       l665 0CBB                       l657 0C99  
                     l729 0A2B                       l921 0C14                       l649 09CD  
                     l585 06FF                       l577 069F                       l569 054E  
                     l674 0D17                       l682 0D0C                       l666 0CBB  
                     l658 0C9E                       l922 0BEE                       l578 07EF  
                     l586 073E                       l594 01E5                       l683 0D11  
                     l675 0CE3                       l667 0CBF                       l659 0CA3  
                     l851 001F                       l923 0BE2                       l691 0ADD  
                     l587 07DC                       l579 06B2                       l595 01FC  
                     l684 0D1D                       l676 0CE7                       l668 0CCB  
                     l860 007E                       l852 002C                       l924 0BF3  
                     l692 0B02                       l588 07FF                       l596 0215  
                     l685 0D21                       l677 0CE7                       l669 0CCF  
                     l861 0085                       l853 0074                       l925 0BF4  
                     l693 0B01                       l589 07DD                       l597 0224  
                     l686 0D21                       l678 0CEC                       l854 0046  
                     l870 0BB1                       l926 0C05                       l598 0239  
                     l687 0D26                       l679 0D07                       l855 003A  
                     l871 0BBB                       l927 0C13                       l919 0BCE  
                     l695 0AF5                       l599 0259                       l688 0D29  
                     l856 004B                       l864 0BB2                       l928 0C1E  
                     l696 0B05                       l857 004C                       l865 0B7A  
                     l929 0C25                       l858 0065                       l866 0B6C  
                     l890 0C93                       l859 0073                       l867 0B7F  
                     l883 0C8A                       l699 0B19                       l868 0B80  
                     l884 0C48                       l869 0BA1                       l885 0C3A  
                     l886 0C4D                       l887 0C4E                       l888 0C79  
                     l889 0C89                       _RA0 0028                       _RA1 0029  
                     _RA2 002A                       _RA3 002B                       _RC0 0038  
                     _RA5 002D                       _RC5 003D                       _RC6 003E  
                     _RC7 003F                       _PR2 0092                       _PEN 048A  
                     _SEN 0488                       fsr0 0004                       indf 0000  
            ___awmod@sign 0076           send_config@data 0078                      l3001 0A9C  
                    l3003 0A9E                      l3011 0A21                      l3005 0AA5  
                    l3021 0A3D                      l3013 0A27                      l3101 0C57  
                    l3007 0AAD                      l3031 0A64                      l3023 0A47  
                    l3015 0A2B                      l3103 0C69                      l3111 0C8A  
                    l3009 0AB4                      l3025 0A4E                      l3017 0A32  
                    l3041 0023                      l3033 000B                      l3113 0C93  
                    l3105 0C77                      l3121 0BCE                      l3201 0B5D  
                    l3027 0A55                      l3019 0A37                      l3051 0046  
                    l3043 0028                      l3035 0012                      l3107 0C79  
                    l3131 0BE9                      l3123 0BD2                      l3115 0BBC  
                    l3203 0B5F                      l3211 0973                      l3029 0A5D  
                    l3061 006C                      l3053 004C                      l3045 0036  
                    l3037 0016                      l3109 0C82                      l3141 0C0C  
                    l3133 0BEE                      l3125 0BD8                      l3117 0BC1  
                    l3205 0950                      l3213 0978                      l3221 09DE  
                    l3301 05D0                      l3055 005D                      l3047 003A  
                    l3063 0074                      l3039 001F                      l3071 0B60  
                    l3135 0BF4                      l3127 0BDE                      l3143 0C14  
                    l3119 0BC5                      l3151 0982                      l3207 0965  
                    l3223 09E2                      l3215 09CC                      l3231 0AD6  
                    l3311 065D                      l3303 05E4                      l3065 0078  
                    l3057 0063                      l3049 0041                      l3081 0B92  
                    l3073 0B68                      l3145 0C18                      l3137 0BFE  
                    l3129 0BE2                      l3161 0998                      l3153 0985  
                    l3209 096B                      l3217 09CD                      l3241 0B02  
                    l3233 0ADD                      l3225 0AB8                      l3321 06B2  
                    l3313 0675                      l3305 0609                      l3401 01FC  
                    l3067 007E                      l3059 0065                      l3083 0BA1  
                    l3075 0B6C                      l3091 0C26                      l3147 0C1E  
                    l3139 0C05                      l3155 0987                      l3171 09BA  
                    l3163 09A7                      l3219 09D9                      l3235 0AE8  
                    l3227 0AB9                      l3331 06EA                      l3323 06BD  
                    l3307 0630                      l3315 0683                      l3251 04DE  
                    l3243 04C7                      l3411 0247                      l3403 0215  
                    l3069 0085                      l3085 0BAA                      l3077 0B7A  
                    l3093 0C36                      l3149 0C25                      l3157 0988  
                    l3173 09BD                      l3165 09AA                      l3181 0B1C  
                    l3237 0AEE                      l3229 0ACE                      l3341 0724  
                    l3333 06FF                      l3325 06C3                      l3317 068A  
                    l3309 0657                      l3261 04FF                      l3253 04E4  
                    l3245 04CC                      l3421 026A                      l3413 024F  
                    l3405 0224                      l3501 0D80                      l3079 0B80  
                    l3087 0BB2                      l3095 0C3A                      l3159 0995  
                    l3167 09AC                      l3191 0B41                      l3183 0B29  
                    l3175 0B07                      l3239 0AF5                      l3351 074C  
                    l3343 072A                      l3335 070C                      l3327 06CF  
                    l3319 069F                      l3271 0522                      l3263 0506  
                    l3255 04EA                      l3247 04D2                      l3431 0292  
                    l3423 0278                      l3415 0253                      l3407 0231  
                    l3511 0DD9                      l3503 0D90                      l3089 0BBB  
                    l3097 0C48                      l3169 09AD                      l3193 0B44  
                    l3185 0B33                      l3177 0B11                      l3361 0788  
                    l3353 075A                      l3345 0730                      l3337 0712  
                    l3329 06D5                      l3281 056D                      l3265 050D  
                    l3273 0523                      l3257 04F2                      l3249 04D8  
                    l3441 02D2                      l3433 02A0                      l3425 0279  
                    l3417 0259                      l3409 0239                      l3521 0E50  
                    l3513 0DED                      l3505 0D99                      l3601 00DB  
                    l3099 0C4E                      l3195 0B45                      l3187 0B39  
                    l3179 0B18                      l3371 07BD                      l3363 078E  
                    l3355 0767                      l3347 073E                      l3339 071F  
                    l3291 059A                      l3283 0573                      l3275 0539  
                    l3267 0514                      l3259 04F8                      l3451 0333  
                    l3443 02DB                      l3435 02AD                      l3427 0281  
                    l3419 0264                      l3531 0ECA                      l3523 0E77  
                    l3515 0DF3                      l3507 0DA8                      l3611 0100  
                    l3603 00E1                      l3197 0B52                      l3189 0B3B  
                    l3373 07C2                      l3365 079C                      l3357 076D  
                    l3349 0744                      l3293 05A0                      l3285 0579  
                    l3381 07DF                      l3277 054E                      l3269 051B  
                    l3461 038A                      l3453 0340                      l3445 02F7  
                    l3437 02B5                      l3429 028C                      l3541 0F26  
                    l3533 0EF1                      l3525 0E8F                      l3517 0E0E  
                    l3509 0DCA                      l3621 011D                      l3613 0106  
                    l3605 00E7                      l3199 0B56                      l3375 07C8  
                    l3367 07A9                      l3359 077B                      l3295 05AD  
                    l3287 057F                      l3279 0567                      l3383 07F0  
                    l3471 043B                      l3463 039F                      l3455 0349  
                    l3447 0300                      l3439 02C3                      l3391 01DD  
                    l3551 0FCE                      l3543 0F2A                      l3535 0F09  
                    l3527 0E95                      l3519 0E2B                      l3631 0143  
                    l3623 0128                      l3615 010B                      l3607 00ED  
                    l3377 07CE                      l3369 07AF                      l3297 05BA  
                    l3289 058C                      l3481 048F                      l3473 0442  
                    l3465 03A5                      l3457 0365                      l3449 031C  
                    l3393 01E4                      l3385 01CA                      l3553 0FE3  
                    l3545 0F2F                      l3537 0F0F                      l3529 0EB4  
                    l3633 014A                      l3641 0160                      l3625 012E  
                    l3617 0111                      l3609 00F3                      l3561 0090  
                    l3379 07DE                      l3299 05CA                      l3475 0448  
                    l3467 03B0                      l3459 036E                      l3483 049D  
                    l3395 01E5                      l3387 01D0                      l3547 0F36  
                    l3539 0F15                      l3491 0D45                      l3651 01A5  
                    l3635 0151                      l3643 016D                      l3627 0136  
                    l3619 0117                      l3571 00A1                      l3563 0094  
                    l3555 0086                      l3485 04A4                      l3477 0470  
                    l3469 03B7                      l3397 01F1                      l3389 01D6  
                    l3549 0FC7                      l3493 0D4B                      l3653 01AB  
                    l3637 0158                      l3629 013C                      l3645 017B  
                    l3581 00B3                      l3573 00A2                      l3565 009B  
                    l3557 0089                      l3487 04B9                      l3479 0489  
                    l3399 01F5                      l3495 0D59                      l3655 01B1  
                    l3647 0182                      l3639 015F                      l3591 00CB  
                    l3583 00B9                      l3575 00A3                      l3567 009D  
                    l3559 008B                      l2953 09F1                      l2961 0C9F  
                    l3497 0D6A                      l3489 0D2A                      l3657 01B7  
                    l3649 0197                      l3593 00CF                      l3585 00BF  
                    l3577 00A7                      l3569 00A0                      l2955 09FA  
                    l2971 0CC5                      l2963 0CA8                      l3499 0D71  
                    l3659 01B8                      l3595 00D3                      l3587 00C5  
                    l3579 00AD                      l2957 09FB                      l2981 0D03  
                    l2965 0CAE                      l2973 0CD6                      l3597 00D5  
                    l3589 00C9                      l2983 0D12                      l2975 0CDD  
                    l2967 0CB4                      l2959 0C95                      l2991 0A73  
                    l3599 00D6                      l2977 0CED                      l2985 0D17  
                    l2969 0CC0                      l2993 0A7A                      l2979 0CF5  
                    l2995 0A7F                      l2987 0A65                      l2997 0A85  
                    l2989 0A6F                      l2999 0A96                      STR_1 0877  
                    STR_2 08CE                      STR_3 08AF                      STR_4 08E1  
                    STR_5 08A7                      STR_6 0897                      STR_7 089F  
                    STR_8 08E1                      STR_9 0858                      u3000 0D1D  
                    u3001 0D1C                      u3010 0D26                      u3011 0D25  
                    u3020 0A6F                      u3021 0A6E                      u3110 0A3B  
                    u3111 0A3A                      u3040 0A83                      u3120 0A47  
                    u4000 012E                      u3041 0A82                      u3121 0A46  
                    u3105 0A2C                      u4001 012D                      u3210 005D  
                    u4010 0136                      u3035 0A74                      u3211 005C  
                    u4011 0135                      u3060 0A96                      u3140 0A5B  
                    u3300 0BB0                      u4020 013C                      u3061 0A95  
                    u3141 0A5A                      u3125 0A43                      u3205 004D  
                    u3301 0BAF                      u4021 013B                      u3230 0072  
                    u3150 0016                      u3310 0C36                      u4030 0181  
                    u3055 0A86                      u3135 0A4F                      u3231 0071  
                    u3215 0059                      u3151 0015                      u3311 0C35  
                    u4031 0180                      u3080 0AAB                      u3240 0078  
                    u3160 0023                      u3400 0BDE                      u4040 0196  
                    u3081 0AAA                      u3065 0A92                      u3225 0066  
                    u3161 0022                      u3401 0BDD                      u4041 0195  
                    u3090 0A27                      u3170 0036                      u3250 0B68  
                    u3330 0C4C                      u3075 0A9F                      u3091 0A26  
                    u3171 0035                      u3251 0B67                      u3331 0C4B  
                    u3420 0BF2                      u3500 0B41                      u3325 0C3C  
                    u3421 0BF1                      u3501 0B40                      u3190 004A  
                    u3270 0B7E                      u3350 0C69                      u3430 0BFE  
                    u3510 0B5C                      u3191 0049                      u3271 0B7D  
                    u3351 0C68                      u3431 0BFD                      u3415 0BE3  
                    u3511 0B5B                      u3280 0B92                      u3520 096B  
                    u3600 04EA                      u3185 003B                      u3281 0B91  
                    u3265 0B6E                      u3345 0C50                      u3521 096A  
                    u3601 04E9                      u3370 0C88                      u3450 0C12  
                    u3530 09E2                      u3610 04F2                      u3371 0C87  
                    u3355 0C65                      u3451 0C11                      u3435 0BFA  
                    u3611 04F1                      u2900 0C9E                      u3460 0C18  
                    u3380 0BC5                      u3540 09EE                      u3620 04F8  
                    u3700 01E3                      u2901 0C9D                      u3285 0B8E  
                    u3365 0C7A                      u3445 0C06                      u3381 0BC4  
                    u3541 09ED                      u3621 04F7                      u3701 01E2  
                    u2910 0CA7                      u3390 0BD2                      u3470 0B17  
                    u3630 0539                      u3710 01FB                      u2911 0CA6  
                    u3295 0BA2                      u3391 0BD1                      u3471 0B16  
                    u3631 0538                      u3711 01FA                      u2920 0CAE  
                    u3480 0B30                      u3560 0AD6                      u3640 054D  
                    u3720 0238                      u2921 0CAD                      u3481 0B2C  
                    u3561 0AD5                      u3641 054C                      u3801 030E  
                    u3721 0237                      u2930 0CBF                      u3570 0AEE  
                    u3810 032A                      u3802 0315                      u3730 024F  
                    u2931 0CBE                      u3571 0AED                      u3555 0ABC  
                    u3803 031C                      u3731 024E                      u2940 0CCB  
                    u3580 0AF4                      u3660 0689                      u3740 0253  
                    u3900 0D70                      u2941 0CCA                      u3581 0AF3  
                    u3661 0688                      u3901 0D6F                      u2870 09F9  
                    u2950 0CD4                      u3494 0B33                      u3670 069E  
                    u3590 04E4                      u3750 0280                      u2871 09F8  
                    u2951 0CD3                      u3671 069D                      u3655 05D7  
                    u3591 04E3                      u3831 0357                      u3815 0325  
                    u3751 027F                      u2880 0A17                      u2960 0CDD  
                    u3680 06E9                      u3832 035E                      u3760 02B4  
                    u2961 0CDC                      u3681 06E8                      u3833 0365  
                    u3825 0342                      u3761 02B3                      u3921 0DBC  
                    u2890 0A1F                      u2970 0CEC                      u3690 06FE  
                    u3922 0DC3                      u2891 0A1E                      u2971 0CEB  
                    u3691 06FD                      u3851 037C                      u3923 0DCA  
                    u3915 0D92                      u2980 0D03                      u3860 0398  
                    u3852 0383                      u3940 0E03                      _RCEN 048B  
                    u2885 0A0A                      u2981 0D02                      u3853 038A  
                    u3845 0367                      u3781 02E9                      u2886 0A0B  
                    u2990 0D11                      u3870 03B0                      u3782 02F0  
                    u2887 0A10                      u2991 0D10                      u3871 03AF  
                    u3783 02F7                      u3775 02D4                      u3935 0DE0  
                    u2888 0A11                      u3880 04A3                      u3960 0F2A  
                    u2889 0A16                      u3881 04A2                      u3865 0393  
                    u3961 0F29                      u3945 0DFE                      u3890 04B8  
                    u3970 0FCD                      u3891 04B7                      u3795 02F9  
                    u3971 0FCC                      u3955 0F1C                      u3980 0FE2  
                    u3981 0FE1                      u3990 0128                      u3991 0127  
                    _main 0086                      _mode 0045                      btemp 007E  
            lcd_goto@data 007A                i2c_start@i 0076                      start 0000  
spi_baro@register_address 0023                     ?_main 0070                     _ACKEN 048C  
                   _ACKDT 048D           __end_of___awdiv 0086                     STR_10 0838  
                   STR_11 0848                     STR_12 0828                     STR_20 0817  
                   STR_21 08C3                     STR_13 088E                     STR_14 08D8  
                   STR_22 08BD                     STR_23 0884                     STR_15 0868  
                   STR_16 08D8                     STR_24 08C9                     STR_17 08D3  
                   STR_25 08B7                     STR_26 08BD                     STR_18 08D3  
                   STR_27 08DD                     STR_19 0806           __end_of___awmod 0C26  
         __end_of___lldiv 0C94           ___awdiv@divisor 0077           __end_of___llmod 0BBC  
                   _T2CON 0012           __end_of___lwdiv 0AB5           __end_of___lwmod 0A65  
         ___awdiv@counter 0020                     _PORTB 0006                     _TRISA 0085  
                   _TRISB 0086                     _TRISC 0087                     _SSPIF 0063  
         __end_of_lcd_clr 0964                     _delay 09F1                     _mode1 04C7  
                   _mode2 01CA                     _mode3 0D2A                     pclath 000A  
                   status 0003                     wtemp0 007E               mode1@result 0022  
            __end_of_main 01CA                    ??_main 0036         spi_baro@operation 0021  
                  ?_delay 0070              ?_send_config 0070                    _ADCON1 009F  
                  ?_mode1 0070                    ?_mode2 0070                    ?_mode3 0070  
        ___llmod@dividend 0074                    _CCPR1L 0015                    _CCPR2L 001B  
        ___awdiv@dividend 0079              ?_send_string 0070                    _SSPADD 0093  
                  _SSPCON 0014                    _SSPBUF 0013        __size_of_i2c_start 0096  
        __end_of_lcd_goto 0981           _i2c_master_data 0037                 ??___awdiv 007B  
               ??___awmod 0074           _i2c_master_rcvb 003E                 ??___lldiv 0078  
               ??___llmod 0078                 ??___lwdiv 007A                 ??___lwmod 0074  
           spi_start@data 0079          ___awdiv@quotient 0022           ___awmod@divisor 0070  
           spi_start@rcvb 007A           ___awmod@counter 0075                 ??_lcd_clr 0079  
                  clrloop 0004                    mode2@i 0032          __end_of_spi_baro 0B06  
            mode1@submode 0024          mode2@temperature 0031            __pcstackCOMMON 0070  
    mode2@temperature_raw 002D             __end_of_delay 0A21             __end_of_mode1 0800  
           __end_of_mode2 04C7             __end_of_mode3 1000         __end_of_i2c_start 0D2A  
                 ??_delay 0074                   ??_mode1 0020                   ??_mode2 0024  
                 ??_mode3 0024                __pbssBANK0 0037                __pmaintext 0086  
        mode3@temperature 0034        __size_of_send_char 0025                   _CCP1CON 0017  
                 _CCP2CON 001D      mode3@temperature_raw 0028        __size_of_spi_start 005A  
                 _SSPCON2 0091                 ?_lcd_goto 0070                   _SSPSTAT 0094  
    __size_of_send_config 0025      __size_of_send_string 0026                 ?_spi_baro 0020  
                 ___awdiv 000B                   ___awmod 0BBC                   ___lldiv 0C26  
                 ___llmod 0B60                   ___lwdiv 0A65                   ___lwmod 0A21  
                 _lcd_clr 0950          ___awmod@dividend 0072                ??_lcd_goto 0079  
    end_of_initialization 094C         __end_of_send_char 09CB           ___lldiv@divisor 0070  
           i2c_start@size 0070           ___lldiv@counter 007D         __end_of_spi_start 0B60  
              ??_spi_baro 007C             send_char@data 0078             mode3@pressure 002E  
     start_initialization 0943                 _i2c_start 0C94           ___llmod@divisor 0070  
         ___llmod@counter 0079             __pcstackBANK0 0020                ?_i2c_start 0070  
       __size_of_lcd_goto 001D          ___lwdiv@dividend 0078                  ?___awdiv 0077  
        i2c_start@address 0075                  ?___awmod 0070                 __ptext380 01CA  
               __ptext381 04C7                 __ptext390 0C26                 __ptext382 0AB5  
               __ptext391 0B60                 __ptext383 09CB                 __ptext392 000B  
               __ptext384 0964                 __ptext393 0A21                 __ptext385 0950  
               __ptext394 0A65                 __ptext386 0B06                 __ptext378 0000  
               __ptext395 0C94                 __ptext387 09A6                 __ptext379 0D2A  
               __ptext396 09F1                 __ptext388 0981                 __ptext397 0000  
               __ptext389 0BBC                  ?___lldiv 0070                  ?___llmod 0070  
                ?___lwdiv 0076                  ?___lwmod 0070         __size_of_spi_baro 0051  
               __pstrings 0800                  ?_lcd_clr 0070             ??_send_config 0078  
        ___lwdiv@quotient 007B            __size_of_delay 0030            __size_of_mode1 0339  
          __size_of_mode2 02FD            __size_of_mode3 02D6                 delay@data 0070  
           ??_send_string 0079                 _send_char 09A6         mode3@pressure_raw 002A  
    mode2@capacitance_raw 0029                 _spi_start 0B06               __stringbase 0805  
             ??_i2c_start 0073                spi_start@i 007B        i2c_start@operation 0071  
               mode3@temp 0032       __end_of_send_config 09A6                ?_send_char 0070  
            send_string@s 007A       __end_of_send_string 09F1          __size_of___awdiv 007B  
        __size_of___awmod 006A          __size_of___lldiv 006E          __size_of___llmod 005C  
        __size_of___lwdiv 0050          __size_of___lwmod 0044                ?_spi_start 0070  
        __size_of_lcd_clr 0014           ___lwdiv@divisor 0076           ___lwdiv@counter 007D  
                _lcd_goto 0964             __size_of_main 0144                  clear_ram 0003  
                _spi_baro 0AB5             _spi_baro_rcvb 0046               _send_config 0981  
             _send_string 09CB          ___lwmod@dividend 0072          ___lldiv@dividend 0074  
        mode2@capacitance 0033               ??_send_char 0078                 stringcode 0800  
             ??_spi_start 0078          ___lldiv@quotient 0079           ___lwmod@divisor 0070  
         ___lwmod@counter 0075                  stringdir 0800                  stringtab 0800  
